
stm32_bsp_freertos_motor_control_polling.elf:     file format elf32-littlearm

Sections:
Idx Name          Size      VMA       LMA       File off  Algn
  0 .isr_vector   00000194  08000000  08000000  00010000  2**0
                  CONTENTS, ALLOC, LOAD, READONLY, DATA
  1 .text         000040a8  080001a0  080001a0  000101a0  2**4
                  CONTENTS, ALLOC, LOAD, READONLY, CODE
  2 .rodata       000001a8  08004248  08004248  00014248  2**2
                  CONTENTS, ALLOC, LOAD, READONLY, DATA
  3 .ARM          00000008  080043f0  080043f0  000143f0  2**2
                  CONTENTS, ALLOC, LOAD, READONLY, DATA
  4 .init_array   00000004  080043f8  080043f8  000143f8  2**2
                  CONTENTS, ALLOC, LOAD, DATA
  5 .fini_array   00000004  080043fc  080043fc  000143fc  2**2
                  CONTENTS, ALLOC, LOAD, DATA
  6 .data         0000036c  20000000  08004400  00020000  2**2
                  CONTENTS, ALLOC, LOAD, DATA
  7 .bss          00004180  2000036c  0800476c  0002036c  2**2
                  ALLOC
  8 ._user_heap_stack 00000600  200044ec  0800476c  000244ec  2**0
                  ALLOC
  9 .ARM.attributes 00000030  00000000  00000000  0002036c  2**0
                  CONTENTS, READONLY
 10 .debug_info   00021453  00000000  00000000  0002039c  2**0
                  CONTENTS, READONLY, DEBUGGING
 11 .debug_abbrev 00004049  00000000  00000000  000417ef  2**0
                  CONTENTS, READONLY, DEBUGGING
 12 .debug_loc    0000c522  00000000  00000000  00045838  2**0
                  CONTENTS, READONLY, DEBUGGING
 13 .debug_aranges 000012c0  00000000  00000000  00051d60  2**3
                  CONTENTS, READONLY, DEBUGGING
 14 .debug_ranges 00001778  00000000  00000000  00053020  2**3
                  CONTENTS, READONLY, DEBUGGING
 15 .debug_line   00008fb9  00000000  00000000  00054798  2**0
                  CONTENTS, READONLY, DEBUGGING
 16 .debug_str    000072bf  00000000  00000000  0005d751  2**0
                  CONTENTS, READONLY, DEBUGGING
 17 .comment      0000007c  00000000  00000000  00064a10  2**0
                  CONTENTS, READONLY
 18 .debug_frame  000038b0  00000000  00000000  00064a8c  2**2
                  CONTENTS, READONLY, DEBUGGING

Disassembly of section .text:

080001a0 <__do_global_dtors_aux>:
 80001a0:	b510      	push	{r4, lr}
 80001a2:	4c05      	ldr	r4, [pc, #20]	; (80001b8 <__do_global_dtors_aux+0x18>)
 80001a4:	7823      	ldrb	r3, [r4, #0]
 80001a6:	b933      	cbnz	r3, 80001b6 <__do_global_dtors_aux+0x16>
 80001a8:	4b04      	ldr	r3, [pc, #16]	; (80001bc <__do_global_dtors_aux+0x1c>)
 80001aa:	b113      	cbz	r3, 80001b2 <__do_global_dtors_aux+0x12>
 80001ac:	4804      	ldr	r0, [pc, #16]	; (80001c0 <__do_global_dtors_aux+0x20>)
 80001ae:	f3af 8000 	nop.w
 80001b2:	2301      	movs	r3, #1
 80001b4:	7023      	strb	r3, [r4, #0]
 80001b6:	bd10      	pop	{r4, pc}
 80001b8:	2000036c 	.word	0x2000036c
 80001bc:	00000000 	.word	0x00000000
 80001c0:	08004230 	.word	0x08004230

080001c4 <frame_dummy>:
 80001c4:	b508      	push	{r3, lr}
 80001c6:	4b03      	ldr	r3, [pc, #12]	; (80001d4 <frame_dummy+0x10>)
 80001c8:	b11b      	cbz	r3, 80001d2 <frame_dummy+0xe>
 80001ca:	4903      	ldr	r1, [pc, #12]	; (80001d8 <frame_dummy+0x14>)
 80001cc:	4803      	ldr	r0, [pc, #12]	; (80001dc <frame_dummy+0x18>)
 80001ce:	f3af 8000 	nop.w
 80001d2:	bd08      	pop	{r3, pc}
 80001d4:	00000000 	.word	0x00000000
 80001d8:	20000370 	.word	0x20000370
 80001dc:	08004230 	.word	0x08004230

080001e0 <__aeabi_uldivmod>:
 80001e0:	b953      	cbnz	r3, 80001f8 <__aeabi_uldivmod+0x18>
 80001e2:	b94a      	cbnz	r2, 80001f8 <__aeabi_uldivmod+0x18>
 80001e4:	2900      	cmp	r1, #0
 80001e6:	bf08      	it	eq
 80001e8:	2800      	cmpeq	r0, #0
 80001ea:	bf1c      	itt	ne
 80001ec:	f04f 31ff 	movne.w	r1, #4294967295	; 0xffffffff
 80001f0:	f04f 30ff 	movne.w	r0, #4294967295	; 0xffffffff
 80001f4:	f000 b97a 	b.w	80004ec <__aeabi_idiv0>
 80001f8:	f1ad 0c08 	sub.w	ip, sp, #8
 80001fc:	e96d ce04 	strd	ip, lr, [sp, #-16]!
 8000200:	f000 f806 	bl	8000210 <__udivmoddi4>
 8000204:	f8dd e004 	ldr.w	lr, [sp, #4]
 8000208:	e9dd 2302 	ldrd	r2, r3, [sp, #8]
 800020c:	b004      	add	sp, #16
 800020e:	4770      	bx	lr

08000210 <__udivmoddi4>:
 8000210:	e92d 47f0 	stmdb	sp!, {r4, r5, r6, r7, r8, r9, sl, lr}
 8000214:	468c      	mov	ip, r1
 8000216:	460d      	mov	r5, r1
 8000218:	4604      	mov	r4, r0
 800021a:	9e08      	ldr	r6, [sp, #32]
 800021c:	2b00      	cmp	r3, #0
 800021e:	d151      	bne.n	80002c4 <__udivmoddi4+0xb4>
 8000220:	428a      	cmp	r2, r1
 8000222:	4617      	mov	r7, r2
 8000224:	d96d      	bls.n	8000302 <__udivmoddi4+0xf2>
 8000226:	fab2 fe82 	clz	lr, r2
 800022a:	f1be 0f00 	cmp.w	lr, #0
 800022e:	d00b      	beq.n	8000248 <__udivmoddi4+0x38>
 8000230:	f1ce 0c20 	rsb	ip, lr, #32
 8000234:	fa01 f50e 	lsl.w	r5, r1, lr
 8000238:	fa20 fc0c 	lsr.w	ip, r0, ip
 800023c:	fa02 f70e 	lsl.w	r7, r2, lr
 8000240:	ea4c 0c05 	orr.w	ip, ip, r5
 8000244:	fa00 f40e 	lsl.w	r4, r0, lr
 8000248:	ea4f 4a17 	mov.w	sl, r7, lsr #16
 800024c:	0c25      	lsrs	r5, r4, #16
 800024e:	fbbc f8fa 	udiv	r8, ip, sl
 8000252:	fa1f f987 	uxth.w	r9, r7
 8000256:	fb0a cc18 	mls	ip, sl, r8, ip
 800025a:	ea45 450c 	orr.w	r5, r5, ip, lsl #16
 800025e:	fb08 f309 	mul.w	r3, r8, r9
 8000262:	42ab      	cmp	r3, r5
 8000264:	d90a      	bls.n	800027c <__udivmoddi4+0x6c>
 8000266:	19ed      	adds	r5, r5, r7
 8000268:	f108 32ff 	add.w	r2, r8, #4294967295	; 0xffffffff
 800026c:	f080 8123 	bcs.w	80004b6 <__udivmoddi4+0x2a6>
 8000270:	42ab      	cmp	r3, r5
 8000272:	f240 8120 	bls.w	80004b6 <__udivmoddi4+0x2a6>
 8000276:	f1a8 0802 	sub.w	r8, r8, #2
 800027a:	443d      	add	r5, r7
 800027c:	1aed      	subs	r5, r5, r3
 800027e:	b2a4      	uxth	r4, r4
 8000280:	fbb5 f0fa 	udiv	r0, r5, sl
 8000284:	fb0a 5510 	mls	r5, sl, r0, r5
 8000288:	ea44 4405 	orr.w	r4, r4, r5, lsl #16
 800028c:	fb00 f909 	mul.w	r9, r0, r9
 8000290:	45a1      	cmp	r9, r4
 8000292:	d909      	bls.n	80002a8 <__udivmoddi4+0x98>
 8000294:	19e4      	adds	r4, r4, r7
 8000296:	f100 33ff 	add.w	r3, r0, #4294967295	; 0xffffffff
 800029a:	f080 810a 	bcs.w	80004b2 <__udivmoddi4+0x2a2>
 800029e:	45a1      	cmp	r9, r4
 80002a0:	f240 8107 	bls.w	80004b2 <__udivmoddi4+0x2a2>
 80002a4:	3802      	subs	r0, #2
 80002a6:	443c      	add	r4, r7
 80002a8:	eba4 0409 	sub.w	r4, r4, r9
 80002ac:	ea40 4008 	orr.w	r0, r0, r8, lsl #16
 80002b0:	2100      	movs	r1, #0
 80002b2:	2e00      	cmp	r6, #0
 80002b4:	d061      	beq.n	800037a <__udivmoddi4+0x16a>
 80002b6:	fa24 f40e 	lsr.w	r4, r4, lr
 80002ba:	2300      	movs	r3, #0
 80002bc:	6034      	str	r4, [r6, #0]
 80002be:	6073      	str	r3, [r6, #4]
 80002c0:	e8bd 87f0 	ldmia.w	sp!, {r4, r5, r6, r7, r8, r9, sl, pc}
 80002c4:	428b      	cmp	r3, r1
 80002c6:	d907      	bls.n	80002d8 <__udivmoddi4+0xc8>
 80002c8:	2e00      	cmp	r6, #0
 80002ca:	d054      	beq.n	8000376 <__udivmoddi4+0x166>
 80002cc:	2100      	movs	r1, #0
 80002ce:	e886 0021 	stmia.w	r6, {r0, r5}
 80002d2:	4608      	mov	r0, r1
 80002d4:	e8bd 87f0 	ldmia.w	sp!, {r4, r5, r6, r7, r8, r9, sl, pc}
 80002d8:	fab3 f183 	clz	r1, r3
 80002dc:	2900      	cmp	r1, #0
 80002de:	f040 808e 	bne.w	80003fe <__udivmoddi4+0x1ee>
 80002e2:	42ab      	cmp	r3, r5
 80002e4:	d302      	bcc.n	80002ec <__udivmoddi4+0xdc>
 80002e6:	4282      	cmp	r2, r0
 80002e8:	f200 80fa 	bhi.w	80004e0 <__udivmoddi4+0x2d0>
 80002ec:	1a84      	subs	r4, r0, r2
 80002ee:	eb65 0503 	sbc.w	r5, r5, r3
 80002f2:	2001      	movs	r0, #1
 80002f4:	46ac      	mov	ip, r5
 80002f6:	2e00      	cmp	r6, #0
 80002f8:	d03f      	beq.n	800037a <__udivmoddi4+0x16a>
 80002fa:	e886 1010 	stmia.w	r6, {r4, ip}
 80002fe:	e8bd 87f0 	ldmia.w	sp!, {r4, r5, r6, r7, r8, r9, sl, pc}
 8000302:	b912      	cbnz	r2, 800030a <__udivmoddi4+0xfa>
 8000304:	2701      	movs	r7, #1
 8000306:	fbb7 f7f2 	udiv	r7, r7, r2
 800030a:	fab7 fe87 	clz	lr, r7
 800030e:	f1be 0f00 	cmp.w	lr, #0
 8000312:	d134      	bne.n	800037e <__udivmoddi4+0x16e>
 8000314:	1beb      	subs	r3, r5, r7
 8000316:	0c3a      	lsrs	r2, r7, #16
 8000318:	fa1f fc87 	uxth.w	ip, r7
 800031c:	2101      	movs	r1, #1
 800031e:	fbb3 f8f2 	udiv	r8, r3, r2
 8000322:	0c25      	lsrs	r5, r4, #16
 8000324:	fb02 3318 	mls	r3, r2, r8, r3
 8000328:	ea45 4503 	orr.w	r5, r5, r3, lsl #16
 800032c:	fb0c f308 	mul.w	r3, ip, r8
 8000330:	42ab      	cmp	r3, r5
 8000332:	d907      	bls.n	8000344 <__udivmoddi4+0x134>
 8000334:	19ed      	adds	r5, r5, r7
 8000336:	f108 30ff 	add.w	r0, r8, #4294967295	; 0xffffffff
 800033a:	d202      	bcs.n	8000342 <__udivmoddi4+0x132>
 800033c:	42ab      	cmp	r3, r5
 800033e:	f200 80d1 	bhi.w	80004e4 <__udivmoddi4+0x2d4>
 8000342:	4680      	mov	r8, r0
 8000344:	1aed      	subs	r5, r5, r3
 8000346:	b2a3      	uxth	r3, r4
 8000348:	fbb5 f0f2 	udiv	r0, r5, r2
 800034c:	fb02 5510 	mls	r5, r2, r0, r5
 8000350:	ea43 4405 	orr.w	r4, r3, r5, lsl #16
 8000354:	fb0c fc00 	mul.w	ip, ip, r0
 8000358:	45a4      	cmp	ip, r4
 800035a:	d907      	bls.n	800036c <__udivmoddi4+0x15c>
 800035c:	19e4      	adds	r4, r4, r7
 800035e:	f100 33ff 	add.w	r3, r0, #4294967295	; 0xffffffff
 8000362:	d202      	bcs.n	800036a <__udivmoddi4+0x15a>
 8000364:	45a4      	cmp	ip, r4
 8000366:	f200 80b8 	bhi.w	80004da <__udivmoddi4+0x2ca>
 800036a:	4618      	mov	r0, r3
 800036c:	eba4 040c 	sub.w	r4, r4, ip
 8000370:	ea40 4008 	orr.w	r0, r0, r8, lsl #16
 8000374:	e79d      	b.n	80002b2 <__udivmoddi4+0xa2>
 8000376:	4631      	mov	r1, r6
 8000378:	4630      	mov	r0, r6
 800037a:	e8bd 87f0 	ldmia.w	sp!, {r4, r5, r6, r7, r8, r9, sl, pc}
 800037e:	f1ce 0420 	rsb	r4, lr, #32
 8000382:	fa05 f30e 	lsl.w	r3, r5, lr
 8000386:	fa07 f70e 	lsl.w	r7, r7, lr
 800038a:	fa20 f804 	lsr.w	r8, r0, r4
 800038e:	0c3a      	lsrs	r2, r7, #16
 8000390:	fa25 f404 	lsr.w	r4, r5, r4
 8000394:	ea48 0803 	orr.w	r8, r8, r3
 8000398:	fbb4 f1f2 	udiv	r1, r4, r2
 800039c:	ea4f 4518 	mov.w	r5, r8, lsr #16
 80003a0:	fb02 4411 	mls	r4, r2, r1, r4
 80003a4:	fa1f fc87 	uxth.w	ip, r7
 80003a8:	ea45 4504 	orr.w	r5, r5, r4, lsl #16
 80003ac:	fb01 f30c 	mul.w	r3, r1, ip
 80003b0:	42ab      	cmp	r3, r5
 80003b2:	fa00 f40e 	lsl.w	r4, r0, lr
 80003b6:	d909      	bls.n	80003cc <__udivmoddi4+0x1bc>
 80003b8:	19ed      	adds	r5, r5, r7
 80003ba:	f101 30ff 	add.w	r0, r1, #4294967295	; 0xffffffff
 80003be:	f080 808a 	bcs.w	80004d6 <__udivmoddi4+0x2c6>
 80003c2:	42ab      	cmp	r3, r5
 80003c4:	f240 8087 	bls.w	80004d6 <__udivmoddi4+0x2c6>
 80003c8:	3902      	subs	r1, #2
 80003ca:	443d      	add	r5, r7
 80003cc:	1aeb      	subs	r3, r5, r3
 80003ce:	fa1f f588 	uxth.w	r5, r8
 80003d2:	fbb3 f0f2 	udiv	r0, r3, r2
 80003d6:	fb02 3310 	mls	r3, r2, r0, r3
 80003da:	ea45 4503 	orr.w	r5, r5, r3, lsl #16
 80003de:	fb00 f30c 	mul.w	r3, r0, ip
 80003e2:	42ab      	cmp	r3, r5
 80003e4:	d907      	bls.n	80003f6 <__udivmoddi4+0x1e6>
 80003e6:	19ed      	adds	r5, r5, r7
 80003e8:	f100 38ff 	add.w	r8, r0, #4294967295	; 0xffffffff
 80003ec:	d26f      	bcs.n	80004ce <__udivmoddi4+0x2be>
 80003ee:	42ab      	cmp	r3, r5
 80003f0:	d96d      	bls.n	80004ce <__udivmoddi4+0x2be>
 80003f2:	3802      	subs	r0, #2
 80003f4:	443d      	add	r5, r7
 80003f6:	1aeb      	subs	r3, r5, r3
 80003f8:	ea40 4101 	orr.w	r1, r0, r1, lsl #16
 80003fc:	e78f      	b.n	800031e <__udivmoddi4+0x10e>
 80003fe:	f1c1 0720 	rsb	r7, r1, #32
 8000402:	fa22 f807 	lsr.w	r8, r2, r7
 8000406:	408b      	lsls	r3, r1
 8000408:	fa05 f401 	lsl.w	r4, r5, r1
 800040c:	ea48 0303 	orr.w	r3, r8, r3
 8000410:	fa20 fe07 	lsr.w	lr, r0, r7
 8000414:	ea4f 4c13 	mov.w	ip, r3, lsr #16
 8000418:	40fd      	lsrs	r5, r7
 800041a:	ea4e 0e04 	orr.w	lr, lr, r4
 800041e:	fbb5 f9fc 	udiv	r9, r5, ip
 8000422:	ea4f 441e 	mov.w	r4, lr, lsr #16
 8000426:	fb0c 5519 	mls	r5, ip, r9, r5
 800042a:	fa1f f883 	uxth.w	r8, r3
 800042e:	ea44 4505 	orr.w	r5, r4, r5, lsl #16
 8000432:	fb09 f408 	mul.w	r4, r9, r8
 8000436:	42ac      	cmp	r4, r5
 8000438:	fa02 f201 	lsl.w	r2, r2, r1
 800043c:	fa00 fa01 	lsl.w	sl, r0, r1
 8000440:	d908      	bls.n	8000454 <__udivmoddi4+0x244>
 8000442:	18ed      	adds	r5, r5, r3
 8000444:	f109 30ff 	add.w	r0, r9, #4294967295	; 0xffffffff
 8000448:	d243      	bcs.n	80004d2 <__udivmoddi4+0x2c2>
 800044a:	42ac      	cmp	r4, r5
 800044c:	d941      	bls.n	80004d2 <__udivmoddi4+0x2c2>
 800044e:	f1a9 0902 	sub.w	r9, r9, #2
 8000452:	441d      	add	r5, r3
 8000454:	1b2d      	subs	r5, r5, r4
 8000456:	fa1f fe8e 	uxth.w	lr, lr
 800045a:	fbb5 f0fc 	udiv	r0, r5, ip
 800045e:	fb0c 5510 	mls	r5, ip, r0, r5
 8000462:	ea4e 4405 	orr.w	r4, lr, r5, lsl #16
 8000466:	fb00 f808 	mul.w	r8, r0, r8
 800046a:	45a0      	cmp	r8, r4
 800046c:	d907      	bls.n	800047e <__udivmoddi4+0x26e>
 800046e:	18e4      	adds	r4, r4, r3
 8000470:	f100 35ff 	add.w	r5, r0, #4294967295	; 0xffffffff
 8000474:	d229      	bcs.n	80004ca <__udivmoddi4+0x2ba>
 8000476:	45a0      	cmp	r8, r4
 8000478:	d927      	bls.n	80004ca <__udivmoddi4+0x2ba>
 800047a:	3802      	subs	r0, #2
 800047c:	441c      	add	r4, r3
 800047e:	ea40 4009 	orr.w	r0, r0, r9, lsl #16
 8000482:	eba4 0408 	sub.w	r4, r4, r8
 8000486:	fba0 8902 	umull	r8, r9, r0, r2
 800048a:	454c      	cmp	r4, r9
 800048c:	46c6      	mov	lr, r8
 800048e:	464d      	mov	r5, r9
 8000490:	d315      	bcc.n	80004be <__udivmoddi4+0x2ae>
 8000492:	d012      	beq.n	80004ba <__udivmoddi4+0x2aa>
 8000494:	b156      	cbz	r6, 80004ac <__udivmoddi4+0x29c>
 8000496:	ebba 030e 	subs.w	r3, sl, lr
 800049a:	eb64 0405 	sbc.w	r4, r4, r5
 800049e:	fa04 f707 	lsl.w	r7, r4, r7
 80004a2:	40cb      	lsrs	r3, r1
 80004a4:	431f      	orrs	r7, r3
 80004a6:	40cc      	lsrs	r4, r1
 80004a8:	6037      	str	r7, [r6, #0]
 80004aa:	6074      	str	r4, [r6, #4]
 80004ac:	2100      	movs	r1, #0
 80004ae:	e8bd 87f0 	ldmia.w	sp!, {r4, r5, r6, r7, r8, r9, sl, pc}
 80004b2:	4618      	mov	r0, r3
 80004b4:	e6f8      	b.n	80002a8 <__udivmoddi4+0x98>
 80004b6:	4690      	mov	r8, r2
 80004b8:	e6e0      	b.n	800027c <__udivmoddi4+0x6c>
 80004ba:	45c2      	cmp	sl, r8
 80004bc:	d2ea      	bcs.n	8000494 <__udivmoddi4+0x284>
 80004be:	ebb8 0e02 	subs.w	lr, r8, r2
 80004c2:	eb69 0503 	sbc.w	r5, r9, r3
 80004c6:	3801      	subs	r0, #1
 80004c8:	e7e4      	b.n	8000494 <__udivmoddi4+0x284>
 80004ca:	4628      	mov	r0, r5
 80004cc:	e7d7      	b.n	800047e <__udivmoddi4+0x26e>
 80004ce:	4640      	mov	r0, r8
 80004d0:	e791      	b.n	80003f6 <__udivmoddi4+0x1e6>
 80004d2:	4681      	mov	r9, r0
 80004d4:	e7be      	b.n	8000454 <__udivmoddi4+0x244>
 80004d6:	4601      	mov	r1, r0
 80004d8:	e778      	b.n	80003cc <__udivmoddi4+0x1bc>
 80004da:	3802      	subs	r0, #2
 80004dc:	443c      	add	r4, r7
 80004de:	e745      	b.n	800036c <__udivmoddi4+0x15c>
 80004e0:	4608      	mov	r0, r1
 80004e2:	e708      	b.n	80002f6 <__udivmoddi4+0xe6>
 80004e4:	f1a8 0802 	sub.w	r8, r8, #2
 80004e8:	443d      	add	r5, r7
 80004ea:	e72b      	b.n	8000344 <__udivmoddi4+0x134>

080004ec <__aeabi_idiv0>:
 80004ec:	4770      	bx	lr
 80004ee:	bf00      	nop

080004f0 <L6206_AttachErrorHandler>:
 * to the error Hanlder
 * @retval None
 **********************************************************/
void L6206_AttachErrorHandler(void (*callback)(uint16_t))
{
  errorHandlerCallback = (void (*)(uint16_t))callback;
 80004f0:	4b01      	ldr	r3, [pc, #4]	; (80004f8 <L6206_AttachErrorHandler+0x8>)
 80004f2:	6018      	str	r0, [r3, #0]
 80004f4:	4770      	bx	lr
 80004f6:	bf00      	nop
 80004f8:	2000435c 	.word	0x2000435c

080004fc <L6206_AttachFlagInterrupt>:
 * to the Flag Interrupt
 * @retval None
 **********************************************************/
void L6206_AttachFlagInterrupt(void (*callback)(void))
{
  flagInterruptCallback = (void (*)())callback;
 80004fc:	4b01      	ldr	r3, [pc, #4]	; (8000504 <L6206_AttachFlagInterrupt+0x8>)
 80004fe:	6018      	str	r0, [r3, #0]
 8000500:	4770      	bx	lr
 8000502:	bf00      	nop
 8000504:	20004360 	.word	0x20004360

08000508 <L6206_GetBridgeInputPwmFreq>:
 * @param[in] bridgeId 0 for bridge A, 1 for bridge B
 * @retval Freq in Hz
 **********************************************************/
uint32_t L6206_GetBridgeInputPwmFreq(uint8_t bridgeId)
{                                                  
  return (devicePrm.pwmFreq[(bridgeId << 1)]);
 8000508:	4b02      	ldr	r3, [pc, #8]	; (8000514 <L6206_GetBridgeInputPwmFreq+0xc>)
 800050a:	eb03 00c0 	add.w	r0, r3, r0, lsl #3
}
 800050e:	6840      	ldr	r0, [r0, #4]
 8000510:	4770      	bx	lr
 8000512:	bf00      	nop
 8000514:	20004334 	.word	0x20004334

08000518 <L6206_GetFwVersion>:
 * @retval L6206_FW_VERSION
 **********************************************************/
uint32_t L6206_GetFwVersion(void)
{
  return (L6206_FW_VERSION);
}
 8000518:	2000      	movs	r0, #0
 800051a:	4770      	bx	lr

0800051c <L6206_ReadId>:
 * @retval Id of the l6206 Driver Instance
 **********************************************************/
uint16_t L6206_ReadId(void)
{
  return(l6206DriverInstance);
}
 800051c:	4b01      	ldr	r3, [pc, #4]	; (8000524 <L6206_ReadId+0x8>)
 800051e:	8818      	ldrh	r0, [r3, #0]
 8000520:	4770      	bx	lr
 8000522:	bf00      	nop
 8000524:	20000388 	.word	0x20000388

08000528 <L6206_SetNbDevices>:
  }
  else
  {
    return FALSE;
  }
}
 8000528:	2801      	cmp	r0, #1
 800052a:	bf8c      	ite	hi
 800052c:	2000      	movhi	r0, #0
 800052e:	2001      	movls	r0, #1
 8000530:	4770      	bx	lr
	...

08000534 <L6206_ErrorHandler>:
 * @param[in] error Number of the error
 * @retval None
 **********************************************************/
void L6206_ErrorHandler(uint16_t error)
{
  if (errorHandlerCallback != 0)
 8000534:	4b02      	ldr	r3, [pc, #8]	; (8000540 <L6206_ErrorHandler+0xc>)
 8000536:	681b      	ldr	r3, [r3, #0]
 8000538:	b103      	cbz	r3, 800053c <L6206_ErrorHandler+0x8>
  {
    (void) errorHandlerCallback(error);
 800053a:	4718      	bx	r3
 800053c:	e7fe      	b.n	800053c <L6206_ErrorHandler+0x8>
 800053e:	bf00      	nop
 8000540:	2000435c 	.word	0x2000435c

08000544 <L6206_GetCurrentSpeed>:
{                                                  
 8000544:	b508      	push	{r3, lr}
  if (motorId > l6206ArrayNbMaxMotorsByConfig[devicePrm.config])
 8000546:	4b0a      	ldr	r3, [pc, #40]	; (8000570 <L6206_GetCurrentSpeed+0x2c>)
 8000548:	490a      	ldr	r1, [pc, #40]	; (8000574 <L6206_GetCurrentSpeed+0x30>)
 800054a:	781a      	ldrb	r2, [r3, #0]
 800054c:	5c8a      	ldrb	r2, [r1, r2]
 800054e:	4282      	cmp	r2, r0
 8000550:	d205      	bcs.n	800055e <L6206_GetCurrentSpeed+0x1a>
    L6206_ErrorHandler(L6206_ERROR_1);
 8000552:	f248 0001 	movw	r0, #32769	; 0x8001
 8000556:	f7ff ffed 	bl	8000534 <L6206_ErrorHandler>
  uint16_t speed = 0;
 800055a:	2000      	movs	r0, #0
}
 800055c:	bd08      	pop	{r3, pc}
  else if (devicePrm.motionState[motorId] != INACTIVE)
 800055e:	181a      	adds	r2, r3, r0
 8000560:	f892 2020 	ldrb.w	r2, [r2, #32]
 8000564:	2a08      	cmp	r2, #8
 8000566:	d0f8      	beq.n	800055a <L6206_GetCurrentSpeed+0x16>
    speed = devicePrm.speed[motorId];
 8000568:	eb03 0340 	add.w	r3, r3, r0, lsl #1
 800056c:	8a98      	ldrh	r0, [r3, #20]
 800056e:	bd08      	pop	{r3, pc}
 8000570:	20004334 	.word	0x20004334
 8000574:	08004264 	.word	0x08004264

08000578 <L6206_GetDeviceState>:
{
 8000578:	b508      	push	{r3, lr}
  if (motorId > l6206ArrayNbMaxMotorsByConfig[devicePrm.config])
 800057a:	4b08      	ldr	r3, [pc, #32]	; (800059c <L6206_GetDeviceState+0x24>)
 800057c:	4908      	ldr	r1, [pc, #32]	; (80005a0 <L6206_GetDeviceState+0x28>)
 800057e:	781a      	ldrb	r2, [r3, #0]
 8000580:	5c8a      	ldrb	r2, [r1, r2]
 8000582:	4282      	cmp	r2, r0
 8000584:	d205      	bcs.n	8000592 <L6206_GetDeviceState+0x1a>
    L6206_ErrorHandler(L6206_ERROR_1);
 8000586:	f248 0001 	movw	r0, #32769	; 0x8001
 800058a:	f7ff ffd3 	bl	8000534 <L6206_ErrorHandler>
  motorState_t state =  INACTIVE;
 800058e:	2008      	movs	r0, #8
 8000590:	bd08      	pop	{r3, pc}
    state =  devicePrm.motionState[motorId];
 8000592:	4403      	add	r3, r0
 8000594:	f893 0020 	ldrb.w	r0, [r3, #32]
}
 8000598:	bd08      	pop	{r3, pc}
 800059a:	bf00      	nop
 800059c:	20004334 	.word	0x20004334
 80005a0:	08004264 	.word	0x08004264

080005a4 <L6206_GetMaxSpeed>:
{                                                  
 80005a4:	b508      	push	{r3, lr}
  if (motorId > l6206ArrayNbMaxMotorsByConfig[devicePrm.config])
 80005a6:	4b08      	ldr	r3, [pc, #32]	; (80005c8 <L6206_GetMaxSpeed+0x24>)
 80005a8:	4908      	ldr	r1, [pc, #32]	; (80005cc <L6206_GetMaxSpeed+0x28>)
 80005aa:	781a      	ldrb	r2, [r3, #0]
 80005ac:	5c8a      	ldrb	r2, [r1, r2]
 80005ae:	4282      	cmp	r2, r0
 80005b0:	d205      	bcs.n	80005be <L6206_GetMaxSpeed+0x1a>
    L6206_ErrorHandler(L6206_ERROR_1);
 80005b2:	f248 0001 	movw	r0, #32769	; 0x8001
 80005b6:	f7ff ffbd 	bl	8000534 <L6206_ErrorHandler>
  uint16_t speed = 0;
 80005ba:	2000      	movs	r0, #0
 80005bc:	bd08      	pop	{r3, pc}
    speed =  devicePrm.speed[motorId];
 80005be:	eb03 0340 	add.w	r3, r3, r0, lsl #1
 80005c2:	8a98      	ldrh	r0, [r3, #20]
}
 80005c4:	bd08      	pop	{r3, pc}
 80005c6:	bf00      	nop
 80005c8:	20004334 	.word	0x20004334
 80005cc:	08004264 	.word	0x08004264

080005d0 <L6206_GetBridgeStatus>:
{
 80005d0:	b508      	push	{r3, lr}
  uint16_t status = L6206_Board_GetFlagPinState(bridgeId);
 80005d2:	f000 fbab 	bl	8000d2c <L6206_Board_GetFlagPinState>
}
 80005d6:	b280      	uxth	r0, r0
 80005d8:	bd08      	pop	{r3, pc}
	...

080005dc <L6206_FlagInterruptHandler>:
/******************************************************//**
 * @brief  Handlers of the flag interrupt which calls the user callback (if defined)
 * @retval None
 **********************************************************/
void L6206_FlagInterruptHandler(void)
{
 80005dc:	b510      	push	{r4, lr}
  uint16_t status = L6206_Board_GetFlagPinState(bridgeId);
 80005de:	2000      	movs	r0, #0
 80005e0:	f000 fba4 	bl	8000d2c <L6206_Board_GetFlagPinState>
  bool status;
  
  status = L6206_GetBridgeStatus(BRIDGE_A);
  if (status != devicePrm.bridgeEnabled[BRIDGE_A])
 80005e4:	4c0c      	ldr	r4, [pc, #48]	; (8000618 <L6206_FlagInterruptHandler+0x3c>)
 80005e6:	f894 3024 	ldrb.w	r3, [r4, #36]	; 0x24
  status = L6206_GetBridgeStatus(BRIDGE_A);
 80005ea:	b2c0      	uxtb	r0, r0
  if (status != devicePrm.bridgeEnabled[BRIDGE_A])
 80005ec:	4283      	cmp	r3, r0
  {
    devicePrm.bridgeEnabled[BRIDGE_A] = status;
 80005ee:	bf18      	it	ne
 80005f0:	f884 0024 	strbne.w	r0, [r4, #36]	; 0x24
  uint16_t status = L6206_Board_GetFlagPinState(bridgeId);
 80005f4:	2001      	movs	r0, #1
 80005f6:	f000 fb99 	bl	8000d2c <L6206_Board_GetFlagPinState>
  }
  
  status = L6206_GetBridgeStatus(BRIDGE_B);
  if (status != devicePrm.bridgeEnabled[BRIDGE_B])
 80005fa:	f894 3025 	ldrb.w	r3, [r4, #37]	; 0x25
  status = L6206_GetBridgeStatus(BRIDGE_B);
 80005fe:	b2c0      	uxtb	r0, r0
  if (status != devicePrm.bridgeEnabled[BRIDGE_B])
 8000600:	4283      	cmp	r3, r0
  {
    devicePrm.bridgeEnabled[BRIDGE_B] = status;
  }  
  
  if (flagInterruptCallback != 0)
 8000602:	4b06      	ldr	r3, [pc, #24]	; (800061c <L6206_FlagInterruptHandler+0x40>)
    devicePrm.bridgeEnabled[BRIDGE_B] = status;
 8000604:	bf18      	it	ne
 8000606:	f884 0025 	strbne.w	r0, [r4, #37]	; 0x25
  if (flagInterruptCallback != 0)
 800060a:	681b      	ldr	r3, [r3, #0]
 800060c:	b113      	cbz	r3, 8000614 <L6206_FlagInterruptHandler+0x38>
  {
    flagInterruptCallback();
  }
}
 800060e:	e8bd 4010 	ldmia.w	sp!, {r4, lr}
    flagInterruptCallback();
 8000612:	4718      	bx	r3
 8000614:	bd10      	pop	{r4, pc}
 8000616:	bf00      	nop
 8000618:	20004334 	.word	0x20004334
 800061c:	20004360 	.word	0x20004360

08000620 <L6206_SetDualFullBridgeConfig>:
{
 8000620:	b510      	push	{r4, lr}
  devicePrm.config = (dualFullBridgeConfig_t)newConfig;
 8000622:	4c2b      	ldr	r4, [pc, #172]	; (80006d0 <L6206_SetDualFullBridgeConfig+0xb0>)
 8000624:	7020      	strb	r0, [r4, #0]
  L6206_Board_PwmDeInit(INPUT_1A);
 8000626:	2000      	movs	r0, #0
 8000628:	f000 fbec 	bl	8000e04 <L6206_Board_PwmDeInit>
  L6206_Board_PwmDeInit(INPUT_2A);
 800062c:	2001      	movs	r0, #1
 800062e:	f000 fbe9 	bl	8000e04 <L6206_Board_PwmDeInit>
  L6206_Board_PwmDeInit(INPUT_1B);
 8000632:	2002      	movs	r0, #2
 8000634:	f000 fbe6 	bl	8000e04 <L6206_Board_PwmDeInit>
  L6206_Board_PwmDeInit(INPUT_2B);
 8000638:	2003      	movs	r0, #3
 800063a:	f000 fbe3 	bl	8000e04 <L6206_Board_PwmDeInit>
  switch (devicePrm.config)
 800063e:	7823      	ldrb	r3, [r4, #0]
 8000640:	2b0c      	cmp	r3, #12
 8000642:	d844      	bhi.n	80006ce <L6206_SetDualFullBridgeConfig+0xae>
 8000644:	e8df f003 	tbb	[pc, r3]
 8000648:	07070707 	.word	0x07070707
 800064c:	1a1a1515 	.word	0x1a1a1515
 8000650:	2d2d2525 	.word	0x2d2d2525
 8000654:	38          	.byte	0x38
 8000655:	00          	.byte	0x00
        L6206_Board_PwmInit(INPUT_1A);
 8000656:	2000      	movs	r0, #0
 8000658:	f000 fbf8 	bl	8000e4c <L6206_Board_PwmInit>
        L6206_Board_PwmInit(INPUT_2A);
 800065c:	2001      	movs	r0, #1
        L6206_Board_PwmInit(INPUT_1A);
 800065e:	f000 fbf5 	bl	8000e4c <L6206_Board_PwmInit>
        L6206_Board_PwmInit(INPUT_1B);
 8000662:	2002      	movs	r0, #2
 8000664:	f000 fbf2 	bl	8000e4c <L6206_Board_PwmInit>
        L6206_Board_PwmInit(INPUT_2B);
 8000668:	2003      	movs	r0, #3
}
 800066a:	e8bd 4010 	ldmia.w	sp!, {r4, lr}
        L6206_Board_PwmInit(INPUT_1A);
 800066e:	f000 bbed 	b.w	8000e4c <L6206_Board_PwmInit>
        L6206_Board_PwmDeInit(INPUT_2A);
 8000672:	2001      	movs	r0, #1
 8000674:	f000 fbc6 	bl	8000e04 <L6206_Board_PwmDeInit>
        L6206_Board_PwmInit(INPUT_1A);
 8000678:	2000      	movs	r0, #0
 800067a:	e7f0      	b.n	800065e <L6206_SetDualFullBridgeConfig+0x3e>
        L6206_Board_PwmDeInit(INPUT_2B);
 800067c:	2003      	movs	r0, #3
 800067e:	f000 fbc1 	bl	8000e04 <L6206_Board_PwmDeInit>
        L6206_Board_PwmInit(INPUT_1A);
 8000682:	2000      	movs	r0, #0
 8000684:	f000 fbe2 	bl	8000e4c <L6206_Board_PwmInit>
        L6206_Board_PwmInit(INPUT_2A);
 8000688:	2001      	movs	r0, #1
        L6206_Board_PwmInit(INPUT_1A);
 800068a:	f000 fbdf 	bl	8000e4c <L6206_Board_PwmInit>
        L6206_Board_PwmInit(INPUT_1B);
 800068e:	2002      	movs	r0, #2
 8000690:	e7eb      	b.n	800066a <L6206_SetDualFullBridgeConfig+0x4a>
        L6206_Board_PwmDeInit(INPUT_2A);
 8000692:	2001      	movs	r0, #1
 8000694:	f000 fbb6 	bl	8000e04 <L6206_Board_PwmDeInit>
        L6206_Board_PwmDeInit(INPUT_2B);
 8000698:	2003      	movs	r0, #3
 800069a:	f000 fbb3 	bl	8000e04 <L6206_Board_PwmDeInit>
        L6206_Board_PwmInit(INPUT_1A);
 800069e:	2000      	movs	r0, #0
 80006a0:	e7f3      	b.n	800068a <L6206_SetDualFullBridgeConfig+0x6a>
        L6206_Board_PwmDeInit(INPUT_1B);
 80006a2:	2002      	movs	r0, #2
 80006a4:	f000 fbae 	bl	8000e04 <L6206_Board_PwmDeInit>
        L6206_Board_PwmDeInit(INPUT_2B);
 80006a8:	2003      	movs	r0, #3
 80006aa:	f000 fbab 	bl	8000e04 <L6206_Board_PwmDeInit>
        L6206_Board_PwmInit(INPUT_1A);
 80006ae:	2000      	movs	r0, #0
 80006b0:	f000 fbcc 	bl	8000e4c <L6206_Board_PwmInit>
        L6206_Board_PwmInit(INPUT_2A);
 80006b4:	2001      	movs	r0, #1
 80006b6:	e7d8      	b.n	800066a <L6206_SetDualFullBridgeConfig+0x4a>
        L6206_Board_PwmDeInit(INPUT_2A);
 80006b8:	2001      	movs	r0, #1
 80006ba:	f000 fba3 	bl	8000e04 <L6206_Board_PwmDeInit>
        L6206_Board_PwmDeInit(INPUT_1B);
 80006be:	2002      	movs	r0, #2
 80006c0:	f000 fba0 	bl	8000e04 <L6206_Board_PwmDeInit>
        L6206_Board_PwmDeInit(INPUT_2B);
 80006c4:	2003      	movs	r0, #3
 80006c6:	f000 fb9d 	bl	8000e04 <L6206_Board_PwmDeInit>
        L6206_Board_PwmInit(INPUT_1A);
 80006ca:	2000      	movs	r0, #0
 80006cc:	e7cd      	b.n	800066a <L6206_SetDualFullBridgeConfig+0x4a>
 80006ce:	bd10      	pop	{r4, pc}
 80006d0:	20004334 	.word	0x20004334

080006d4 <L6206_DisableBridge>:
{
 80006d4:	b570      	push	{r4, r5, r6, lr}
  devicePrm.bridgeEnabled[bridgeId] = FALSE;
 80006d6:	4c0c      	ldr	r4, [pc, #48]	; (8000708 <L6206_DisableBridge+0x34>)
{
 80006d8:	4606      	mov	r6, r0
  L6206_Board_DisableBridge(bridgeId);
 80006da:	f000 facb 	bl	8000c74 <L6206_Board_DisableBridge>
  devicePrm.bridgeEnabled[bridgeId] = FALSE;
 80006de:	19a3      	adds	r3, r4, r6
 80006e0:	2500      	movs	r5, #0
 80006e2:	f883 5024 	strb.w	r5, [r3, #36]	; 0x24
  if (devicePrm.config >= PARALLELING_IN1A_IN2A__IN1B_IN2B__1_BIDIR_MOTOR)
 80006e6:	7823      	ldrb	r3, [r4, #0]
 80006e8:	2b08      	cmp	r3, #8
 80006ea:	d90b      	bls.n	8000704 <L6206_DisableBridge+0x30>
    if (bridgeId == BRIDGE_A) 
 80006ec:	b92e      	cbnz	r6, 80006fa <L6206_DisableBridge+0x26>
      L6206_Board_DisableBridge(BRIDGE_B);
 80006ee:	2001      	movs	r0, #1
 80006f0:	f000 fac0 	bl	8000c74 <L6206_Board_DisableBridge>
      devicePrm.bridgeEnabled[BRIDGE_B] = FALSE;
 80006f4:	f884 6025 	strb.w	r6, [r4, #37]	; 0x25
 80006f8:	bd70      	pop	{r4, r5, r6, pc}
      L6206_Board_DisableBridge(BRIDGE_A);
 80006fa:	4628      	mov	r0, r5
 80006fc:	f000 faba 	bl	8000c74 <L6206_Board_DisableBridge>
      devicePrm.bridgeEnabled[BRIDGE_A] = FALSE;
 8000700:	f884 5024 	strb.w	r5, [r4, #36]	; 0x24
 8000704:	bd70      	pop	{r4, r5, r6, pc}
 8000706:	bf00      	nop
 8000708:	20004334 	.word	0x20004334

0800070c <L6206_EnableBridge>:
{
 800070c:	b570      	push	{r4, r5, r6, lr}
  devicePrm.bridgeEnabled[bridgeId] = TRUE;
 800070e:	4d0f      	ldr	r5, [pc, #60]	; (800074c <L6206_EnableBridge+0x40>)
 8000710:	182b      	adds	r3, r5, r0
 8000712:	2401      	movs	r4, #1
 8000714:	f883 4024 	strb.w	r4, [r3, #36]	; 0x24
  if (devicePrm.config >= PARALLELING_IN1A_IN2A__IN1B_IN2B__1_BIDIR_MOTOR)
 8000718:	782b      	ldrb	r3, [r5, #0]
 800071a:	2b08      	cmp	r3, #8
{
 800071c:	4606      	mov	r6, r0
  if (devicePrm.config >= PARALLELING_IN1A_IN2A__IN1B_IN2B__1_BIDIR_MOTOR)
 800071e:	d910      	bls.n	8000742 <L6206_EnableBridge+0x36>
    L6206_Board_EnableBridge(bridgeId, 0);
 8000720:	2100      	movs	r1, #0
 8000722:	f000 facf 	bl	8000cc4 <L6206_Board_EnableBridge>
      L6206_Board_EnableBridge(BRIDGE_B, 1);
 8000726:	4621      	mov	r1, r4
    if (bridgeId == BRIDGE_A) 
 8000728:	b92e      	cbnz	r6, 8000736 <L6206_EnableBridge+0x2a>
      L6206_Board_EnableBridge(BRIDGE_B, 1);
 800072a:	4620      	mov	r0, r4
 800072c:	f000 faca 	bl	8000cc4 <L6206_Board_EnableBridge>
      devicePrm.bridgeEnabled[BRIDGE_B] = TRUE;
 8000730:	f885 4025 	strb.w	r4, [r5, #37]	; 0x25
 8000734:	bd70      	pop	{r4, r5, r6, pc}
      L6206_Board_EnableBridge(BRIDGE_A, 1);
 8000736:	2000      	movs	r0, #0
 8000738:	f000 fac4 	bl	8000cc4 <L6206_Board_EnableBridge>
      devicePrm.bridgeEnabled[BRIDGE_A] = TRUE;
 800073c:	f885 4024 	strb.w	r4, [r5, #36]	; 0x24
 8000740:	bd70      	pop	{r4, r5, r6, pc}
    L6206_Board_EnableBridge(bridgeId, 1);
 8000742:	4621      	mov	r1, r4
}
 8000744:	e8bd 4070 	ldmia.w	sp!, {r4, r5, r6, lr}
    L6206_Board_EnableBridge(bridgeId, 1);
 8000748:	f000 babc 	b.w	8000cc4 <L6206_Board_EnableBridge>
 800074c:	20004334 	.word	0x20004334

08000750 <L6206_GetMotorHandle>:
}
 8000750:	4800      	ldr	r0, [pc, #0]	; (8000754 <L6206_GetMotorHandle+0x4>)
 8000752:	4770      	bx	lr
 8000754:	20000000 	.word	0x20000000

08000758 <L6206_GetBridgeIdUsedByMotorId>:
 * @retval bridgeId 0 for bridge A , 1 for bridge B
 **********************************************************/
uint8_t L6206_GetBridgeIdUsedByMotorId(uint8_t motorId)
{
  uint8_t bridgeId;
  switch (devicePrm.config)
 8000758:	4b0b      	ldr	r3, [pc, #44]	; (8000788 <L6206_GetBridgeIdUsedByMotorId+0x30>)
 800075a:	781a      	ldrb	r2, [r3, #0]
 800075c:	2a08      	cmp	r2, #8
 800075e:	d808      	bhi.n	8000772 <L6206_GetBridgeIdUsedByMotorId+0x1a>
 8000760:	2301      	movs	r3, #1
 8000762:	4093      	lsls	r3, r2
 8000764:	f240 1273 	movw	r2, #371	; 0x173
 8000768:	4213      	tst	r3, r2
 800076a:	d104      	bne.n	8000776 <L6206_GetBridgeIdUsedByMotorId+0x1e>
 800076c:	f013 038c 	ands.w	r3, r3, #140	; 0x8c
 8000770:	d105      	bne.n	800077e <L6206_GetBridgeIdUsedByMotorId+0x26>
    case PARALLELING_IN1A_IN2A__IN1B_IN2B__1_BIDIR_MOTOR:
    case PARALLELING_IN1A_IN1B__IN2A_IN2B__1_UNDIR_MOTOR_BRIDGE_1A__1_UNDIR_MOTOR_BRIDGE_2A:
    case PARALLELING_IN1A_IN1B__IN2A_IN2B__1_BIDIR_MOTOR:
    case PARALLELING_ALL_WITH_IN1A___1_UNDIR_MOTOR:
    default:
        bridgeId = 0;
 8000772:	2000      	movs	r0, #0
      break;        
  }  
  return (bridgeId);
}
 8000774:	4770      	bx	lr
        bridgeId = 1;
 8000776:	3000      	adds	r0, #0
 8000778:	bf18      	it	ne
 800077a:	2001      	movne	r0, #1
 800077c:	4770      	bx	lr
 800077e:	2801      	cmp	r0, #1
 8000780:	bf94      	ite	ls
 8000782:	2000      	movls	r0, #0
 8000784:	2001      	movhi	r0, #1
 8000786:	4770      	bx	lr
 8000788:	20004334 	.word	0x20004334

0800078c <L6206_GetMotorIdUsingbridgeInput>:
 **********************************************************/
uint8_t L6206_GetMotorIdUsingbridgeInput(uint8_t bridgeInput)
{
  uint8_t motorId;
  
  switch (devicePrm.config)
 800078c:	4b13      	ldr	r3, [pc, #76]	; (80007dc <L6206_GetMotorIdUsingbridgeInput+0x50>)
 800078e:	781b      	ldrb	r3, [r3, #0]
 8000790:	2b0a      	cmp	r3, #10
 8000792:	d81f      	bhi.n	80007d4 <L6206_GetMotorIdUsingbridgeInput+0x48>
 8000794:	e8df f003 	tbb	[pc, r3]
 8000798:	16120b06 	.word	0x16120b06
 800079c:	12060b06 	.word	0x12060b06
 80007a0:	1e06      	.short	0x1e06
 80007a2:	1b          	.byte	0x1b
 80007a3:	00          	.byte	0x00
      {
        motorId = 1;
      }
      else
      {
        motorId = 0;
 80007a4:	2801      	cmp	r0, #1
 80007a6:	bf94      	ite	ls
 80007a8:	2000      	movls	r0, #0
 80007aa:	2001      	movhi	r0, #1
 80007ac:	4770      	bx	lr
      }
      break;  
    case PARALLELING_NONE___1_BIDIR_MOTOR_BRIDGE_A__2_UNDIR_MOTOR_BRIDGE_B:
    case   PARALLELING_IN1A_IN2A__1_UNDIR_MOTOR_BRIDGE_A__2_UNDIR_MOTOR_BRIDGE_B:      
      if (bridgeInput == INPUT_2B) 
 80007ae:	2803      	cmp	r0, #3
 80007b0:	d012      	beq.n	80007d8 <L6206_GetMotorIdUsingbridgeInput+0x4c>
        motorId = 0;
 80007b2:	2802      	cmp	r0, #2
      }      
      break;           
    case PARALLELING_NONE___2_UNDIR_MOTOR_BRIDGE_A__2_UNDIR_MOTOR_BRIDGE_B:
      if (bridgeInput == INPUT_2B) 
      {
        motorId = 3;
 80007b4:	bf14      	ite	ne
 80007b6:	2000      	movne	r0, #0
 80007b8:	2001      	moveq	r0, #1
 80007ba:	4770      	bx	lr
      if (bridgeInput >= INPUT_1B) 
 80007bc:	2801      	cmp	r0, #1
 80007be:	d80b      	bhi.n	80007d8 <L6206_GetMotorIdUsingbridgeInput+0x4c>
        motorId = 3;
 80007c0:	2801      	cmp	r0, #1
 80007c2:	e7f7      	b.n	80007b4 <L6206_GetMotorIdUsingbridgeInput+0x28>
      if (bridgeInput == INPUT_2B) 
 80007c4:	2803      	cmp	r0, #3
 80007c6:	d008      	beq.n	80007da <L6206_GetMotorIdUsingbridgeInput+0x4e>
      }
      else if (bridgeInput == INPUT_1B) 
 80007c8:	2802      	cmp	r0, #2
 80007ca:	d1f9      	bne.n	80007c0 <L6206_GetMotorIdUsingbridgeInput+0x34>
 80007cc:	4770      	bx	lr
      {
        motorId = 0;
      }      
      break;           
    case PARALLELING_IN1A_IN1B__IN2A_IN2B__1_UNDIR_MOTOR_BRIDGE_1A__1_UNDIR_MOTOR_BRIDGE_2A:
      if ((bridgeInput == INPUT_2A) || (bridgeInput == INPUT_2B))
 80007ce:	f000 00fd 	and.w	r0, r0, #253	; 0xfd
 80007d2:	e7f5      	b.n	80007c0 <L6206_GetMotorIdUsingbridgeInput+0x34>
      break;
    case   PARALLELING_IN1A_IN2A__IN1B_IN2B__1_BIDIR_MOTOR:
    case   PARALLELING_IN1A_IN1B__IN2A_IN2B__1_BIDIR_MOTOR:
    case   PARALLELING_ALL_WITH_IN1A___1_UNDIR_MOTOR:
    default:
      motorId = 0;  
 80007d4:	2000      	movs	r0, #0
 80007d6:	4770      	bx	lr
        motorId = 2;
 80007d8:	2002      	movs	r0, #2
      break;        
  }
  
  return (motorId);
}
 80007da:	4770      	bx	lr
 80007dc:	20004334 	.word	0x20004334

080007e0 <L6206_GetBridgeInputUsedByMotorId>:
 * @retval PWM input 0 for 1A, 1 for 2A, 2 for 1B, 3 for 3B
 **********************************************************/
uint8_t L6206_GetBridgeInputUsedByMotorId(uint8_t motorId)
{
  uint8_t bridgeInput;
  switch (devicePrm.config)
 80007e0:	4b21      	ldr	r3, [pc, #132]	; (8000868 <L6206_GetBridgeInputUsedByMotorId+0x88>)
 80007e2:	781a      	ldrb	r2, [r3, #0]
 80007e4:	2a0b      	cmp	r2, #11
 80007e6:	d83d      	bhi.n	8000864 <L6206_GetBridgeInputUsedByMotorId+0x84>
 80007e8:	e8df f002 	tbb	[pc, r2]
 80007ec:	1a150e06 	.word	0x1a150e06
 80007f0:	2b272421 	.word	0x2b272421
 80007f4:	07383230 	.word	0x07383230
  {
    case PARALLELING_NONE___1_BIDIR_MOTOR_BRIDGE_A__1_BIDIR_MOTOR_BRIDGE_B:
      if  (motorId == 0)
 80007f8:	b918      	cbnz	r0, 8000802 <L6206_GetBridgeInputUsedByMotorId+0x22>
      {
        bridgeInput = INPUT_2A;
      }      
      break;
    case PARALLELING_IN1A_IN1B__IN2A_IN2B__1_BIDIR_MOTOR:
      if (devicePrm.direction[0] == FORWARD)
 80007fa:	7f18      	ldrb	r0, [r3, #28]
           bridgeInput = INPUT_1B;
 80007fc:	f110 30ff 	adds.w	r0, r0, #4294967295	; 0xffffffff
 8000800:	e02d      	b.n	800085e <L6206_GetBridgeInputUsedByMotorId+0x7e>
         if (devicePrm.direction[1] == FORWARD)
 8000802:	7f5b      	ldrb	r3, [r3, #29]
        bridgeInput = INPUT_1B;        
 8000804:	2b01      	cmp	r3, #1
 8000806:	e002      	b.n	800080e <L6206_GetBridgeInputUsedByMotorId+0x2e>
      if  (motorId == 0)
 8000808:	2800      	cmp	r0, #0
 800080a:	d0f6      	beq.n	80007fa <L6206_GetBridgeInputUsedByMotorId+0x1a>
        bridgeInput = INPUT_1B;        
 800080c:	2801      	cmp	r0, #1
 800080e:	bf14      	ite	ne
 8000810:	2003      	movne	r0, #3
 8000812:	2002      	moveq	r0, #2
 8000814:	4770      	bx	lr
      if  (motorId == 0)
 8000816:	b330      	cbz	r0, 8000866 <L6206_GetBridgeInputUsedByMotorId+0x86>
      else if (motorId == 1)
 8000818:	2801      	cmp	r0, #1
 800081a:	d024      	beq.n	8000866 <L6206_GetBridgeInputUsedByMotorId+0x86>
         if (devicePrm.direction[2] == FORWARD)
 800081c:	7f9b      	ldrb	r3, [r3, #30]
 800081e:	e7f1      	b.n	8000804 <L6206_GetBridgeInputUsedByMotorId+0x24>
      if  (motorId == 0)
 8000820:	b308      	cbz	r0, 8000866 <L6206_GetBridgeInputUsedByMotorId+0x86>
      else if (motorId == 1)
 8000822:	2801      	cmp	r0, #1
 8000824:	d01f      	beq.n	8000866 <L6206_GetBridgeInputUsedByMotorId+0x86>
           bridgeInput = INPUT_2B;
 8000826:	2802      	cmp	r0, #2
 8000828:	bf18      	it	ne
 800082a:	2003      	movne	r0, #3
 800082c:	4770      	bx	lr
      if  (motorId == 0)
 800082e:	2800      	cmp	r0, #0
 8000830:	d1e7      	bne.n	8000802 <L6206_GetBridgeInputUsedByMotorId+0x22>
 8000832:	4770      	bx	lr
      if  (motorId == 0)
 8000834:	2800      	cmp	r0, #0
 8000836:	d1e9      	bne.n	800080c <L6206_GetBridgeInputUsedByMotorId+0x2c>
 8000838:	4770      	bx	lr
      if  (motorId == 0)
 800083a:	2800      	cmp	r0, #0
 800083c:	d0dd      	beq.n	80007fa <L6206_GetBridgeInputUsedByMotorId+0x1a>
        bridgeInput = INPUT_1B;        
 800083e:	2002      	movs	r0, #2
 8000840:	4770      	bx	lr
      if  (motorId == 0)
 8000842:	b180      	cbz	r0, 8000866 <L6206_GetBridgeInputUsedByMotorId+0x86>
        bridgeInput = INPUT_1B;        
 8000844:	2801      	cmp	r0, #1
 8000846:	bf18      	it	ne
 8000848:	2002      	movne	r0, #2
 800084a:	4770      	bx	lr
 800084c:	2800      	cmp	r0, #0
 800084e:	e7fa      	b.n	8000846 <L6206_GetBridgeInputUsedByMotorId+0x66>
      if (devicePrm.direction[0] == FORWARD)
 8000850:	7f1b      	ldrb	r3, [r3, #28]
        bridgeInput = INPUT_1A;
 8000852:	2b01      	cmp	r3, #1
 8000854:	bf14      	ite	ne
 8000856:	2002      	movne	r0, #2
 8000858:	2000      	moveq	r0, #0
 800085a:	4770      	bx	lr
           bridgeInput = INPUT_1B;
 800085c:	3000      	adds	r0, #0
 800085e:	bf18      	it	ne
 8000860:	2001      	movne	r0, #1
 8000862:	4770      	bx	lr
        bridgeInput = INPUT_2A;
      }  
      break;      
    case PARALLELING_ALL_WITH_IN1A___1_UNDIR_MOTOR:
    default:
      bridgeInput = INPUT_1A;
 8000864:	2000      	movs	r0, #0
      break;       
  }  
  return (bridgeInput);
}
 8000866:	4770      	bx	lr
 8000868:	20004334 	.word	0x20004334

0800086c <L6206_GetSecondBridgeInputUsedByMotorId>:
 * @brief  Get the second PWM input used by a given bidirectionnal motor
 * @param motorId from 0 to MAX_NUMBER_OF_BRUSH_DC_MOTORS 
 * @retval PWM input 0 for 1A, 1 for 2A, 2 for 1B, 3 for 3B
 **********************************************************/
uint8_t L6206_GetSecondBridgeInputUsedByMotorId(uint8_t motorId)
{
 800086c:	b508      	push	{r3, lr}
  uint8_t bridgeInput = 0xFF;
  
  switch (devicePrm.config)
 800086e:	4b17      	ldr	r3, [pc, #92]	; (80008cc <L6206_GetSecondBridgeInputUsedByMotorId+0x60>)
 8000870:	781a      	ldrb	r2, [r3, #0]
 8000872:	2a0b      	cmp	r2, #11
 8000874:	d81d      	bhi.n	80008b2 <L6206_GetSecondBridgeInputUsedByMotorId+0x46>
 8000876:	e8df f002 	tbb	[pc, r2]
 800087a:	1a06      	.short	0x1a06
 800087c:	1c111c0c 	.word	0x1c111c0c
 8000880:	221c1c1a 	.word	0x221c1c1a
 8000884:	071c      	.short	0x071c
  {
    case PARALLELING_NONE___1_BIDIR_MOTOR_BRIDGE_A__1_BIDIR_MOTOR_BRIDGE_B:
      if  (motorId == 0)
 8000886:	b958      	cbnz	r0, 80008a0 <L6206_GetSecondBridgeInputUsedByMotorId+0x34>
         bridgeInput = INPUT_1A;
       }
      break;       
    
    case PARALLELING_IN1A_IN1B__IN2A_IN2B__1_BIDIR_MOTOR:
      if (devicePrm.direction[0] == FORWARD)
 8000888:	7f18      	ldrb	r0, [r3, #28]
         bridgeInput = INPUT_1B;
 800088a:	1e43      	subs	r3, r0, #1
 800088c:	4258      	negs	r0, r3
 800088e:	4158      	adcs	r0, r3
 8000890:	bd08      	pop	{r3, pc}
      if (motorId == 2)
 8000892:	2802      	cmp	r0, #2
 8000894:	d10d      	bne.n	80008b2 <L6206_GetSecondBridgeInputUsedByMotorId+0x46>
         if (devicePrm.direction[2] == FORWARD)
 8000896:	7f9b      	ldrb	r3, [r3, #30]
           bridgeInput = INPUT_2B;
 8000898:	2b01      	cmp	r3, #1
 800089a:	e005      	b.n	80008a8 <L6206_GetSecondBridgeInputUsedByMotorId+0x3c>
      if  (motorId == 1)
 800089c:	2801      	cmp	r0, #1
 800089e:	d108      	bne.n	80008b2 <L6206_GetSecondBridgeInputUsedByMotorId+0x46>
         if (devicePrm.direction[1] == FORWARD)
 80008a0:	7f5b      	ldrb	r3, [r3, #29]
           bridgeInput = INPUT_2B;
 80008a2:	2b01      	cmp	r3, #1
 80008a4:	bf18      	it	ne
 80008a6:	2002      	movne	r0, #2
 80008a8:	bf08      	it	eq
 80008aa:	2003      	moveq	r0, #3
 80008ac:	bd08      	pop	{r3, pc}
      if  (motorId == 0)
 80008ae:	2800      	cmp	r0, #0
 80008b0:	d0ea      	beq.n	8000888 <L6206_GetSecondBridgeInputUsedByMotorId+0x1c>
      bridgeInput = 0XFF;
      break;       
  }  
  if (bridgeInput == 0XFF)
  {
    L6206_ErrorHandler(L6206_ERROR_2);
 80008b2:	f248 0002 	movw	r0, #32770	; 0x8002
 80008b6:	f7ff fe3d 	bl	8000534 <L6206_ErrorHandler>
 80008ba:	20ff      	movs	r0, #255	; 0xff
  }
  
  return (bridgeInput);
}        
 80008bc:	bd08      	pop	{r3, pc}
      if (devicePrm.direction[0] == FORWARD)
 80008be:	7f1b      	ldrb	r3, [r3, #28]
         bridgeInput = INPUT_1A;
 80008c0:	2b01      	cmp	r3, #1
 80008c2:	bf0c      	ite	eq
 80008c4:	2002      	moveq	r0, #2
 80008c6:	2000      	movne	r0, #0
 80008c8:	bd08      	pop	{r3, pc}
 80008ca:	bf00      	nop
 80008cc:	20004334 	.word	0x20004334

080008d0 <L6206_IsBidirectionnalMotor>:
 * @retval True if motor is bidirectionnal, else false
 **********************************************************/
bool L6206_IsBidirectionnalMotor(uint8_t motorId)
{
  bool isBiDir = FALSE;
  switch (devicePrm.config)
 80008d0:	4b0d      	ldr	r3, [pc, #52]	; (8000908 <L6206_IsBidirectionnalMotor+0x38>)
 80008d2:	781b      	ldrb	r3, [r3, #0]
 80008d4:	2b0b      	cmp	r3, #11
 80008d6:	d814      	bhi.n	8000902 <L6206_IsBidirectionnalMotor+0x32>
 80008d8:	e8df f003 	tbb	[pc, r3]
 80008dc:	130c0806 	.word	0x130c0806
 80008e0:	13081311 	.word	0x13081311
 80008e4:	06130613 	.word	0x06130613
  {
      case PARALLELING_NONE___1_BIDIR_MOTOR_BRIDGE_A__1_BIDIR_MOTOR_BRIDGE_B:
      case PARALLELING_IN1A_IN2A__IN1B_IN2B__1_BIDIR_MOTOR:
      case PARALLELING_IN1A_IN1B__IN2A_IN2B__1_BIDIR_MOTOR:
        isBiDir = TRUE;
 80008e8:	2001      	movs	r0, #1
 80008ea:	4770      	bx	lr
 80008ec:	fab0 f080 	clz	r0, r0
 80008f0:	0940      	lsrs	r0, r0, #5
 80008f2:	4770      	bx	lr
 80008f4:	2802      	cmp	r0, #2
 80008f6:	bf14      	ite	ne
 80008f8:	2000      	movne	r0, #0
 80008fa:	2001      	moveq	r0, #1
 80008fc:	4770      	bx	lr
 80008fe:	2801      	cmp	r0, #1
 8000900:	e7f9      	b.n	80008f6 <L6206_IsBidirectionnalMotor+0x26>
  bool isBiDir = FALSE;
 8000902:	2000      	movs	r0, #0
    default:
      break;       
  }    
  
  return (isBiDir);
}
 8000904:	4770      	bx	lr
 8000906:	bf00      	nop
 8000908:	20004334 	.word	0x20004334

0800090c <L6206_HardStop>:
{	
 800090c:	b570      	push	{r4, r5, r6, lr}
  if (motorId > l6206ArrayNbMaxMotorsByConfig[devicePrm.config])
 800090e:	4c13      	ldr	r4, [pc, #76]	; (800095c <L6206_HardStop+0x50>)
 8000910:	4a13      	ldr	r2, [pc, #76]	; (8000960 <L6206_HardStop+0x54>)
 8000912:	7823      	ldrb	r3, [r4, #0]
 8000914:	5cd3      	ldrb	r3, [r2, r3]
 8000916:	4283      	cmp	r3, r0
{	
 8000918:	4605      	mov	r5, r0
  if (motorId > l6206ArrayNbMaxMotorsByConfig[devicePrm.config])
 800091a:	d205      	bcs.n	8000928 <L6206_HardStop+0x1c>
    L6206_ErrorHandler(L6206_ERROR_1);
 800091c:	f248 0001 	movw	r0, #32769	; 0x8001
}
 8000920:	e8bd 4070 	ldmia.w	sp!, {r4, r5, r6, lr}
    L6206_ErrorHandler(L6206_ERROR_1);
 8000924:	f7ff be06 	b.w	8000534 <L6206_ErrorHandler>
  else if (devicePrm.motionState[motorId] != INACTIVE)
 8000928:	1823      	adds	r3, r4, r0
 800092a:	f893 3020 	ldrb.w	r3, [r3, #32]
 800092e:	2b08      	cmp	r3, #8
 8000930:	d012      	beq.n	8000958 <L6206_HardStop+0x4c>
    bridgeInputFirstPWM = L6206_GetBridgeInputUsedByMotorId(motorId);
 8000932:	f7ff ff55 	bl	80007e0 <L6206_GetBridgeInputUsedByMotorId>
 8000936:	4606      	mov	r6, r0
    if (L6206_IsBidirectionnalMotor(motorId))
 8000938:	4628      	mov	r0, r5
 800093a:	f7ff ffc9 	bl	80008d0 <L6206_IsBidirectionnalMotor>
 800093e:	b120      	cbz	r0, 800094a <L6206_HardStop+0x3e>
    	bridgeInputSecondPWM = L6206_GetSecondBridgeInputUsedByMotorId(motorId);
 8000940:	4628      	mov	r0, r5
 8000942:	f7ff ff93 	bl	800086c <L6206_GetSecondBridgeInputUsedByMotorId>
    	L6206_Board_PwmStop(bridgeInputSecondPWM);
 8000946:	f000 fb07 	bl	8000f58 <L6206_Board_PwmStop>
    L6206_Board_PwmStop(bridgeInputFirstPWM);
 800094a:	4630      	mov	r0, r6
    devicePrm.motionState[motorId] = INACTIVE;
 800094c:	442c      	add	r4, r5
    L6206_Board_PwmStop(bridgeInputFirstPWM);
 800094e:	f000 fb03 	bl	8000f58 <L6206_Board_PwmStop>
    devicePrm.motionState[motorId] = INACTIVE;
 8000952:	2308      	movs	r3, #8
 8000954:	f884 3020 	strb.w	r3, [r4, #32]
 8000958:	bd70      	pop	{r4, r5, r6, pc}
 800095a:	bf00      	nop
 800095c:	20004334 	.word	0x20004334
 8000960:	08004264 	.word	0x08004264

08000964 <L6206_HardHiz>:
  if (motorId > l6206ArrayNbMaxMotorsByConfig[devicePrm.config])
 8000964:	491c      	ldr	r1, [pc, #112]	; (80009d8 <L6206_HardHiz+0x74>)
{
 8000966:	b538      	push	{r3, r4, r5, lr}
  if (motorId > l6206ArrayNbMaxMotorsByConfig[devicePrm.config])
 8000968:	780d      	ldrb	r5, [r1, #0]
 800096a:	4b1c      	ldr	r3, [pc, #112]	; (80009dc <L6206_HardHiz+0x78>)
 800096c:	5d5b      	ldrb	r3, [r3, r5]
 800096e:	4283      	cmp	r3, r0
{
 8000970:	4604      	mov	r4, r0
  if (motorId > l6206ArrayNbMaxMotorsByConfig[devicePrm.config])
 8000972:	d205      	bcs.n	8000980 <L6206_HardHiz+0x1c>
    L6206_ErrorHandler(L6206_ERROR_1);
 8000974:	f248 0001 	movw	r0, #32769	; 0x8001
}
 8000978:	e8bd 4038 	ldmia.w	sp!, {r3, r4, r5, lr}
    L6206_ErrorHandler(L6206_ERROR_1);
 800097c:	f7ff bdda 	b.w	8000534 <L6206_ErrorHandler>
    uint8_t bridgeId = L6206_GetBridgeIdUsedByMotorId(motorId);
 8000980:	f7ff feea 	bl	8000758 <L6206_GetBridgeIdUsedByMotorId>
    if (devicePrm.bridgeEnabled[bridgeId] != FALSE)
 8000984:	180b      	adds	r3, r1, r0
 8000986:	f893 3024 	ldrb.w	r3, [r3, #36]	; 0x24
 800098a:	b193      	cbz	r3, 80009b2 <L6206_HardHiz+0x4e>
      switch (devicePrm.config)
 800098c:	3d01      	subs	r5, #1
 800098e:	2d09      	cmp	r5, #9
 8000990:	d81f      	bhi.n	80009d2 <L6206_HardHiz+0x6e>
 8000992:	e8df f005 	tbb	[pc, r5]
 8000996:	1305      	.short	0x1305
 8000998:	1e051e17 	.word	0x1e051e17
 800099c:	151e1e13 	.word	0x151e1e13
          if ((motorId > 0) && (devicePrm.motionState[1] == STEADY) && (devicePrm.motionState[2] == STEADY))
 80009a0:	b1bc      	cbz	r4, 80009d2 <L6206_HardHiz+0x6e>
 80009a2:	6a0b      	ldr	r3, [r1, #32]
 80009a4:	4a0e      	ldr	r2, [pc, #56]	; (80009e0 <L6206_HardHiz+0x7c>)
 80009a6:	f023 437f 	bic.w	r3, r3, #4278190080	; 0xff000000
 80009aa:	f023 03ff 	bic.w	r3, r3, #255	; 0xff
 80009ae:	4293      	cmp	r3, r2
          if ((devicePrm.motionState[0] == STEADY) && (devicePrm.motionState[1] == STEADY))
 80009b0:	d10f      	bne.n	80009d2 <L6206_HardHiz+0x6e>
    L6206_HardStop(motorId);
 80009b2:	4620      	mov	r0, r4
}
 80009b4:	e8bd 4038 	ldmia.w	sp!, {r3, r4, r5, lr}
    L6206_HardStop(motorId);
 80009b8:	f7ff bfa8 	b.w	800090c <L6206_HardStop>
          if ((motorId < 2) && (devicePrm.motionState[0] == STEADY) && (devicePrm.motionState[1] == STEADY))
 80009bc:	2c01      	cmp	r4, #1
 80009be:	d808      	bhi.n	80009d2 <L6206_HardHiz+0x6e>
          if ((devicePrm.motionState[0] == STEADY) && (devicePrm.motionState[1] == STEADY))
 80009c0:	8c0a      	ldrh	r2, [r1, #32]
 80009c2:	e002      	b.n	80009ca <L6206_HardHiz+0x66>
          if (((motorId < 2) && (devicePrm.motionState[0] == STEADY) && (devicePrm.motionState[1] == STEADY))|| 
 80009c4:	2c01      	cmp	r4, #1
 80009c6:	d9fb      	bls.n	80009c0 <L6206_HardHiz+0x5c>
              ((motorId > 1) && (devicePrm.motionState[2] == STEADY) && (devicePrm.motionState[3] == STEADY)))
 80009c8:	8c4a      	ldrh	r2, [r1, #34]	; 0x22
          if ((devicePrm.motionState[0] == STEADY) && (devicePrm.motionState[1] == STEADY))
 80009ca:	f240 3303 	movw	r3, #771	; 0x303
 80009ce:	429a      	cmp	r2, r3
 80009d0:	e7ee      	b.n	80009b0 <L6206_HardHiz+0x4c>
        L6206_DisableBridge(bridgeId);
 80009d2:	f7ff fe7f 	bl	80006d4 <L6206_DisableBridge>
 80009d6:	e7ec      	b.n	80009b2 <L6206_HardHiz+0x4e>
 80009d8:	20004334 	.word	0x20004334
 80009dc:	08004264 	.word	0x08004264
 80009e0:	00030300 	.word	0x00030300

080009e4 <L6206_Run>:
{
 80009e4:	b5f8      	push	{r3, r4, r5, r6, r7, lr}
  if (motorId > l6206ArrayNbMaxMotorsByConfig[devicePrm.config])
 80009e6:	4c25      	ldr	r4, [pc, #148]	; (8000a7c <L6206_Run+0x98>)
 80009e8:	4a25      	ldr	r2, [pc, #148]	; (8000a80 <L6206_Run+0x9c>)
 80009ea:	7823      	ldrb	r3, [r4, #0]
 80009ec:	5cd3      	ldrb	r3, [r2, r3]
 80009ee:	4283      	cmp	r3, r0
{
 80009f0:	4605      	mov	r5, r0
 80009f2:	460e      	mov	r6, r1
  if (motorId > l6206ArrayNbMaxMotorsByConfig[devicePrm.config])
 80009f4:	d205      	bcs.n	8000a02 <L6206_Run+0x1e>
    L6206_ErrorHandler(L6206_ERROR_1);
 80009f6:	f248 0001 	movw	r0, #32769	; 0x8001
}
 80009fa:	e8bd 40f8 	ldmia.w	sp!, {r3, r4, r5, r6, r7, lr}
    L6206_ErrorHandler(L6206_ERROR_1);
 80009fe:	f7ff bd99 	b.w	8000534 <L6206_ErrorHandler>
  else if ((devicePrm.motionState[motorId] == INACTIVE) ||
 8000a02:	1823      	adds	r3, r4, r0
 8000a04:	f893 2020 	ldrb.w	r2, [r3, #32]
 8000a08:	2a08      	cmp	r2, #8
 8000a0a:	d004      	beq.n	8000a16 <L6206_Run+0x32>
 8000a0c:	7f1b      	ldrb	r3, [r3, #28]
 8000a0e:	428b      	cmp	r3, r1
 8000a10:	d033      	beq.n	8000a7a <L6206_Run+0x96>
      L6206_HardStop(motorId);
 8000a12:	f7ff ff7b 	bl	800090c <L6206_HardStop>
    devicePrm.direction[motorId] = direction;
 8000a16:	1963      	adds	r3, r4, r5
    devicePrm.motionState[motorId] = STEADY;
 8000a18:	2203      	movs	r2, #3
    bridgeId = L6206_GetBridgeIdUsedByMotorId(motorId);    
 8000a1a:	4628      	mov	r0, r5
    devicePrm.direction[motorId] = direction;
 8000a1c:	771e      	strb	r6, [r3, #28]
    devicePrm.motionState[motorId] = STEADY;
 8000a1e:	f883 2020 	strb.w	r2, [r3, #32]
    bridgeId = L6206_GetBridgeIdUsedByMotorId(motorId);    
 8000a22:	f7ff fe99 	bl	8000758 <L6206_GetBridgeIdUsedByMotorId>
 8000a26:	4607      	mov	r7, r0
    bridgeInput = L6206_GetBridgeInputUsedByMotorId(motorId);    
 8000a28:	4628      	mov	r0, r5
 8000a2a:	f7ff fed9 	bl	80007e0 <L6206_GetBridgeInputUsedByMotorId>
 8000a2e:	4606      	mov	r6, r0
    L6206_EnableBridge(bridgeId);
 8000a30:	4638      	mov	r0, r7
 8000a32:	f7ff fe6b 	bl	800070c <L6206_EnableBridge>
    if (L6206_IsBidirectionnalMotor(motorId))
 8000a36:	4628      	mov	r0, r5
 8000a38:	f7ff ff4a 	bl	80008d0 <L6206_IsBidirectionnalMotor>
 8000a3c:	f105 0308 	add.w	r3, r5, #8
 8000a40:	00b1      	lsls	r1, r6, #2
      L6206_Board_PwmSetFreq(bridgeInput, devicePrm.pwmFreq[bridgeInput],(100 - devicePrm.speed[motorId]));
 8000a42:	eb04 0343 	add.w	r3, r4, r3, lsl #1
    if (L6206_IsBidirectionnalMotor(motorId))
 8000a46:	b198      	cbz	r0, 8000a70 <L6206_Run+0x8c>
      L6206_Board_PwmSetFreq(bridgeInput, devicePrm.pwmFreq[bridgeInput],(100 - devicePrm.speed[motorId]));
 8000a48:	791a      	ldrb	r2, [r3, #4]
 8000a4a:	4421      	add	r1, r4
 8000a4c:	f1c2 0264 	rsb	r2, r2, #100	; 0x64
 8000a50:	b2d2      	uxtb	r2, r2
 8000a52:	6849      	ldr	r1, [r1, #4]
 8000a54:	4630      	mov	r0, r6
 8000a56:	f000 fa3b 	bl	8000ed0 <L6206_Board_PwmSetFreq>
      bridgeInput = L6206_GetSecondBridgeInputUsedByMotorId(motorId);
 8000a5a:	4628      	mov	r0, r5
 8000a5c:	f7ff ff06 	bl	800086c <L6206_GetSecondBridgeInputUsedByMotorId>
      L6206_Board_PwmSetFreq(bridgeInput, devicePrm.pwmFreq[bridgeInput],100);
 8000a60:	eb04 0480 	add.w	r4, r4, r0, lsl #2
 8000a64:	2264      	movs	r2, #100	; 0x64
 8000a66:	6861      	ldr	r1, [r4, #4]
}
 8000a68:	e8bd 40f8 	ldmia.w	sp!, {r3, r4, r5, r6, r7, lr}
      L6206_Board_PwmSetFreq(bridgeInput, devicePrm.pwmFreq[bridgeInput],devicePrm.speed[motorId]);
 8000a6c:	f000 ba30 	b.w	8000ed0 <L6206_Board_PwmSetFreq>
 8000a70:	440c      	add	r4, r1
 8000a72:	791a      	ldrb	r2, [r3, #4]
 8000a74:	6861      	ldr	r1, [r4, #4]
 8000a76:	4630      	mov	r0, r6
 8000a78:	e7f6      	b.n	8000a68 <L6206_Run+0x84>
 8000a7a:	bdf8      	pop	{r3, r4, r5, r6, r7, pc}
 8000a7c:	20004334 	.word	0x20004334
 8000a80:	08004264 	.word	0x08004264

08000a84 <L6206_SetMaxSpeed>:
{                                                  
 8000a84:	b5f8      	push	{r3, r4, r5, r6, r7, lr}
  if (motorId > l6206ArrayNbMaxMotorsByConfig[devicePrm.config])
 8000a86:	4c15      	ldr	r4, [pc, #84]	; (8000adc <L6206_SetMaxSpeed+0x58>)
 8000a88:	4a15      	ldr	r2, [pc, #84]	; (8000ae0 <L6206_SetMaxSpeed+0x5c>)
 8000a8a:	7823      	ldrb	r3, [r4, #0]
 8000a8c:	5cd3      	ldrb	r3, [r2, r3]
 8000a8e:	4283      	cmp	r3, r0
{                                                  
 8000a90:	4606      	mov	r6, r0
 8000a92:	460d      	mov	r5, r1
  if (motorId > l6206ArrayNbMaxMotorsByConfig[devicePrm.config])
 8000a94:	d205      	bcs.n	8000aa2 <L6206_SetMaxSpeed+0x1e>
    L6206_ErrorHandler(L6206_ERROR_1);
 8000a96:	f248 0001 	movw	r0, #32769	; 0x8001
 8000a9a:	f7ff fd4b 	bl	8000534 <L6206_ErrorHandler>
  bool cmdExecuted = FALSE;
 8000a9e:	2000      	movs	r0, #0
 8000aa0:	bdf8      	pop	{r3, r4, r5, r6, r7, pc}
    devicePrm.speed[motorId] = newMaxSpeed;
 8000aa2:	eb04 0340 	add.w	r3, r4, r0, lsl #1
 8000aa6:	8299      	strh	r1, [r3, #20]
    if (devicePrm.motionState[motorId] != INACTIVE)
 8000aa8:	1823      	adds	r3, r4, r0
 8000aaa:	f893 3020 	ldrb.w	r3, [r3, #32]
 8000aae:	2b08      	cmp	r3, #8
 8000ab0:	d00f      	beq.n	8000ad2 <L6206_SetMaxSpeed+0x4e>
      bridgeInput = L6206_GetBridgeInputUsedByMotorId(motorId);
 8000ab2:	f7ff fe95 	bl	80007e0 <L6206_GetBridgeInputUsedByMotorId>
 8000ab6:	4607      	mov	r7, r0
      if (L6206_IsBidirectionnalMotor(motorId))
 8000ab8:	4630      	mov	r0, r6
 8000aba:	f7ff ff09 	bl	80008d0 <L6206_IsBidirectionnalMotor>
 8000abe:	00bb      	lsls	r3, r7, #2
 8000ac0:	b148      	cbz	r0, 8000ad6 <L6206_SetMaxSpeed+0x52>
        L6206_Board_PwmSetFreq(bridgeInput, devicePrm.pwmFreq[bridgeInput],(100 - devicePrm.speed[motorId]));
 8000ac2:	f1c5 0264 	rsb	r2, r5, #100	; 0x64
 8000ac6:	441c      	add	r4, r3
 8000ac8:	b2d2      	uxtb	r2, r2
        L6206_Board_PwmSetFreq(bridgeInput, devicePrm.pwmFreq[bridgeInput],devicePrm.speed[motorId]);
 8000aca:	6861      	ldr	r1, [r4, #4]
 8000acc:	4638      	mov	r0, r7
 8000ace:	f000 f9ff 	bl	8000ed0 <L6206_Board_PwmSetFreq>
    cmdExecuted = TRUE;
 8000ad2:	2001      	movs	r0, #1
}                                                     
 8000ad4:	bdf8      	pop	{r3, r4, r5, r6, r7, pc}
        L6206_Board_PwmSetFreq(bridgeInput, devicePrm.pwmFreq[bridgeInput],devicePrm.speed[motorId]);
 8000ad6:	441c      	add	r4, r3
 8000ad8:	b2ea      	uxtb	r2, r5
 8000ada:	e7f6      	b.n	8000aca <L6206_SetMaxSpeed+0x46>
 8000adc:	20004334 	.word	0x20004334
 8000ae0:	08004264 	.word	0x08004264

08000ae4 <L6206_SetBridgeInputPwmFreq>:
{                                                  
 8000ae4:	e92d 47f0 	stmdb	sp!, {r4, r5, r6, r7, r8, r9, sl, lr}
 8000ae8:	4f1e      	ldr	r7, [pc, #120]	; (8000b64 <L6206_SetBridgeInputPwmFreq+0x80>)
    devicePrm.pwmFreq[bridgeInput] = newFreq;
 8000aea:	f8df 807c 	ldr.w	r8, [pc, #124]	; 8000b68 <L6206_SetBridgeInputPwmFreq+0x84>
 8000aee:	428f      	cmp	r7, r1
    uint8_t bridgeInput = (bridgeId << 1) + loop; 
 8000af0:	ea4f 0040 	mov.w	r0, r0, lsl #1
 8000af4:	bf28      	it	cs
 8000af6:	460f      	movcs	r7, r1
 8000af8:	fa5f f980 	uxtb.w	r9, r0
 8000afc:	2600      	movs	r6, #0
 8000afe:	eb09 0506 	add.w	r5, r9, r6
 8000b02:	b2ed      	uxtb	r5, r5
    devicePrm.pwmFreq[bridgeInput] = newFreq;
 8000b04:	eb08 0a85 	add.w	sl, r8, r5, lsl #2
    motorId = L6206_GetMotorIdUsingbridgeInput(bridgeInput);
 8000b08:	4628      	mov	r0, r5
    devicePrm.pwmFreq[bridgeInput] = newFreq;
 8000b0a:	f8ca 7004 	str.w	r7, [sl, #4]
    motorId = L6206_GetMotorIdUsingbridgeInput(bridgeInput);
 8000b0e:	f7ff fe3d 	bl	800078c <L6206_GetMotorIdUsingbridgeInput>
    if (devicePrm.motionState[motorId] != INACTIVE)
 8000b12:	eb08 0300 	add.w	r3, r8, r0
    motorId = L6206_GetMotorIdUsingbridgeInput(bridgeInput);
 8000b16:	4604      	mov	r4, r0
    if (devicePrm.motionState[motorId] != INACTIVE)
 8000b18:	f893 3020 	ldrb.w	r3, [r3, #32]
 8000b1c:	2b08      	cmp	r3, #8
 8000b1e:	d016      	beq.n	8000b4e <L6206_SetBridgeInputPwmFreq+0x6a>
      if (L6206_IsBidirectionnalMotor(motorId))
 8000b20:	f7ff fed6 	bl	80008d0 <L6206_IsBidirectionnalMotor>
 8000b24:	b1c0      	cbz	r0, 8000b58 <L6206_SetBridgeInputPwmFreq+0x74>
        if (bridgeInput !=  L6206_GetSecondBridgeInputUsedByMotorId(motorId))
 8000b26:	4620      	mov	r0, r4
 8000b28:	f7ff fea0 	bl	800086c <L6206_GetSecondBridgeInputUsedByMotorId>
 8000b2c:	42a8      	cmp	r0, r5
 8000b2e:	d009      	beq.n	8000b44 <L6206_SetBridgeInputPwmFreq+0x60>
        L6206_Board_PwmSetFreq(bridgeInput, devicePrm.pwmFreq[bridgeInput],(100 - devicePrm.speed[motorId]));
 8000b30:	eb08 0444 	add.w	r4, r8, r4, lsl #1
 8000b34:	f8da 1004 	ldr.w	r1, [sl, #4]
 8000b38:	7d22      	ldrb	r2, [r4, #20]
 8000b3a:	f1c2 0264 	rsb	r2, r2, #100	; 0x64
 8000b3e:	b2d2      	uxtb	r2, r2
        L6206_Board_PwmSetFreq(bridgeInput, devicePrm.pwmFreq[bridgeInput],devicePrm.speed[motorId]);
 8000b40:	4628      	mov	r0, r5
 8000b42:	e002      	b.n	8000b4a <L6206_SetBridgeInputPwmFreq+0x66>
          L6206_Board_PwmSetFreq(bridgeInput, devicePrm.pwmFreq[bridgeInput],100);
 8000b44:	f8da 1004 	ldr.w	r1, [sl, #4]
 8000b48:	2264      	movs	r2, #100	; 0x64
        L6206_Board_PwmSetFreq(bridgeInput, devicePrm.pwmFreq[bridgeInput],devicePrm.speed[motorId]);
 8000b4a:	f000 f9c1 	bl	8000ed0 <L6206_Board_PwmSetFreq>
 8000b4e:	3601      	adds	r6, #1
  for (loop = 0; loop < 2;loop ++)
 8000b50:	2e02      	cmp	r6, #2
 8000b52:	d1d4      	bne.n	8000afe <L6206_SetBridgeInputPwmFreq+0x1a>
}
 8000b54:	e8bd 87f0 	ldmia.w	sp!, {r4, r5, r6, r7, r8, r9, sl, pc}
        L6206_Board_PwmSetFreq(bridgeInput, devicePrm.pwmFreq[bridgeInput],devicePrm.speed[motorId]);
 8000b58:	eb08 0444 	add.w	r4, r8, r4, lsl #1
 8000b5c:	4639      	mov	r1, r7
 8000b5e:	7d22      	ldrb	r2, [r4, #20]
 8000b60:	e7ee      	b.n	8000b40 <L6206_SetBridgeInputPwmFreq+0x5c>
 8000b62:	bf00      	nop
 8000b64:	000186a0 	.word	0x000186a0
 8000b68:	20004334 	.word	0x20004334

08000b6c <L6206_SetDeviceParamsToPredefinedValues>:
 * @brief  Sets the parameters of the device to predefined values
 * from l6206_target_config.h
 * @retval None
 **********************************************************/
void L6206_SetDeviceParamsToPredefinedValues(void)
{
 8000b6c:	b570      	push	{r4, r5, r6, lr}
  uint32_t i;

  memset(&devicePrm, 0, sizeof(devicePrm));
 8000b6e:	4c0d      	ldr	r4, [pc, #52]	; (8000ba4 <L6206_SetDeviceParamsToPredefinedValues+0x38>)
 8000b70:	2228      	movs	r2, #40	; 0x28
 8000b72:	2100      	movs	r1, #0
 8000b74:	4620      	mov	r0, r4
 8000b76:	f003 fa9a 	bl	80040ae <memset>

  devicePrm.config = L6206_CONF_PARAM_PARALLE_BRIDGES;

  devicePrm.pwmFreq[INPUT_1A] = L6206_CONF_PARAM_FREQ_PWM1A;
 8000b7a:	f644 6320 	movw	r3, #20000	; 0x4e20
 8000b7e:	6063      	str	r3, [r4, #4]
  devicePrm.pwmFreq[INPUT_2A] = L6206_CONF_PARAM_FREQ_PWM2A;
 8000b80:	60a3      	str	r3, [r4, #8]
  devicePrm.pwmFreq[INPUT_1B] = L6206_CONF_PARAM_FREQ_PWM1B;
 8000b82:	60e3      	str	r3, [r4, #12]
  devicePrm.pwmFreq[INPUT_2B] = L6206_CONF_PARAM_FREQ_PWM2B;
 8000b84:	6123      	str	r3, [r4, #16]
 8000b86:	f104 021b 	add.w	r2, r4, #27
 8000b8a:	2300      	movs	r3, #0
  
  for (i = 0; i < MAX_NUMBER_OF_BRUSH_DC_MOTORS; i++)
  {
    devicePrm.speed[i] = 100;
 8000b8c:	2664      	movs	r6, #100	; 0x64
    devicePrm.direction[i] = FORWARD;
 8000b8e:	2001      	movs	r0, #1
    devicePrm.motionState[i] = INACTIVE;
 8000b90:	2108      	movs	r1, #8
    devicePrm.speed[i] = 100;
 8000b92:	18e5      	adds	r5, r4, r3
 8000b94:	3302      	adds	r3, #2
 8000b96:	82ae      	strh	r6, [r5, #20]
    devicePrm.direction[i] = FORWARD;
 8000b98:	f802 0f01 	strb.w	r0, [r2, #1]!
  for (i = 0; i < MAX_NUMBER_OF_BRUSH_DC_MOTORS; i++)
 8000b9c:	2b08      	cmp	r3, #8
    devicePrm.motionState[i] = INACTIVE;
 8000b9e:	7111      	strb	r1, [r2, #4]
  for (i = 0; i < MAX_NUMBER_OF_BRUSH_DC_MOTORS; i++)
 8000ba0:	d1f7      	bne.n	8000b92 <L6206_SetDeviceParamsToPredefinedValues+0x26>
  }
  for (i = 0; i < L6206_NB_MAX_BRIDGES; i++)
  {  
    devicePrm.bridgeEnabled[i] = FALSE;
  }
}
 8000ba2:	bd70      	pop	{r4, r5, r6, pc}
 8000ba4:	20004334 	.word	0x20004334

08000ba8 <L6206_SetDeviceParamsToGivenValues>:
 * @param initDevicePrm structure containing values to initialize the device
 * parameters
 * @retval None
 **********************************************************/
void L6206_SetDeviceParamsToGivenValues(L6206_InitTypeDef* initDevicePrm)
{
 8000ba8:	b530      	push	{r4, r5, lr}
	  memcpy(&devicePrm, initDevicePrm, sizeof(devicePrm));
 8000baa:	4c06      	ldr	r4, [pc, #24]	; (8000bc4 <L6206_SetDeviceParamsToGivenValues+0x1c>)
{
 8000bac:	4603      	mov	r3, r0
	  memcpy(&devicePrm, initDevicePrm, sizeof(devicePrm));
 8000bae:	f100 0528 	add.w	r5, r0, #40	; 0x28
 8000bb2:	6818      	ldr	r0, [r3, #0]
 8000bb4:	6859      	ldr	r1, [r3, #4]
 8000bb6:	4622      	mov	r2, r4
 8000bb8:	c203      	stmia	r2!, {r0, r1}
 8000bba:	3308      	adds	r3, #8
 8000bbc:	42ab      	cmp	r3, r5
 8000bbe:	4614      	mov	r4, r2
 8000bc0:	d1f7      	bne.n	8000bb2 <L6206_SetDeviceParamsToGivenValues+0xa>
}
 8000bc2:	bd30      	pop	{r4, r5, pc}
 8000bc4:	20004334 	.word	0x20004334

08000bc8 <L6206_Init>:
	l6206DriverInstance++;
 8000bc8:	4a0a      	ldr	r2, [pc, #40]	; (8000bf4 <L6206_Init+0x2c>)
 8000bca:	8813      	ldrh	r3, [r2, #0]
{
 8000bcc:	b510      	push	{r4, lr}
	l6206DriverInstance++;
 8000bce:	3301      	adds	r3, #1
{
 8000bd0:	4604      	mov	r4, r0
	l6206DriverInstance++;
 8000bd2:	8013      	strh	r3, [r2, #0]
	L6206_Board_GpioInit();
 8000bd4:	f000 f8bc 	bl	8000d50 <L6206_Board_GpioInit>
	if (init == NULL)
 8000bd8:	b93c      	cbnz	r4, 8000bea <L6206_Init+0x22>
		L6206_SetDeviceParamsToPredefinedValues();
 8000bda:	f7ff ffc7 	bl	8000b6c <L6206_SetDeviceParamsToPredefinedValues>
	L6206_SetDualFullBridgeConfig(devicePrm.config);
 8000bde:	4b06      	ldr	r3, [pc, #24]	; (8000bf8 <L6206_Init+0x30>)
}
 8000be0:	e8bd 4010 	ldmia.w	sp!, {r4, lr}
	L6206_SetDualFullBridgeConfig(devicePrm.config);
 8000be4:	7818      	ldrb	r0, [r3, #0]
 8000be6:	f7ff bd1b 	b.w	8000620 <L6206_SetDualFullBridgeConfig>
		L6206_SetDeviceParamsToGivenValues((L6206_InitTypeDef*) init);
 8000bea:	4620      	mov	r0, r4
 8000bec:	f7ff ffdc 	bl	8000ba8 <L6206_SetDeviceParamsToGivenValues>
 8000bf0:	e7f5      	b.n	8000bde <L6206_Init+0x16>
 8000bf2:	bf00      	nop
 8000bf4:	20000388 	.word	0x20000388
 8000bf8:	20004334 	.word	0x20004334

08000bfc <BSP_PB_Init>:
  *     @arg BUTTON_MODE_GPIO: Button will be used as simple IO 
  *     @arg BUTTON_MODE_EXTI: Button will be connected to EXTI line with interrupt
  *                            generation capability  
  */
void BSP_PB_Init(Button_TypeDef Button, ButtonMode_TypeDef ButtonMode)
{
 8000bfc:	b510      	push	{r4, lr}
 8000bfe:	b086      	sub	sp, #24
  GPIO_InitTypeDef GPIO_InitStruct;
  
  /* Enable the BUTTON Clock */
  BUTTONx_GPIO_CLK_ENABLE(Button);
 8000c00:	4b19      	ldr	r3, [pc, #100]	; (8000c68 <BSP_PB_Init+0x6c>)
 8000c02:	2400      	movs	r4, #0
 8000c04:	9400      	str	r4, [sp, #0]
 8000c06:	6b1a      	ldr	r2, [r3, #48]	; 0x30
 8000c08:	f042 0204 	orr.w	r2, r2, #4
 8000c0c:	631a      	str	r2, [r3, #48]	; 0x30
 8000c0e:	6b1b      	ldr	r3, [r3, #48]	; 0x30
 8000c10:	f003 0304 	and.w	r3, r3, #4
 8000c14:	9300      	str	r3, [sp, #0]
 8000c16:	9b00      	ldr	r3, [sp, #0]
  
  if(ButtonMode == BUTTON_MODE_GPIO)
 8000c18:	b971      	cbnz	r1, 8000c38 <BSP_PB_Init+0x3c>
  {
    /* Configure Button pin as input */
    GPIO_InitStruct.Pin = BUTTON_PIN[Button];
 8000c1a:	f44f 5300 	mov.w	r3, #8192	; 0x2000
 8000c1e:	9301      	str	r3, [sp, #4]
    GPIO_InitStruct.Mode = GPIO_MODE_INPUT;
    GPIO_InitStruct.Pull = GPIO_PULLDOWN;
 8000c20:	2302      	movs	r3, #2
 8000c22:	9303      	str	r3, [sp, #12]
    GPIO_InitStruct.Speed = GPIO_SPEED_FAST;
 8000c24:	9304      	str	r3, [sp, #16]
    HAL_GPIO_Init(BUTTON_PORT[Button], &GPIO_InitStruct);
 8000c26:	4b11      	ldr	r3, [pc, #68]	; (8000c6c <BSP_PB_Init+0x70>)
    GPIO_InitStruct.Mode = GPIO_MODE_INPUT;
 8000c28:	9102      	str	r1, [sp, #8]
    HAL_GPIO_Init(BUTTON_PORT[Button], &GPIO_InitStruct);
 8000c2a:	f853 0020 	ldr.w	r0, [r3, r0, lsl #2]
 8000c2e:	a901      	add	r1, sp, #4
 8000c30:	f000 fb4c 	bl	80012cc <HAL_GPIO_Init>
    
    /* Enable and set Button EXTI Interrupt to the lowest priority */
    HAL_NVIC_SetPriority((IRQn_Type)(BUTTON_IRQn[Button]), 0x0F, 0x00);
    HAL_NVIC_EnableIRQ((IRQn_Type)(BUTTON_IRQn[Button]));
  }
}
 8000c34:	b006      	add	sp, #24
 8000c36:	bd10      	pop	{r4, pc}
  if(ButtonMode == BUTTON_MODE_EXTI)
 8000c38:	2901      	cmp	r1, #1
 8000c3a:	d1fb      	bne.n	8000c34 <BSP_PB_Init+0x38>
    GPIO_InitStruct.Pin = BUTTON_PIN[Button];
 8000c3c:	f44f 5300 	mov.w	r3, #8192	; 0x2000
 8000c40:	9301      	str	r3, [sp, #4]
    GPIO_InitStruct.Mode = GPIO_MODE_IT_FALLING; 
 8000c42:	4b0b      	ldr	r3, [pc, #44]	; (8000c70 <BSP_PB_Init+0x74>)
 8000c44:	9302      	str	r3, [sp, #8]
    HAL_GPIO_Init(BUTTON_PORT[Button], &GPIO_InitStruct);
 8000c46:	4b09      	ldr	r3, [pc, #36]	; (8000c6c <BSP_PB_Init+0x70>)
    GPIO_InitStruct.Pull = GPIO_NOPULL;
 8000c48:	9403      	str	r4, [sp, #12]
    HAL_GPIO_Init(BUTTON_PORT[Button], &GPIO_InitStruct);
 8000c4a:	f853 0020 	ldr.w	r0, [r3, r0, lsl #2]
 8000c4e:	a901      	add	r1, sp, #4
 8000c50:	f000 fb3c 	bl	80012cc <HAL_GPIO_Init>
    HAL_NVIC_SetPriority((IRQn_Type)(BUTTON_IRQn[Button]), 0x0F, 0x00);
 8000c54:	4622      	mov	r2, r4
 8000c56:	210f      	movs	r1, #15
 8000c58:	2028      	movs	r0, #40	; 0x28
 8000c5a:	f000 fae5 	bl	8001228 <HAL_NVIC_SetPriority>
    HAL_NVIC_EnableIRQ((IRQn_Type)(BUTTON_IRQn[Button]));
 8000c5e:	2028      	movs	r0, #40	; 0x28
 8000c60:	f000 fb16 	bl	8001290 <HAL_NVIC_EnableIRQ>
}
 8000c64:	e7e6      	b.n	8000c34 <BSP_PB_Init+0x38>
 8000c66:	bf00      	nop
 8000c68:	40023800 	.word	0x40023800
 8000c6c:	20000164 	.word	0x20000164
 8000c70:	10210000 	.word	0x10210000

08000c74 <L6206_Board_DisableBridge>:
 * @brief Disable the power bridges (leave the output bridges HiZ)
 * @param[in]  bridgeId (from 0 for bridge A to 1 for bridge B)
 * @retval None
 **********************************************************/
void L6206_Board_DisableBridge(uint8_t bridgeId)
{
 8000c74:	b570      	push	{r4, r5, r6, lr}
    gpioPort = BSP_MOTOR_CONTROL_BOARD_EN_AND_FLAG_A_PORT;
  }
  else
  {
    gpioPin = BSP_MOTOR_CONTROL_BOARD_EN_AND_FLAG_B_PIN;
    gpioPort = BSP_MOTOR_CONTROL_BOARD_EN_AND_FLAG_B_PORT;    
 8000c76:	4b10      	ldr	r3, [pc, #64]	; (8000cb8 <L6206_Board_DisableBridge+0x44>)
 8000c78:	4c10      	ldr	r4, [pc, #64]	; (8000cbc <L6206_Board_DisableBridge+0x48>)
  if (bridgeId == 0)
 8000c7a:	2800      	cmp	r0, #0
{
 8000c7c:	b086      	sub	sp, #24
    gpioPort = BSP_MOTOR_CONTROL_BOARD_EN_AND_FLAG_B_PORT;    
 8000c7e:	bf14      	ite	ne
 8000c80:	461c      	movne	r4, r3
 8000c82:	f44f 6580 	moveq.w	r5, #1024	; 0x400
  }
  
  /* Configure the GPIO connected to EN pin as an output */
  GPIO_InitStruct.Pin = gpioPin;
  GPIO_InitStruct.Mode = GPIO_MODE_OUTPUT_PP;
 8000c86:	f04f 0301 	mov.w	r3, #1
    gpioPort = BSP_MOTOR_CONTROL_BOARD_EN_AND_FLAG_B_PORT;    
 8000c8a:	bf18      	it	ne
 8000c8c:	2502      	movne	r5, #2
  GPIO_InitStruct.Pull = GPIO_NOPULL;
 8000c8e:	2600      	movs	r6, #0
  GPIO_InitStruct.Speed = GPIO_SPEED_MEDIUM;
  HAL_GPIO_Init(gpioPort, &GPIO_InitStruct);
 8000c90:	a901      	add	r1, sp, #4
 8000c92:	4620      	mov	r0, r4
  GPIO_InitStruct.Pin = gpioPin;
 8000c94:	9501      	str	r5, [sp, #4]
  GPIO_InitStruct.Mode = GPIO_MODE_OUTPUT_PP;
 8000c96:	9302      	str	r3, [sp, #8]
  GPIO_InitStruct.Pull = GPIO_NOPULL;
 8000c98:	9603      	str	r6, [sp, #12]
  GPIO_InitStruct.Speed = GPIO_SPEED_MEDIUM;
 8000c9a:	9304      	str	r3, [sp, #16]
  HAL_GPIO_Init(gpioPort, &GPIO_InitStruct);
 8000c9c:	f000 fb16 	bl	80012cc <HAL_GPIO_Init>
  \details Disables IRQ interrupts by setting the I-bit in the CPSR.
           Can only be executed in Privileged modes.
 */
__STATIC_FORCEINLINE void __disable_irq(void)
{
  __ASM volatile ("cpsid i" : : : "memory");
 8000ca0:	b672      	cpsid	i
  
  __disable_irq();
  HAL_GPIO_WritePin(gpioPort, gpioPin, GPIO_PIN_RESET);  
 8000ca2:	4632      	mov	r2, r6
 8000ca4:	4629      	mov	r1, r5
 8000ca6:	4620      	mov	r0, r4
 8000ca8:	f000 fc62 	bl	8001570 <HAL_GPIO_WritePin>
  __HAL_GPIO_EXTI_CLEAR_IT(gpioPin);
 8000cac:	4b04      	ldr	r3, [pc, #16]	; (8000cc0 <L6206_Board_DisableBridge+0x4c>)
 8000cae:	615d      	str	r5, [r3, #20]
  __ASM volatile ("cpsie i" : : : "memory");
 8000cb0:	b662      	cpsie	i
  __enable_irq();
    
}
 8000cb2:	b006      	add	sp, #24
 8000cb4:	bd70      	pop	{r4, r5, r6, pc}
 8000cb6:	bf00      	nop
 8000cb8:	40020800 	.word	0x40020800
 8000cbc:	40020000 	.word	0x40020000
 8000cc0:	40013c00 	.word	0x40013c00

08000cc4 <L6206_Board_EnableBridge>:
 * @param[in]  bridgeId (from 0 for bridge A to 1 for bridge B)
 * @param[in]  addDelay if different from 0, a delay is added after bridge activation
 * @retval None
 **********************************************************/
void L6206_Board_EnableBridge(uint8_t bridgeId, uint8_t addDelay)
{
 8000cc4:	b5f0      	push	{r4, r5, r6, r7, lr}
  }
  else
  {
    gpioPin = BSP_MOTOR_CONTROL_BOARD_EN_AND_FLAG_B_PIN;
    gpioPort = BSP_MOTOR_CONTROL_BOARD_EN_AND_FLAG_B_PORT;    
    flagIrqn = EXTI_FLAG_B_IRQn;    
 8000cc6:	4b15      	ldr	r3, [pc, #84]	; (8000d1c <L6206_Board_EnableBridge+0x58>)
 8000cc8:	4c15      	ldr	r4, [pc, #84]	; (8000d20 <L6206_Board_EnableBridge+0x5c>)
 8000cca:	2800      	cmp	r0, #0
 8000ccc:	bf16      	itet	ne
 8000cce:	461c      	movne	r4, r3
 8000cd0:	f44f 6580 	moveq.w	r5, #1024	; 0x400
 8000cd4:	2502      	movne	r5, #2
{
 8000cd6:	460f      	mov	r7, r1
 8000cd8:	b087      	sub	sp, #28
  }
  
  HAL_GPIO_WritePin(gpioPort, gpioPin, GPIO_PIN_SET);
 8000cda:	f04f 0201 	mov.w	r2, #1
 8000cde:	4629      	mov	r1, r5
 8000ce0:	4620      	mov	r0, r4
    flagIrqn = EXTI_FLAG_B_IRQn;    
 8000ce2:	bf0c      	ite	eq
 8000ce4:	2628      	moveq	r6, #40	; 0x28
 8000ce6:	2607      	movne	r6, #7
  HAL_GPIO_WritePin(gpioPort, gpioPin, GPIO_PIN_SET);
 8000ce8:	f000 fc42 	bl	8001570 <HAL_GPIO_WritePin>
  if (addDelay != 0)
 8000cec:	b117      	cbz	r7, 8000cf4 <L6206_Board_EnableBridge+0x30>
  {
    HAL_Delay(BSP_MOTOR_CONTROL_BOARD_BRIDGE_TURN_ON_DELAY);
 8000cee:	2014      	movs	r0, #20
 8000cf0:	f000 fa74 	bl	80011dc <HAL_Delay>
  }
  /* Configure the GPIO connected to EN pin to take interrupt */
  GPIO_InitStruct.Pin = gpioPin;
  GPIO_InitStruct.Mode = GPIO_MODE_IT_FALLING;
 8000cf4:	4b0b      	ldr	r3, [pc, #44]	; (8000d24 <L6206_Board_EnableBridge+0x60>)
 8000cf6:	9302      	str	r3, [sp, #8]
  GPIO_InitStruct.Pull = GPIO_PULLUP;
  GPIO_InitStruct.Speed = GPIO_SPEED_MEDIUM;
  HAL_GPIO_Init(gpioPort, &GPIO_InitStruct);
 8000cf8:	a901      	add	r1, sp, #4
  GPIO_InitStruct.Pull = GPIO_PULLUP;
 8000cfa:	2301      	movs	r3, #1
  HAL_GPIO_Init(gpioPort, &GPIO_InitStruct);
 8000cfc:	4620      	mov	r0, r4
  GPIO_InitStruct.Pull = GPIO_PULLUP;
 8000cfe:	9303      	str	r3, [sp, #12]
  GPIO_InitStruct.Speed = GPIO_SPEED_MEDIUM;
 8000d00:	9304      	str	r3, [sp, #16]
  GPIO_InitStruct.Pin = gpioPin;
 8000d02:	9501      	str	r5, [sp, #4]
  HAL_GPIO_Init(gpioPort, &GPIO_InitStruct);
 8000d04:	f000 fae2 	bl	80012cc <HAL_GPIO_Init>
  
  __HAL_GPIO_EXTI_CLEAR_IT(gpioPin);
 8000d08:	4b07      	ldr	r3, [pc, #28]	; (8000d28 <L6206_Board_EnableBridge+0x64>)
  HAL_NVIC_ClearPendingIRQ(flagIrqn);
 8000d0a:	4630      	mov	r0, r6
  __HAL_GPIO_EXTI_CLEAR_IT(gpioPin);
 8000d0c:	615d      	str	r5, [r3, #20]
  HAL_NVIC_ClearPendingIRQ(flagIrqn);
 8000d0e:	f000 facd 	bl	80012ac <HAL_NVIC_ClearPendingIRQ>
  HAL_NVIC_EnableIRQ(flagIrqn);  
 8000d12:	4630      	mov	r0, r6
 8000d14:	f000 fabc 	bl	8001290 <HAL_NVIC_EnableIRQ>
}
 8000d18:	b007      	add	sp, #28
 8000d1a:	bdf0      	pop	{r4, r5, r6, r7, pc}
 8000d1c:	40020800 	.word	0x40020800
 8000d20:	40020000 	.word	0x40020000
 8000d24:	10210000 	.word	0x10210000
 8000d28:	40013c00 	.word	0x40013c00

08000d2c <L6206_Board_GetFlagPinState>:
 * @brief  Returns the FLAG pin state.
 * @param[in]  bridgeId (from 0 for bridge A to 1 for bridge B)
 * @retval The FLAG pin value.
 **********************************************************/
uint32_t L6206_Board_GetFlagPinState(uint8_t bridgeId)
{
 8000d2c:	b508      	push	{r3, lr}
  else
  {
    gpioPin = BSP_MOTOR_CONTROL_BOARD_EN_AND_FLAG_B_PIN;
    gpioPort = BSP_MOTOR_CONTROL_BOARD_EN_AND_FLAG_B_PORT;    
  }
  return HAL_GPIO_ReadPin(gpioPort, gpioPin);
 8000d2e:	4b06      	ldr	r3, [pc, #24]	; (8000d48 <L6206_Board_GetFlagPinState+0x1c>)
  if (bridgeId == 0)
 8000d30:	2800      	cmp	r0, #0
  return HAL_GPIO_ReadPin(gpioPort, gpioPin);
 8000d32:	bf0c      	ite	eq
 8000d34:	f44f 6180 	moveq.w	r1, #1024	; 0x400
 8000d38:	2102      	movne	r1, #2
 8000d3a:	4804      	ldr	r0, [pc, #16]	; (8000d4c <L6206_Board_GetFlagPinState+0x20>)
 8000d3c:	bf18      	it	ne
 8000d3e:	4618      	movne	r0, r3
 8000d40:	f000 fc10 	bl	8001564 <HAL_GPIO_ReadPin>
}
 8000d44:	bd08      	pop	{r3, pc}
 8000d46:	bf00      	nop
 8000d48:	40020800 	.word	0x40020800
 8000d4c:	40020000 	.word	0x40020000

08000d50 <L6206_Board_GpioInit>:
/******************************************************//**
 * @brief  Initiliases the GPIOs used by the L6206s
 * @retval None
  **********************************************************/
void L6206_Board_GpioInit(void)
{
 8000d50:	b5f0      	push	{r4, r5, r6, r7, lr}
 8000d52:	b089      	sub	sp, #36	; 0x24
   GPIO_InitTypeDef GPIO_InitStruct;
  
  /* GPIO Ports Clock Enable */
  __GPIOC_CLK_ENABLE();
 8000d54:	2400      	movs	r4, #0
 8000d56:	4b28      	ldr	r3, [pc, #160]	; (8000df8 <L6206_Board_GpioInit+0xa8>)
 8000d58:	9400      	str	r4, [sp, #0]
 8000d5a:	6b1a      	ldr	r2, [r3, #48]	; 0x30
  /* This pin is reconfigured later for OCD and OVT as GPIO_MODE_IT_FALLING with GPIO_PULLUP */
  GPIO_InitStruct.Pin = BSP_MOTOR_CONTROL_BOARD_EN_AND_FLAG_A_PIN;
  GPIO_InitStruct.Mode = GPIO_MODE_OUTPUT_PP;
  GPIO_InitStruct.Pull = GPIO_NOPULL;
  GPIO_InitStruct.Speed = GPIO_SPEED_MEDIUM;
  HAL_GPIO_Init(BSP_MOTOR_CONTROL_BOARD_EN_AND_FLAG_A_PORT, &GPIO_InitStruct);
 8000d5c:	4e27      	ldr	r6, [pc, #156]	; (8000dfc <L6206_Board_GpioInit+0xac>)
  __GPIOC_CLK_ENABLE();
 8000d5e:	f042 0204 	orr.w	r2, r2, #4
 8000d62:	631a      	str	r2, [r3, #48]	; 0x30
 8000d64:	6b1a      	ldr	r2, [r3, #48]	; 0x30
 8000d66:	f002 0204 	and.w	r2, r2, #4
 8000d6a:	9200      	str	r2, [sp, #0]
 8000d6c:	9a00      	ldr	r2, [sp, #0]
  __GPIOA_CLK_ENABLE();
 8000d6e:	9401      	str	r4, [sp, #4]
 8000d70:	6b1a      	ldr	r2, [r3, #48]	; 0x30
 8000d72:	f042 0201 	orr.w	r2, r2, #1
 8000d76:	631a      	str	r2, [r3, #48]	; 0x30
 8000d78:	6b1a      	ldr	r2, [r3, #48]	; 0x30
 8000d7a:	f002 0201 	and.w	r2, r2, #1
 8000d7e:	9201      	str	r2, [sp, #4]
 8000d80:	9a01      	ldr	r2, [sp, #4]
  __GPIOB_CLK_ENABLE();
 8000d82:	9402      	str	r4, [sp, #8]
 8000d84:	6b1a      	ldr	r2, [r3, #48]	; 0x30
 8000d86:	f042 0202 	orr.w	r2, r2, #2
 8000d8a:	631a      	str	r2, [r3, #48]	; 0x30
 8000d8c:	6b1b      	ldr	r3, [r3, #48]	; 0x30
  GPIO_InitStruct.Pull = GPIO_NOPULL;
 8000d8e:	9405      	str	r4, [sp, #20]
  __GPIOB_CLK_ENABLE();
 8000d90:	f003 0302 	and.w	r3, r3, #2
  GPIO_InitStruct.Mode = GPIO_MODE_OUTPUT_PP;
 8000d94:	2501      	movs	r5, #1
  __GPIOB_CLK_ENABLE();
 8000d96:	9302      	str	r3, [sp, #8]
  GPIO_InitStruct.Pin = BSP_MOTOR_CONTROL_BOARD_EN_AND_FLAG_A_PIN;
 8000d98:	f44f 6780 	mov.w	r7, #1024	; 0x400
  HAL_GPIO_Init(BSP_MOTOR_CONTROL_BOARD_EN_AND_FLAG_A_PORT, &GPIO_InitStruct);
 8000d9c:	a903      	add	r1, sp, #12
 8000d9e:	4630      	mov	r0, r6
  __GPIOB_CLK_ENABLE();
 8000da0:	9b02      	ldr	r3, [sp, #8]
  GPIO_InitStruct.Mode = GPIO_MODE_OUTPUT_PP;
 8000da2:	9504      	str	r5, [sp, #16]
  GPIO_InitStruct.Speed = GPIO_SPEED_MEDIUM;
 8000da4:	9506      	str	r5, [sp, #24]
  GPIO_InitStruct.Pin = BSP_MOTOR_CONTROL_BOARD_EN_AND_FLAG_A_PIN;
 8000da6:	9703      	str	r7, [sp, #12]
  HAL_GPIO_Init(BSP_MOTOR_CONTROL_BOARD_EN_AND_FLAG_A_PORT, &GPIO_InitStruct);
 8000da8:	f000 fa90 	bl	80012cc <HAL_GPIO_Init>
  HAL_GPIO_WritePin(BSP_MOTOR_CONTROL_BOARD_EN_AND_FLAG_A_PORT, BSP_MOTOR_CONTROL_BOARD_EN_AND_FLAG_A_PIN, GPIO_PIN_RESET);
 8000dac:	4622      	mov	r2, r4
 8000dae:	4639      	mov	r1, r7
 8000db0:	4630      	mov	r0, r6
 8000db2:	f000 fbdd 	bl	8001570 <HAL_GPIO_WritePin>
  
  /* Set Priority of External Line Interrupt used for the OCD OVT interrupt*/ 
  HAL_NVIC_SetPriority(EXTI_FLAG_A_IRQn, BSP_MOTOR_CONTROL_BOARD_EN_AND_FLAG_A_PRIORITY, 0);
 8000db6:	4622      	mov	r2, r4
 8000db8:	2104      	movs	r1, #4
 8000dba:	2028      	movs	r0, #40	; 0x28
 8000dbc:	f000 fa34 	bl	8001228 <HAL_NVIC_SetPriority>
    
  /* Enable the External Line Interrupt used for the OCD OVT interrupt*/
  HAL_NVIC_EnableIRQ(EXTI_FLAG_A_IRQn);    
 8000dc0:	2028      	movs	r0, #40	; 0x28
 8000dc2:	f000 fa65 	bl	8001290 <HAL_NVIC_EnableIRQ>
  
/* Configure L6206 Enable pin of Bridge B ------------------------------*/
  /* This pin is reconfigured later for OCD and OVT as GPIO_MODE_IT_FALLING with GPIO_PULLUP */
  GPIO_InitStruct.Pin = BSP_MOTOR_CONTROL_BOARD_EN_AND_FLAG_B_PIN;
  GPIO_InitStruct.Mode = GPIO_MODE_OUTPUT_PP;
 8000dc6:	9504      	str	r5, [sp, #16]
  GPIO_InitStruct.Pull = GPIO_NOPULL;
  GPIO_InitStruct.Speed = GPIO_SPEED_MEDIUM;
 8000dc8:	9506      	str	r5, [sp, #24]
  HAL_GPIO_Init(BSP_MOTOR_CONTROL_BOARD_EN_AND_FLAG_B_PORT, &GPIO_InitStruct);
 8000dca:	4d0d      	ldr	r5, [pc, #52]	; (8000e00 <L6206_Board_GpioInit+0xb0>)
  GPIO_InitStruct.Pull = GPIO_NOPULL;
 8000dcc:	9405      	str	r4, [sp, #20]
  GPIO_InitStruct.Pin = BSP_MOTOR_CONTROL_BOARD_EN_AND_FLAG_B_PIN;
 8000dce:	2602      	movs	r6, #2
  HAL_GPIO_Init(BSP_MOTOR_CONTROL_BOARD_EN_AND_FLAG_B_PORT, &GPIO_InitStruct);
 8000dd0:	a903      	add	r1, sp, #12
 8000dd2:	4628      	mov	r0, r5
  GPIO_InitStruct.Pin = BSP_MOTOR_CONTROL_BOARD_EN_AND_FLAG_B_PIN;
 8000dd4:	9603      	str	r6, [sp, #12]
  HAL_GPIO_Init(BSP_MOTOR_CONTROL_BOARD_EN_AND_FLAG_B_PORT, &GPIO_InitStruct);
 8000dd6:	f000 fa79 	bl	80012cc <HAL_GPIO_Init>
  HAL_GPIO_WritePin(BSP_MOTOR_CONTROL_BOARD_EN_AND_FLAG_B_PORT, BSP_MOTOR_CONTROL_BOARD_EN_AND_FLAG_B_PIN, GPIO_PIN_RESET);
 8000dda:	4622      	mov	r2, r4
 8000ddc:	4631      	mov	r1, r6
 8000dde:	4628      	mov	r0, r5
 8000de0:	f000 fbc6 	bl	8001570 <HAL_GPIO_WritePin>
  
  /* Set Priority of External Line Interrupt used for the OCD OVT interrupt*/ 
  HAL_NVIC_SetPriority(EXTI_FLAG_B_IRQn, BSP_MOTOR_CONTROL_BOARD_EN_AND_FLAG_B_PRIORITY, 0);
 8000de4:	4622      	mov	r2, r4
 8000de6:	2104      	movs	r1, #4
 8000de8:	2007      	movs	r0, #7
 8000dea:	f000 fa1d 	bl	8001228 <HAL_NVIC_SetPriority>
    
  /* Enable the External Line Interrupt used for the OCD OVT interrupt*/
  HAL_NVIC_EnableIRQ(EXTI_FLAG_B_IRQn);    
 8000dee:	2007      	movs	r0, #7
 8000df0:	f000 fa4e 	bl	8001290 <HAL_NVIC_EnableIRQ>

}
 8000df4:	b009      	add	sp, #36	; 0x24
 8000df6:	bdf0      	pop	{r4, r5, r6, r7, pc}
 8000df8:	40023800 	.word	0x40023800
 8000dfc:	40020000 	.word	0x40020000
 8000e00:	40020800 	.word	0x40020800

08000e04 <L6206_Board_PwmDeInit>:
  **********************************************************/
void L6206_Board_PwmDeInit(uint8_t bridgeInput)
{
  TIM_HandleTypeDef *pHTim;

  switch (bridgeInput)
 8000e04:	2802      	cmp	r0, #2
 8000e06:	d00e      	beq.n	8000e26 <L6206_Board_PwmDeInit+0x22>
 8000e08:	2803      	cmp	r0, #3
 8000e0a:	d010      	beq.n	8000e2e <L6206_Board_PwmDeInit+0x2a>
 8000e0c:	2801      	cmp	r0, #1
 8000e0e:	4b0a      	ldr	r3, [pc, #40]	; (8000e38 <L6206_Board_PwmDeInit+0x34>)
 8000e10:	d005      	beq.n	8000e1e <L6206_Board_PwmDeInit+0x1a>
  {
    case 0:
    default:
      pHTim = &hTimPwm1A;
      pHTim->Instance = BSP_MOTOR_CONTROL_BOARD_TIMER_PWM1A;
 8000e12:	480a      	ldr	r0, [pc, #40]	; (8000e3c <L6206_Board_PwmDeInit+0x38>)
      pHTim->Channel = BSP_MOTOR_CONTROL_BOARD_HAL_ACT_CHAN_TIMER_PWM2A;

      break;
    case 2:
      pHTim = &hTimPwm1B;
      pHTim->Instance = BSP_MOTOR_CONTROL_BOARD_TIMER_PWM1B;
 8000e14:	6003      	str	r3, [r0, #0]
      pHTim->Channel = BSP_MOTOR_CONTROL_BOARD_HAL_ACT_CHAN_TIMER_PWM1B;
 8000e16:	2301      	movs	r3, #1

      break;
    case 3:
      pHTim = &hTimPwm2B;
      pHTim->Instance = BSP_MOTOR_CONTROL_BOARD_TIMER_PWM2B;
      pHTim->Channel = BSP_MOTOR_CONTROL_BOARD_HAL_ACT_CHAN_TIMER_PWM2B;
 8000e18:	7703      	strb	r3, [r0, #28]

      break;      
  }
  HAL_TIM_PWM_DeInit(pHTim);
 8000e1a:	f000 bec8 	b.w	8001bae <HAL_TIM_PWM_DeInit>
      pHTim->Instance = BSP_MOTOR_CONTROL_BOARD_TIMER_PWM2A;
 8000e1e:	4808      	ldr	r0, [pc, #32]	; (8000e40 <L6206_Board_PwmDeInit+0x3c>)
      pHTim->Instance = BSP_MOTOR_CONTROL_BOARD_TIMER_PWM2B;
 8000e20:	6003      	str	r3, [r0, #0]
      pHTim->Channel = BSP_MOTOR_CONTROL_BOARD_HAL_ACT_CHAN_TIMER_PWM2B;
 8000e22:	2302      	movs	r3, #2
 8000e24:	e7f8      	b.n	8000e18 <L6206_Board_PwmDeInit+0x14>
      pHTim->Instance = BSP_MOTOR_CONTROL_BOARD_TIMER_PWM1B;
 8000e26:	4807      	ldr	r0, [pc, #28]	; (8000e44 <L6206_Board_PwmDeInit+0x40>)
 8000e28:	f04f 4380 	mov.w	r3, #1073741824	; 0x40000000
 8000e2c:	e7f2      	b.n	8000e14 <L6206_Board_PwmDeInit+0x10>
      pHTim->Instance = BSP_MOTOR_CONTROL_BOARD_TIMER_PWM2B;
 8000e2e:	4806      	ldr	r0, [pc, #24]	; (8000e48 <L6206_Board_PwmDeInit+0x44>)
 8000e30:	f04f 4380 	mov.w	r3, #1073741824	; 0x40000000
 8000e34:	e7f4      	b.n	8000e20 <L6206_Board_PwmDeInit+0x1c>
 8000e36:	bf00      	nop
 8000e38:	40000400 	.word	0x40000400
 8000e3c:	20004424 	.word	0x20004424
 8000e40:	20004364 	.word	0x20004364
 8000e44:	200043a4 	.word	0x200043a4
 8000e48:	200043e4 	.word	0x200043e4

08000e4c <L6206_Board_PwmInit>:
 * @param[in] bridgeInput 0 for input 1A, 1 for input 2A,
 * 2 for input 1B, 3 for input 2B
 * @retval None
  **********************************************************/
void L6206_Board_PwmInit(uint8_t bridgeInput)
{
 8000e4c:	b570      	push	{r4, r5, r6, lr}
  TIM_OC_InitTypeDef sConfigOC;
  TIM_MasterConfigTypeDef sMasterConfig;
  TIM_HandleTypeDef *pHTim;
  uint32_t  channel;

  switch (bridgeInput)
 8000e4e:	2802      	cmp	r0, #2
{
 8000e50:	b08a      	sub	sp, #40	; 0x28
  switch (bridgeInput)
 8000e52:	d02a      	beq.n	8000eaa <L6206_Board_PwmInit+0x5e>
 8000e54:	2803      	cmp	r0, #3
 8000e56:	d02c      	beq.n	8000eb2 <L6206_Board_PwmInit+0x66>
 8000e58:	2801      	cmp	r0, #1
 8000e5a:	4b18      	ldr	r3, [pc, #96]	; (8000ebc <L6206_Board_PwmInit+0x70>)
 8000e5c:	d01f      	beq.n	8000e9e <L6206_Board_PwmInit+0x52>
  {
    case 0:
    default:
      pHTim = &hTimPwm1A;
      pHTim->Instance = BSP_MOTOR_CONTROL_BOARD_TIMER_PWM1A;
 8000e5e:	4c18      	ldr	r4, [pc, #96]	; (8000ec0 <L6206_Board_PwmInit+0x74>)
      pHTim->Channel = BSP_MOTOR_CONTROL_BOARD_HAL_ACT_CHAN_TIMER_PWM2A;
      channel = BSP_MOTOR_CONTROL_BOARD_CHAN_TIMER_PWM2A;
      break;
    case 2:
      pHTim = &hTimPwm1B;
      pHTim->Instance = BSP_MOTOR_CONTROL_BOARD_TIMER_PWM1B;
 8000e60:	6023      	str	r3, [r4, #0]
      pHTim->Channel = BSP_MOTOR_CONTROL_BOARD_HAL_ACT_CHAN_TIMER_PWM1B;
 8000e62:	2301      	movs	r3, #1
 8000e64:	7723      	strb	r3, [r4, #28]
      channel = BSP_MOTOR_CONTROL_BOARD_CHAN_TIMER_PWM1B;
 8000e66:	2600      	movs	r6, #0
      pHTim->Channel = BSP_MOTOR_CONTROL_BOARD_HAL_ACT_CHAN_TIMER_PWM2B;
      channel = BSP_MOTOR_CONTROL_BOARD_CHAN_TIMER_PWM2B;
      break;      
  }
  pHTim->Init.Prescaler = TIMER_PRESCALER -1;
  pHTim->Init.CounterMode = TIM_COUNTERMODE_UP;
 8000e68:	2500      	movs	r5, #0
  pHTim->Init.Prescaler = TIMER_PRESCALER -1;
 8000e6a:	233f      	movs	r3, #63	; 0x3f
 8000e6c:	6063      	str	r3, [r4, #4]
  pHTim->Init.CounterMode = TIM_COUNTERMODE_UP;
 8000e6e:	60a5      	str	r5, [r4, #8]
  pHTim->Init.Period = 0;
 8000e70:	60e5      	str	r5, [r4, #12]
  pHTim->Init.ClockDivision = TIM_CLOCKDIVISION_DIV1;
 8000e72:	6125      	str	r5, [r4, #16]
  HAL_TIM_PWM_Init(pHTim);
 8000e74:	4620      	mov	r0, r4
 8000e76:	f000 ffc5 	bl	8001e04 <HAL_TIM_PWM_Init>
  
  sConfigOC.OCMode = TIM_OCMODE_PWM1;
 8000e7a:	2360      	movs	r3, #96	; 0x60
  sConfigOC.Pulse = 0;
  sConfigOC.OCPolarity = TIM_OCPOLARITY_HIGH;
  sConfigOC.OCFastMode = TIM_OCFAST_DISABLE;
  HAL_TIM_PWM_ConfigChannel(pHTim, &sConfigOC, channel);
 8000e7c:	4632      	mov	r2, r6
 8000e7e:	a903      	add	r1, sp, #12
 8000e80:	4620      	mov	r0, r4
  sConfigOC.OCMode = TIM_OCMODE_PWM1;
 8000e82:	9303      	str	r3, [sp, #12]
  sConfigOC.Pulse = 0;
 8000e84:	9504      	str	r5, [sp, #16]
  sConfigOC.OCPolarity = TIM_OCPOLARITY_HIGH;
 8000e86:	9505      	str	r5, [sp, #20]
  sConfigOC.OCFastMode = TIM_OCFAST_DISABLE;
 8000e88:	9507      	str	r5, [sp, #28]
  HAL_TIM_PWM_ConfigChannel(pHTim, &sConfigOC, channel);
 8000e8a:	f001 f801 	bl	8001e90 <HAL_TIM_PWM_ConfigChannel>
  
  sMasterConfig.MasterOutputTrigger = TIM_TRGO_RESET;
  sMasterConfig.MasterSlaveMode = TIM_MASTERSLAVEMODE_DISABLE;
  HAL_TIMEx_MasterConfigSynchronization(pHTim, &sMasterConfig);
 8000e8e:	a901      	add	r1, sp, #4
 8000e90:	4620      	mov	r0, r4
  sMasterConfig.MasterOutputTrigger = TIM_TRGO_RESET;
 8000e92:	9501      	str	r5, [sp, #4]
  sMasterConfig.MasterSlaveMode = TIM_MASTERSLAVEMODE_DISABLE;
 8000e94:	9502      	str	r5, [sp, #8]
  HAL_TIMEx_MasterConfigSynchronization(pHTim, &sMasterConfig);
 8000e96:	f001 f8b5 	bl	8002004 <HAL_TIMEx_MasterConfigSynchronization>
}
 8000e9a:	b00a      	add	sp, #40	; 0x28
 8000e9c:	bd70      	pop	{r4, r5, r6, pc}
      pHTim->Instance = BSP_MOTOR_CONTROL_BOARD_TIMER_PWM2A;
 8000e9e:	4c09      	ldr	r4, [pc, #36]	; (8000ec4 <L6206_Board_PwmInit+0x78>)
      pHTim->Instance = BSP_MOTOR_CONTROL_BOARD_TIMER_PWM2B;
 8000ea0:	6023      	str	r3, [r4, #0]
      pHTim->Channel = BSP_MOTOR_CONTROL_BOARD_HAL_ACT_CHAN_TIMER_PWM2B;
 8000ea2:	2302      	movs	r3, #2
 8000ea4:	7723      	strb	r3, [r4, #28]
      channel = BSP_MOTOR_CONTROL_BOARD_CHAN_TIMER_PWM2B;
 8000ea6:	2604      	movs	r6, #4
      break;      
 8000ea8:	e7de      	b.n	8000e68 <L6206_Board_PwmInit+0x1c>
      pHTim->Instance = BSP_MOTOR_CONTROL_BOARD_TIMER_PWM1B;
 8000eaa:	4c07      	ldr	r4, [pc, #28]	; (8000ec8 <L6206_Board_PwmInit+0x7c>)
 8000eac:	f04f 4380 	mov.w	r3, #1073741824	; 0x40000000
 8000eb0:	e7d6      	b.n	8000e60 <L6206_Board_PwmInit+0x14>
      pHTim->Instance = BSP_MOTOR_CONTROL_BOARD_TIMER_PWM2B;
 8000eb2:	4c06      	ldr	r4, [pc, #24]	; (8000ecc <L6206_Board_PwmInit+0x80>)
 8000eb4:	f04f 4380 	mov.w	r3, #1073741824	; 0x40000000
 8000eb8:	e7f2      	b.n	8000ea0 <L6206_Board_PwmInit+0x54>
 8000eba:	bf00      	nop
 8000ebc:	40000400 	.word	0x40000400
 8000ec0:	20004424 	.word	0x20004424
 8000ec4:	20004364 	.word	0x20004364
 8000ec8:	200043a4 	.word	0x200043a4
 8000ecc:	200043e4 	.word	0x200043e4

08000ed0 <L6206_Board_PwmSetFreq>:
 * @param[in] duty Duty cycle
 * @retval None
 * @note The frequency is directly the current speed of the device
 **********************************************************/
void L6206_Board_PwmSetFreq(uint8_t bridgeInput, uint32_t newFreq, uint8_t duty)
{
 8000ed0:	b570      	push	{r4, r5, r6, lr}
 8000ed2:	4605      	mov	r5, r0
 8000ed4:	460c      	mov	r4, r1
 8000ed6:	4616      	mov	r6, r2
  uint32_t sysFreq = HAL_RCC_GetSysClockFreq();
 8000ed8:	f000 fcde 	bl	8001898 <HAL_RCC_GetSysClockFreq>
  TIM_HandleTypeDef *pHTim;
  uint32_t period;
  uint32_t pulse;
  uint32_t channel;
  
  switch (bridgeInput)
 8000edc:	2d02      	cmp	r5, #2
 8000ede:	d023      	beq.n	8000f28 <L6206_Board_PwmSetFreq+0x58>
 8000ee0:	2d03      	cmp	r5, #3
 8000ee2:	d025      	beq.n	8000f30 <L6206_Board_PwmSetFreq+0x60>
 8000ee4:	2d01      	cmp	r5, #1
 8000ee6:	4a17      	ldr	r2, [pc, #92]	; (8000f44 <L6206_Board_PwmSetFreq+0x74>)
 8000ee8:	d01a      	beq.n	8000f20 <L6206_Board_PwmSetFreq+0x50>
  {
    case 0:
    default:
      pHTim = &hTimPwm1A;
      pHTim->Instance = BSP_MOTOR_CONTROL_BOARD_TIMER_PWM1A;
 8000eea:	4b17      	ldr	r3, [pc, #92]	; (8000f48 <L6206_Board_PwmSetFreq+0x78>)
      pHTim->Instance = BSP_MOTOR_CONTROL_BOARD_TIMER_PWM2A;
      channel = BSP_MOTOR_CONTROL_BOARD_CHAN_TIMER_PWM2A;
      break;
    case 2:
      pHTim = &hTimPwm1B;
      pHTim->Instance = BSP_MOTOR_CONTROL_BOARD_TIMER_PWM1B;
 8000eec:	601a      	str	r2, [r3, #0]
      channel = BSP_MOTOR_CONTROL_BOARD_CHAN_TIMER_PWM1B;
 8000eee:	2100      	movs	r1, #0
      pHTim->Instance = BSP_MOTOR_CONTROL_BOARD_TIMER_PWM2B;
      channel = BSP_MOTOR_CONTROL_BOARD_CHAN_TIMER_PWM2B;
      break;      
  }
  
   period = (uint32_t)( (uint32_t)sysFreq / (uint32_t)(TIMER_PRESCALER * newFreq)) - 1;
 8000ef0:	01a4      	lsls	r4, r4, #6
 8000ef2:	fbb0 f0f4 	udiv	r0, r0, r4


  __HAL_TIM_SetAutoreload(pHTim, period);
 8000ef6:	681c      	ldr	r4, [r3, #0]
   period = (uint32_t)( (uint32_t)sysFreq / (uint32_t)(TIMER_PRESCALER * newFreq)) - 1;
 8000ef8:	3801      	subs	r0, #1
  __HAL_TIM_SetAutoreload(pHTim, period);
 8000efa:	62e0      	str	r0, [r4, #44]	; 0x2c
 8000efc:	60d8      	str	r0, [r3, #12]
  
  if (duty == 0) 
 8000efe:	b146      	cbz	r6, 8000f12 <L6206_Board_PwmSetFreq+0x42>
    pulse = 0 ;
  }
  else 
  {
    if (duty > 100) duty = 100;  
    pulse = (uint32_t) ( ((uint32_t)period * (uint32_t)duty) / 100) + 1;
 8000f00:	2e64      	cmp	r6, #100	; 0x64
 8000f02:	4632      	mov	r2, r6
 8000f04:	bf28      	it	cs
 8000f06:	2264      	movcs	r2, #100	; 0x64
 8000f08:	4350      	muls	r0, r2
 8000f0a:	2264      	movs	r2, #100	; 0x64
 8000f0c:	fbb0 f0f2 	udiv	r0, r0, r2
 8000f10:	1c46      	adds	r6, r0, #1
  }    
  __HAL_TIM_SetCompare(pHTim, channel, pulse);
 8000f12:	b989      	cbnz	r1, 8000f38 <L6206_Board_PwmSetFreq+0x68>
 8000f14:	6366      	str	r6, [r4, #52]	; 0x34
  HAL_TIM_PWM_Start(pHTim, channel);
 8000f16:	4618      	mov	r0, r3

}
 8000f18:	e8bd 4070 	ldmia.w	sp!, {r4, r5, r6, lr}
  HAL_TIM_PWM_Start(pHTim, channel);
 8000f1c:	f001 b828 	b.w	8001f70 <HAL_TIM_PWM_Start>
      pHTim->Instance = BSP_MOTOR_CONTROL_BOARD_TIMER_PWM2A;
 8000f20:	4b0a      	ldr	r3, [pc, #40]	; (8000f4c <L6206_Board_PwmSetFreq+0x7c>)
      pHTim->Instance = BSP_MOTOR_CONTROL_BOARD_TIMER_PWM2B;
 8000f22:	601a      	str	r2, [r3, #0]
      channel = BSP_MOTOR_CONTROL_BOARD_CHAN_TIMER_PWM2B;
 8000f24:	2104      	movs	r1, #4
      break;      
 8000f26:	e7e3      	b.n	8000ef0 <L6206_Board_PwmSetFreq+0x20>
      pHTim->Instance = BSP_MOTOR_CONTROL_BOARD_TIMER_PWM1B;
 8000f28:	4b09      	ldr	r3, [pc, #36]	; (8000f50 <L6206_Board_PwmSetFreq+0x80>)
 8000f2a:	f04f 4280 	mov.w	r2, #1073741824	; 0x40000000
 8000f2e:	e7dd      	b.n	8000eec <L6206_Board_PwmSetFreq+0x1c>
      pHTim->Instance = BSP_MOTOR_CONTROL_BOARD_TIMER_PWM2B;
 8000f30:	4b08      	ldr	r3, [pc, #32]	; (8000f54 <L6206_Board_PwmSetFreq+0x84>)
 8000f32:	f04f 4280 	mov.w	r2, #1073741824	; 0x40000000
 8000f36:	e7f4      	b.n	8000f22 <L6206_Board_PwmSetFreq+0x52>
  __HAL_TIM_SetCompare(pHTim, channel, pulse);
 8000f38:	b109      	cbz	r1, 8000f3e <L6206_Board_PwmSetFreq+0x6e>
 8000f3a:	63a6      	str	r6, [r4, #56]	; 0x38
 8000f3c:	e7eb      	b.n	8000f16 <L6206_Board_PwmSetFreq+0x46>
 8000f3e:	6426      	str	r6, [r4, #64]	; 0x40
 8000f40:	e7e9      	b.n	8000f16 <L6206_Board_PwmSetFreq+0x46>
 8000f42:	bf00      	nop
 8000f44:	40000400 	.word	0x40000400
 8000f48:	20004424 	.word	0x20004424
 8000f4c:	20004364 	.word	0x20004364
 8000f50:	200043a4 	.word	0x200043a4
 8000f54:	200043e4 	.word	0x200043e4

08000f58 <L6206_Board_PwmStop>:
 * 2 for input 1B, 3 for input 2B
 * @retval None
 **********************************************************/
void L6206_Board_PwmStop(uint8_t bridgeInput)
{
  switch (bridgeInput)
 8000f58:	2803      	cmp	r0, #3
 8000f5a:	d810      	bhi.n	8000f7e <L6206_Board_PwmStop+0x26>
 8000f5c:	e8df f000 	tbb	[pc, r0]
 8000f60:	0c090602 	.word	0x0c090602
  {
    case 0:
       HAL_TIM_PWM_Stop(&hTimPwm1A,BSP_MOTOR_CONTROL_BOARD_CHAN_TIMER_PWM1A);
 8000f64:	4806      	ldr	r0, [pc, #24]	; (8000f80 <L6206_Board_PwmStop+0x28>)
 8000f66:	2100      	movs	r1, #0
      break;
    case  2:
      HAL_TIM_PWM_Stop(&hTimPwm1B,BSP_MOTOR_CONTROL_BOARD_CHAN_TIMER_PWM1B);
      break;
    case  3:
      HAL_TIM_PWM_Stop(&hTimPwm2B,BSP_MOTOR_CONTROL_BOARD_CHAN_TIMER_PWM2B);
 8000f68:	f001 b81e 	b.w	8001fa8 <HAL_TIM_PWM_Stop>
      HAL_TIM_PWM_Stop(&hTimPwm2A,BSP_MOTOR_CONTROL_BOARD_CHAN_TIMER_PWM2A);
 8000f6c:	2104      	movs	r1, #4
 8000f6e:	4805      	ldr	r0, [pc, #20]	; (8000f84 <L6206_Board_PwmStop+0x2c>)
 8000f70:	e7fa      	b.n	8000f68 <L6206_Board_PwmStop+0x10>
      HAL_TIM_PWM_Stop(&hTimPwm1B,BSP_MOTOR_CONTROL_BOARD_CHAN_TIMER_PWM1B);
 8000f72:	2100      	movs	r1, #0
 8000f74:	4804      	ldr	r0, [pc, #16]	; (8000f88 <L6206_Board_PwmStop+0x30>)
 8000f76:	e7f7      	b.n	8000f68 <L6206_Board_PwmStop+0x10>
      HAL_TIM_PWM_Stop(&hTimPwm2B,BSP_MOTOR_CONTROL_BOARD_CHAN_TIMER_PWM2B);
 8000f78:	2104      	movs	r1, #4
 8000f7a:	4804      	ldr	r0, [pc, #16]	; (8000f8c <L6206_Board_PwmStop+0x34>)
 8000f7c:	e7f4      	b.n	8000f68 <L6206_Board_PwmStop+0x10>
 8000f7e:	4770      	bx	lr
 8000f80:	20004424 	.word	0x20004424
 8000f84:	20004364 	.word	0x20004364
 8000f88:	200043a4 	.word	0x200043a4
 8000f8c:	200043e4 	.word	0x200043e4

08000f90 <L6474_GetMotorHandle>:
 8000f90:	2000      	movs	r0, #0
 8000f92:	4770      	bx	lr

08000f94 <l647x_GetMotorHandle>:
 8000f94:	2000      	movs	r0, #0
 8000f96:	4770      	bx	lr

08000f98 <l648x_GetMotorHandle>:
 8000f98:	2000      	movs	r0, #0
 8000f9a:	4770      	bx	lr

08000f9c <Powerstep01_GetMotorHandle>:
 8000f9c:	2000      	movs	r0, #0
 8000f9e:	4770      	bx	lr

08000fa0 <L6208_GetMotorHandle>:
 8000fa0:	2000      	movs	r0, #0
 8000fa2:	4770      	bx	lr

08000fa4 <Stspin220_GetMotorHandle>:
 8000fa4:	2000      	movs	r0, #0
 8000fa6:	4770      	bx	lr

08000fa8 <Stspin240_250_GetMotorHandle>:
/// Get motor handle for L6208
__weak motorDrv_t* L6208_GetMotorHandle(void){return ((motorDrv_t* )0);}
/// Get motor handle for STSPIN220
__weak motorDrv_t* Stspin220_GetMotorHandle(void){return ((motorDrv_t* )0);}
/// Get motor handle for STSPIN240
__weak motorDrv_t* Stspin240_250_GetMotorHandle(void){return ((motorDrv_t* )0);}
 8000fa8:	2000      	movs	r0, #0
 8000faa:	4770      	bx	lr

08000fac <BSP_MotorControl_ErrorHandler>:
 * @param[in] error number of the error
 * @retval None
 **********************************************************/
void BSP_MotorControl_ErrorHandler(uint16_t error)
{
  if ((motorDrvHandle != 0)&&(motorDrvHandle->ErrorHandler != 0))
 8000fac:	4b03      	ldr	r3, [pc, #12]	; (8000fbc <BSP_MotorControl_ErrorHandler+0x10>)
 8000fae:	681b      	ldr	r3, [r3, #0]
 8000fb0:	b11b      	cbz	r3, 8000fba <BSP_MotorControl_ErrorHandler+0xe>
 8000fb2:	f8d3 30f0 	ldr.w	r3, [r3, #240]	; 0xf0
 8000fb6:	b103      	cbz	r3, 8000fba <BSP_MotorControl_ErrorHandler+0xe>
  {
    motorDrvHandle->ErrorHandler(error);
 8000fb8:	4718      	bx	r3
 8000fba:	e7fe      	b.n	8000fba <BSP_MotorControl_ErrorHandler+0xe>
 8000fbc:	2000038c 	.word	0x2000038c

08000fc0 <BSP_MotorControl_AttachErrorHandler>:
  if ((motorDrvHandle != 0)&&(motorDrvHandle->AttachErrorHandler != 0))
 8000fc0:	4b04      	ldr	r3, [pc, #16]	; (8000fd4 <BSP_MotorControl_AttachErrorHandler+0x14>)
 8000fc2:	681b      	ldr	r3, [r3, #0]
 8000fc4:	b113      	cbz	r3, 8000fcc <BSP_MotorControl_AttachErrorHandler+0xc>
 8000fc6:	689b      	ldr	r3, [r3, #8]
 8000fc8:	b103      	cbz	r3, 8000fcc <BSP_MotorControl_AttachErrorHandler+0xc>
    motorDrvHandle->AttachErrorHandler(callback);
 8000fca:	4718      	bx	r3
    MOTOR_CONTROL_ERROR_UNDEFINED_FUNCTION(2);
 8000fcc:	f640 0002 	movw	r0, #2050	; 0x802
 8000fd0:	f7ff bfec 	b.w	8000fac <BSP_MotorControl_ErrorHandler>
 8000fd4:	2000038c 	.word	0x2000038c

08000fd8 <BSP_MotorControl_AttachFlagInterrupt>:
  if ((motorDrvHandle != 0)&&(motorDrvHandle->AttachFlagInterrupt != 0))
 8000fd8:	4b04      	ldr	r3, [pc, #16]	; (8000fec <BSP_MotorControl_AttachFlagInterrupt+0x14>)
 8000fda:	681b      	ldr	r3, [r3, #0]
 8000fdc:	b113      	cbz	r3, 8000fe4 <BSP_MotorControl_AttachFlagInterrupt+0xc>
 8000fde:	68db      	ldr	r3, [r3, #12]
 8000fe0:	b103      	cbz	r3, 8000fe4 <BSP_MotorControl_AttachFlagInterrupt+0xc>
    motorDrvHandle->AttachFlagInterrupt(callback);
 8000fe2:	4718      	bx	r3
    MOTOR_CONTROL_ERROR_UNDEFINED_FUNCTION(3);
 8000fe4:	f640 0003 	movw	r0, #2051	; 0x803
 8000fe8:	f7ff bfe0 	b.w	8000fac <BSP_MotorControl_ErrorHandler>
 8000fec:	2000038c 	.word	0x2000038c

08000ff0 <BSP_MotorControl_Init>:
 * @param[in] initDeviceParameters Initialization structure for one device
 * @retval None
 **********************************************************/
void BSP_MotorControl_Init(uint16_t id, void* initDeviceParameters)
{
  if ((motorDrvHandle != 0)&&(motorDrvHandle->Init != 0))
 8000ff0:	4b05      	ldr	r3, [pc, #20]	; (8001008 <BSP_MotorControl_Init+0x18>)
 8000ff2:	681b      	ldr	r3, [r3, #0]
 8000ff4:	b11b      	cbz	r3, 8000ffe <BSP_MotorControl_Init+0xe>
 8000ff6:	681b      	ldr	r3, [r3, #0]
 8000ff8:	b10b      	cbz	r3, 8000ffe <BSP_MotorControl_Init+0xe>
  {
    motorDrvHandle->Init(initDeviceParameters);
 8000ffa:	4608      	mov	r0, r1
 8000ffc:	4718      	bx	r3
  }  
  else
  {
    MOTOR_CONTROL_ERROR_UNDEFINED_FUNCTION(0);
 8000ffe:	f44f 6000 	mov.w	r0, #2048	; 0x800
 8001002:	f7ff bfd3 	b.w	8000fac <BSP_MotorControl_ErrorHandler>
 8001006:	bf00      	nop
 8001008:	2000038c 	.word	0x2000038c

0800100c <BSP_MotorControl_FlagInterruptHandler>:
 * @brief  Handlers of the flag interrupt which calls the user callback (if defined)
 * @retval None
 **********************************************************/
void BSP_MotorControl_FlagInterruptHandler(void)
{
  if ((motorDrvHandle != 0)&&(motorDrvHandle->FlagInterruptHandler != 0))
 800100c:	4b04      	ldr	r3, [pc, #16]	; (8001020 <BSP_MotorControl_FlagInterruptHandler+0x14>)
 800100e:	681b      	ldr	r3, [r3, #0]
 8001010:	b113      	cbz	r3, 8001018 <BSP_MotorControl_FlagInterruptHandler+0xc>
 8001012:	695b      	ldr	r3, [r3, #20]
 8001014:	b103      	cbz	r3, 8001018 <BSP_MotorControl_FlagInterruptHandler+0xc>
  {
    motorDrvHandle->FlagInterruptHandler();
 8001016:	4718      	bx	r3
  }    
  else
  {
    MOTOR_CONTROL_ERROR_UNDEFINED_FUNCTION(5);
 8001018:	f640 0005 	movw	r0, #2053	; 0x805
 800101c:	f7ff bfc6 	b.w	8000fac <BSP_MotorControl_ErrorHandler>
 8001020:	2000038c 	.word	0x2000038c

08001024 <BSP_MotorControl_GetDeviceState>:
 **********************************************************/
motorState_t BSP_MotorControl_GetDeviceState(uint8_t deviceId)
{
  motorState_t state = INACTIVE;

  if ((motorDrvHandle != 0)&&(motorDrvHandle->GetDeviceState != 0))
 8001024:	4b07      	ldr	r3, [pc, #28]	; (8001044 <BSP_MotorControl_GetDeviceState+0x20>)
 8001026:	681b      	ldr	r3, [r3, #0]
{
 8001028:	b510      	push	{r4, lr}
  if ((motorDrvHandle != 0)&&(motorDrvHandle->GetDeviceState != 0))
 800102a:	b123      	cbz	r3, 8001036 <BSP_MotorControl_GetDeviceState+0x12>
 800102c:	6a5b      	ldr	r3, [r3, #36]	; 0x24
 800102e:	b113      	cbz	r3, 8001036 <BSP_MotorControl_GetDeviceState+0x12>
  else
  {
    MOTOR_CONTROL_ERROR_UNDEFINED_FUNCTION(9);
  }  
  return(state);   
}
 8001030:	e8bd 4010 	ldmia.w	sp!, {r4, lr}
    state = motorDrvHandle->GetDeviceState(deviceId);
 8001034:	4718      	bx	r3
    MOTOR_CONTROL_ERROR_UNDEFINED_FUNCTION(9);
 8001036:	f640 0009 	movw	r0, #2057	; 0x809
 800103a:	f7ff ffb7 	bl	8000fac <BSP_MotorControl_ErrorHandler>
}
 800103e:	2008      	movs	r0, #8
 8001040:	bd10      	pop	{r4, pc}
 8001042:	bf00      	nop
 8001044:	2000038c 	.word	0x2000038c

08001048 <BSP_MotorControl_Run>:
 * @note For unidirectionnal brush DC motor, direction parameter 
 * has no effect
 **********************************************************/
void BSP_MotorControl_Run(uint8_t deviceId, motorDir_t direction)
{
  if ((motorDrvHandle != 0)&&(motorDrvHandle->Run != 0))
 8001048:	4b04      	ldr	r3, [pc, #16]	; (800105c <BSP_MotorControl_Run+0x14>)
 800104a:	681b      	ldr	r3, [r3, #0]
 800104c:	b113      	cbz	r3, 8001054 <BSP_MotorControl_Run+0xc>
 800104e:	6d5b      	ldr	r3, [r3, #84]	; 0x54
 8001050:	b103      	cbz	r3, 8001054 <BSP_MotorControl_Run+0xc>
  {
    motorDrvHandle->Run(deviceId, direction); 
 8001052:	4718      	bx	r3
  }
  else
  {
    MOTOR_CONTROL_ERROR_UNDEFINED_FUNCTION(21);
 8001054:	f640 0015 	movw	r0, #2069	; 0x815
 8001058:	f7ff bfa8 	b.w	8000fac <BSP_MotorControl_ErrorHandler>
 800105c:	2000038c 	.word	0x2000038c

08001060 <BSP_MotorControl_SetMaxSpeed>:
 * is executing a MOVE or GOTO command (but it can be used during a RUN command).
 **********************************************************/
bool BSP_MotorControl_SetMaxSpeed(uint8_t deviceId, uint16_t newMaxSpeed)
{                                                  
  bool status = FALSE;
  if ((motorDrvHandle != 0)&&(motorDrvHandle->SetMaxSpeed != 0))
 8001060:	4b07      	ldr	r3, [pc, #28]	; (8001080 <BSP_MotorControl_SetMaxSpeed+0x20>)
 8001062:	681b      	ldr	r3, [r3, #0]
{                                                  
 8001064:	b510      	push	{r4, lr}
  if ((motorDrvHandle != 0)&&(motorDrvHandle->SetMaxSpeed != 0))
 8001066:	b123      	cbz	r3, 8001072 <BSP_MotorControl_SetMaxSpeed+0x12>
 8001068:	6e9b      	ldr	r3, [r3, #104]	; 0x68
 800106a:	b113      	cbz	r3, 8001072 <BSP_MotorControl_SetMaxSpeed+0x12>
  else
  {
    MOTOR_CONTROL_ERROR_UNDEFINED_FUNCTION(26);
  }     
  return (status);  
}                                                     
 800106c:	e8bd 4010 	ldmia.w	sp!, {r4, lr}
    status = motorDrvHandle->SetMaxSpeed(deviceId, newMaxSpeed);
 8001070:	4718      	bx	r3
    MOTOR_CONTROL_ERROR_UNDEFINED_FUNCTION(26);
 8001072:	f640 001a 	movw	r0, #2074	; 0x81a
 8001076:	f7ff ff99 	bl	8000fac <BSP_MotorControl_ErrorHandler>
}                                                     
 800107a:	2000      	movs	r0, #0
 800107c:	bd10      	pop	{r4, pc}
 800107e:	bf00      	nop
 8001080:	2000038c 	.word	0x2000038c

08001084 <BSP_MotorControl_CmdGetStatus>:
 * GetParam command (via the functions ReadStatusRegister or CmdGetParam).
 **********************************************************/
uint16_t BSP_MotorControl_CmdGetStatus(uint8_t deviceId)
{
  uint16_t status = 0;
  if ((motorDrvHandle != 0)&&(motorDrvHandle->CmdGetStatus != 0))
 8001084:	4b07      	ldr	r3, [pc, #28]	; (80010a4 <BSP_MotorControl_CmdGetStatus+0x20>)
 8001086:	681b      	ldr	r3, [r3, #0]
{
 8001088:	b510      	push	{r4, lr}
  if ((motorDrvHandle != 0)&&(motorDrvHandle->CmdGetStatus != 0))
 800108a:	b12b      	cbz	r3, 8001098 <BSP_MotorControl_CmdGetStatus+0x14>
 800108c:	f8d3 3088 	ldr.w	r3, [r3, #136]	; 0x88
 8001090:	b113      	cbz	r3, 8001098 <BSP_MotorControl_CmdGetStatus+0x14>
  else
  {
    MOTOR_CONTROL_ERROR_UNDEFINED_FUNCTION(34);
  }      
  return (status);
}
 8001092:	e8bd 4010 	ldmia.w	sp!, {r4, lr}
    status = motorDrvHandle->CmdGetStatus(deviceId);
 8001096:	4718      	bx	r3
    MOTOR_CONTROL_ERROR_UNDEFINED_FUNCTION(34);
 8001098:	f640 0022 	movw	r0, #2082	; 0x822
 800109c:	f7ff ff86 	bl	8000fac <BSP_MotorControl_ErrorHandler>
}
 80010a0:	2000      	movs	r0, #0
 80010a2:	bd10      	pop	{r4, pc}
 80010a4:	2000038c 	.word	0x2000038c

080010a8 <BSP_MotorControl_SetDualFullBridgeConfig>:
 * for Stspin250, 0 only as no dual brush DC configuration is supported
 * @retval None
 **********************************************************/
void BSP_MotorControl_SetDualFullBridgeConfig(uint8_t config)
{	
  if ((motorDrvHandle != 0)&&(motorDrvHandle->SetDualFullBridgeConfig != 0))
 80010a8:	4b05      	ldr	r3, [pc, #20]	; (80010c0 <BSP_MotorControl_SetDualFullBridgeConfig+0x18>)
 80010aa:	681b      	ldr	r3, [r3, #0]
 80010ac:	b11b      	cbz	r3, 80010b6 <BSP_MotorControl_SetDualFullBridgeConfig+0xe>
 80010ae:	f8d3 3104 	ldr.w	r3, [r3, #260]	; 0x104
 80010b2:	b103      	cbz	r3, 80010b6 <BSP_MotorControl_SetDualFullBridgeConfig+0xe>
  {
    motorDrvHandle->SetDualFullBridgeConfig(config);
 80010b4:	4718      	bx	r3
  }
  else
  {
    MOTOR_CONTROL_ERROR_UNDEFINED_FUNCTION(65);
 80010b6:	f640 0041 	movw	r0, #2113	; 0x841
 80010ba:	f7ff bf77 	b.w	8000fac <BSP_MotorControl_ErrorHandler>
 80010be:	bf00      	nop
 80010c0:	2000038c 	.word	0x2000038c

080010c4 <BSP_MotorControl_SetBridgeInputPwmFreq>:
 * @param[in] newFreq in Hz up to 100000Hz
 * @retval None
 **********************************************************/
void BSP_MotorControl_SetBridgeInputPwmFreq(uint8_t bridgeId, uint32_t newFreq)
{	
  if ((motorDrvHandle != 0)&&(motorDrvHandle->SetBridgeInputPwmFreq != 0))
 80010c4:	4b05      	ldr	r3, [pc, #20]	; (80010dc <BSP_MotorControl_SetBridgeInputPwmFreq+0x18>)
 80010c6:	681b      	ldr	r3, [r3, #0]
 80010c8:	b11b      	cbz	r3, 80010d2 <BSP_MotorControl_SetBridgeInputPwmFreq+0xe>
 80010ca:	f8d3 310c 	ldr.w	r3, [r3, #268]	; 0x10c
 80010ce:	b103      	cbz	r3, 80010d2 <BSP_MotorControl_SetBridgeInputPwmFreq+0xe>
  {
    motorDrvHandle->SetBridgeInputPwmFreq(bridgeId, newFreq);
 80010d0:	4718      	bx	r3
  }
  else
  {
    MOTOR_CONTROL_ERROR_UNDEFINED_FUNCTION(67);
 80010d2:	f640 0043 	movw	r0, #2115	; 0x843
 80010d6:	f7ff bf69 	b.w	8000fac <BSP_MotorControl_ErrorHandler>
 80010da:	bf00      	nop
 80010dc:	2000038c 	.word	0x2000038c

080010e0 <BSP_MotorControl_SetNbDevices>:
 * @retval TRUE if successfull, FALSE if failure, attempt 
 * to set a number of devices greater than MAX_NUMBER_OF_DEVICES
 **********************************************************/
bool BSP_MotorControl_SetNbDevices(uint16_t id, uint8_t nbDevices)
{
  MotorControlBoardId = id;
 80010e0:	4b26      	ldr	r3, [pc, #152]	; (800117c <BSP_MotorControl_SetNbDevices+0x9c>)
{
 80010e2:	b570      	push	{r4, r5, r6, lr}
  MotorControlBoardId = id;
 80010e4:	8018      	strh	r0, [r3, #0]
  bool status = FALSE;
  if (id == BSP_MOTOR_CONTROL_BOARD_ID_L6474)
 80010e6:	f641 134a 	movw	r3, #6474	; 0x194a
 80010ea:	4298      	cmp	r0, r3
{
 80010ec:	460d      	mov	r5, r1
 80010ee:	4c24      	ldr	r4, [pc, #144]	; (8001180 <BSP_MotorControl_SetNbDevices+0xa0>)
  if (id == BSP_MOTOR_CONTROL_BOARD_ID_L6474)
 80010f0:	d10c      	bne.n	800110c <BSP_MotorControl_SetNbDevices+0x2c>
  {
    motorDrvHandle = L6474_GetMotorHandle();
 80010f2:	f7ff ff4d 	bl	8000f90 <L6474_GetMotorHandle>
  }
  else if (id == BSP_MOTOR_CONTROL_BOARD_ID_POWERSTEP01)
  {
    motorDrvHandle = Powerstep01_GetMotorHandle();
 80010f6:	6020      	str	r0, [r4, #0]
  }  
  else
  {
    motorDrvHandle = 0;
  }
  if ((motorDrvHandle != 0)&&
 80010f8:	6823      	ldr	r3, [r4, #0]
 80010fa:	b3e3      	cbz	r3, 8001176 <BSP_MotorControl_SetNbDevices+0x96>
      (motorDrvHandle->SetNbDevices != 0)&&
 80010fc:	f8d3 3144 	ldr.w	r3, [r3, #324]	; 0x144
  if ((motorDrvHandle != 0)&&
 8001100:	b3cb      	cbz	r3, 8001176 <BSP_MotorControl_SetNbDevices+0x96>
      (motorDrvHandle->SetNbDevices != 0)&&
 8001102:	b3c5      	cbz	r5, 8001176 <BSP_MotorControl_SetNbDevices+0x96>
      (nbDevices !=0))
  {
    status = motorDrvHandle->SetNbDevices(nbDevices);
 8001104:	4628      	mov	r0, r5
  }
  return (status);
}
 8001106:	e8bd 4070 	ldmia.w	sp!, {r4, r5, r6, lr}
    status = motorDrvHandle->SetNbDevices(nbDevices);
 800110a:	4718      	bx	r3
  else if (id == BSP_MOTOR_CONTROL_BOARD_ID_POWERSTEP01)
 800110c:	2801      	cmp	r0, #1
 800110e:	d102      	bne.n	8001116 <BSP_MotorControl_SetNbDevices+0x36>
    motorDrvHandle = Powerstep01_GetMotorHandle();
 8001110:	f7ff ff44 	bl	8000f9c <Powerstep01_GetMotorHandle>
 8001114:	e7ef      	b.n	80010f6 <BSP_MotorControl_SetNbDevices+0x16>
  else if (id == BSP_MOTOR_CONTROL_BOARD_ID_L6206)
 8001116:	f641 033e 	movw	r3, #6206	; 0x183e
 800111a:	4298      	cmp	r0, r3
 800111c:	d102      	bne.n	8001124 <BSP_MotorControl_SetNbDevices+0x44>
    motorDrvHandle = L6206_GetMotorHandle();
 800111e:	f7ff fb17 	bl	8000750 <L6206_GetMotorHandle>
 8001122:	e7e8      	b.n	80010f6 <BSP_MotorControl_SetNbDevices+0x16>
  else if (id == BSP_MOTOR_CONTROL_BOARD_ID_L6208)
 8001124:	f5b0 5fc2 	cmp.w	r0, #6208	; 0x1840
 8001128:	d102      	bne.n	8001130 <BSP_MotorControl_SetNbDevices+0x50>
    motorDrvHandle = L6208_GetMotorHandle();
 800112a:	f7ff ff39 	bl	8000fa0 <L6208_GetMotorHandle>
 800112e:	e7e2      	b.n	80010f6 <BSP_MotorControl_SetNbDevices+0x16>
  else if (id == BSP_MOTOR_CONTROL_BOARD_ID_STSPIN220)
 8001130:	28dc      	cmp	r0, #220	; 0xdc
 8001132:	d102      	bne.n	800113a <BSP_MotorControl_SetNbDevices+0x5a>
    motorDrvHandle = Stspin220_GetMotorHandle();
 8001134:	f7ff ff36 	bl	8000fa4 <Stspin220_GetMotorHandle>
 8001138:	e7dd      	b.n	80010f6 <BSP_MotorControl_SetNbDevices+0x16>
  else if ( (id == BSP_MOTOR_CONTROL_BOARD_ID_L6470) ||
 800113a:	f641 1346 	movw	r3, #6470	; 0x1946
 800113e:	4298      	cmp	r0, r3
 8001140:	d003      	beq.n	800114a <BSP_MotorControl_SetNbDevices+0x6a>
 8001142:	f641 1348 	movw	r3, #6472	; 0x1948
 8001146:	4298      	cmp	r0, r3
 8001148:	d102      	bne.n	8001150 <BSP_MotorControl_SetNbDevices+0x70>
    motorDrvHandle = l647x_GetMotorHandle();
 800114a:	f7ff ff23 	bl	8000f94 <l647x_GetMotorHandle>
 800114e:	e7d2      	b.n	80010f6 <BSP_MotorControl_SetNbDevices+0x16>
  else if ( (id == BSP_MOTOR_CONTROL_BOARD_ID_L6480) ||
 8001150:	f020 0302 	bic.w	r3, r0, #2
 8001154:	f641 1250 	movw	r2, #6480	; 0x1950
 8001158:	4293      	cmp	r3, r2
 800115a:	d102      	bne.n	8001162 <BSP_MotorControl_SetNbDevices+0x82>
    motorDrvHandle = l648x_GetMotorHandle();
 800115c:	f7ff ff1c 	bl	8000f98 <l648x_GetMotorHandle>
 8001160:	e7c9      	b.n	80010f6 <BSP_MotorControl_SetNbDevices+0x16>
  else if ((id == BSP_MOTOR_CONTROL_BOARD_ID_STSPIN240)||
 8001162:	28f0      	cmp	r0, #240	; 0xf0
 8001164:	d001      	beq.n	800116a <BSP_MotorControl_SetNbDevices+0x8a>
 8001166:	28fa      	cmp	r0, #250	; 0xfa
 8001168:	d102      	bne.n	8001170 <BSP_MotorControl_SetNbDevices+0x90>
    motorDrvHandle = Stspin240_250_GetMotorHandle();
 800116a:	f7ff ff1d 	bl	8000fa8 <Stspin240_250_GetMotorHandle>
 800116e:	e7c2      	b.n	80010f6 <BSP_MotorControl_SetNbDevices+0x16>
    motorDrvHandle = 0;
 8001170:	2300      	movs	r3, #0
 8001172:	6023      	str	r3, [r4, #0]
 8001174:	e7c0      	b.n	80010f8 <BSP_MotorControl_SetNbDevices+0x18>
}
 8001176:	2000      	movs	r0, #0
 8001178:	bd70      	pop	{r4, r5, r6, pc}
 800117a:	bf00      	nop
 800117c:	2000038a 	.word	0x2000038a
 8001180:	2000038c 	.word	0x2000038c

08001184 <HAL_Init>:
  *         need to ensure that the SysTick time base is always set to 1 millisecond
  *         to have correct HAL operation.
  * @retval HAL status
  */
HAL_StatusTypeDef HAL_Init(void)
{
 8001184:	b508      	push	{r3, lr}
  /* Configure Flash prefetch, Instruction cache, Data cache */ 
#if (INSTRUCTION_CACHE_ENABLE != 0U)
  __HAL_FLASH_INSTRUCTION_CACHE_ENABLE();
 8001186:	4b0b      	ldr	r3, [pc, #44]	; (80011b4 <HAL_Init+0x30>)
 8001188:	681a      	ldr	r2, [r3, #0]
 800118a:	f442 7200 	orr.w	r2, r2, #512	; 0x200
 800118e:	601a      	str	r2, [r3, #0]
#endif /* INSTRUCTION_CACHE_ENABLE */

#if (DATA_CACHE_ENABLE != 0U)
  __HAL_FLASH_DATA_CACHE_ENABLE();
 8001190:	681a      	ldr	r2, [r3, #0]
 8001192:	f442 6280 	orr.w	r2, r2, #1024	; 0x400
 8001196:	601a      	str	r2, [r3, #0]
#endif /* DATA_CACHE_ENABLE */

#if (PREFETCH_ENABLE != 0U)
  __HAL_FLASH_PREFETCH_BUFFER_ENABLE();
 8001198:	681a      	ldr	r2, [r3, #0]
 800119a:	f442 7280 	orr.w	r2, r2, #256	; 0x100
 800119e:	601a      	str	r2, [r3, #0]
#endif /* PREFETCH_ENABLE */

  /* Set Interrupt Group Priority */
  HAL_NVIC_SetPriorityGrouping(NVIC_PRIORITYGROUP_4);
 80011a0:	2003      	movs	r0, #3
 80011a2:	f000 f82f 	bl	8001204 <HAL_NVIC_SetPriorityGrouping>

  /* Use systick as time base source and configure 1ms tick (default clock after Reset is HSI) */
  HAL_InitTick(TICK_INT_PRIORITY);
 80011a6:	2000      	movs	r0, #0
 80011a8:	f002 fea0 	bl	8003eec <HAL_InitTick>

  /* Init the low level hardware */
  HAL_MspInit();
 80011ac:	f002 fd9c 	bl	8003ce8 <HAL_MspInit>

  /* Return function status */
  return HAL_OK;
}
 80011b0:	2000      	movs	r0, #0
 80011b2:	bd08      	pop	{r3, pc}
 80011b4:	40023c00 	.word	0x40023c00

080011b8 <HAL_IncTick>:
  *      implementations in user file.
  * @retval None
  */
__weak void HAL_IncTick(void)
{
  uwTick += uwTickFreq;
 80011b8:	4a03      	ldr	r2, [pc, #12]	; (80011c8 <HAL_IncTick+0x10>)
 80011ba:	4b04      	ldr	r3, [pc, #16]	; (80011cc <HAL_IncTick+0x14>)
 80011bc:	6811      	ldr	r1, [r2, #0]
 80011be:	781b      	ldrb	r3, [r3, #0]
 80011c0:	440b      	add	r3, r1
 80011c2:	6013      	str	r3, [r2, #0]
 80011c4:	4770      	bx	lr
 80011c6:	bf00      	nop
 80011c8:	20004464 	.word	0x20004464
 80011cc:	20000168 	.word	0x20000168

080011d0 <HAL_GetTick>:
  *       implementations in user file.
  * @retval tick value
  */
__weak uint32_t HAL_GetTick(void)
{
  return uwTick;
 80011d0:	4b01      	ldr	r3, [pc, #4]	; (80011d8 <HAL_GetTick+0x8>)
 80011d2:	6818      	ldr	r0, [r3, #0]
}
 80011d4:	4770      	bx	lr
 80011d6:	bf00      	nop
 80011d8:	20004464 	.word	0x20004464

080011dc <HAL_Delay>:
  *       implementations in user file.
  * @param Delay specifies the delay time length, in milliseconds.
  * @retval None
  */
__weak void HAL_Delay(uint32_t Delay)
{
 80011dc:	b538      	push	{r3, r4, r5, lr}
 80011de:	4604      	mov	r4, r0
  uint32_t tickstart = HAL_GetTick();
 80011e0:	f7ff fff6 	bl	80011d0 <HAL_GetTick>
  uint32_t wait = Delay;

  /* Add a freq to guarantee minimum wait */
  if (wait < HAL_MAX_DELAY)
 80011e4:	1c63      	adds	r3, r4, #1
  {
    wait += (uint32_t)(uwTickFreq);
 80011e6:	bf1c      	itt	ne
 80011e8:	4b05      	ldrne	r3, [pc, #20]	; (8001200 <HAL_Delay+0x24>)
 80011ea:	781b      	ldrbne	r3, [r3, #0]
  uint32_t tickstart = HAL_GetTick();
 80011ec:	4605      	mov	r5, r0
    wait += (uint32_t)(uwTickFreq);
 80011ee:	bf18      	it	ne
 80011f0:	18e4      	addne	r4, r4, r3
  }

  while((HAL_GetTick() - tickstart) < wait)
 80011f2:	f7ff ffed 	bl	80011d0 <HAL_GetTick>
 80011f6:	1b40      	subs	r0, r0, r5
 80011f8:	4284      	cmp	r4, r0
 80011fa:	d8fa      	bhi.n	80011f2 <HAL_Delay+0x16>
  {
  }
}
 80011fc:	bd38      	pop	{r3, r4, r5, pc}
 80011fe:	bf00      	nop
 8001200:	20000168 	.word	0x20000168

08001204 <HAL_NVIC_SetPriorityGrouping>:
__STATIC_INLINE void __NVIC_SetPriorityGrouping(uint32_t PriorityGroup)
{
  uint32_t reg_value;
  uint32_t PriorityGroupTmp = (PriorityGroup & (uint32_t)0x07UL);             /* only values 0..7 are used          */

  reg_value  =  SCB->AIRCR;                                                   /* read old register configuration    */
 8001204:	4a07      	ldr	r2, [pc, #28]	; (8001224 <HAL_NVIC_SetPriorityGrouping+0x20>)
 8001206:	68d3      	ldr	r3, [r2, #12]
  reg_value &= ~((uint32_t)(SCB_AIRCR_VECTKEY_Msk | SCB_AIRCR_PRIGROUP_Msk)); /* clear bits to change               */
 8001208:	f423 63e0 	bic.w	r3, r3, #1792	; 0x700
 800120c:	041b      	lsls	r3, r3, #16
 800120e:	0c1b      	lsrs	r3, r3, #16
 8001210:	f043 63bf 	orr.w	r3, r3, #100139008	; 0x5f80000
  reg_value  =  (reg_value                                   |
                ((uint32_t)0x5FAUL << SCB_AIRCR_VECTKEY_Pos) |
                (PriorityGroupTmp << SCB_AIRCR_PRIGROUP_Pos)  );              /* Insert write key and priority group */
 8001214:	0200      	lsls	r0, r0, #8
 8001216:	f443 3300 	orr.w	r3, r3, #131072	; 0x20000
 800121a:	f400 60e0 	and.w	r0, r0, #1792	; 0x700
  reg_value  =  (reg_value                                   |
 800121e:	4303      	orrs	r3, r0
  SCB->AIRCR =  reg_value;
 8001220:	60d3      	str	r3, [r2, #12]
 8001222:	4770      	bx	lr
 8001224:	e000ed00 	.word	0xe000ed00

08001228 <HAL_NVIC_SetPriority>:
  \details Reads the priority grouping field from the NVIC Interrupt Controller.
  \return                Priority grouping field (SCB->AIRCR [10:8] PRIGROUP field).
 */
__STATIC_INLINE uint32_t __NVIC_GetPriorityGrouping(void)
{
  return ((uint32_t)((SCB->AIRCR & SCB_AIRCR_PRIGROUP_Msk) >> SCB_AIRCR_PRIGROUP_Pos));
 8001228:	4b17      	ldr	r3, [pc, #92]	; (8001288 <HAL_NVIC_SetPriority+0x60>)
  *         This parameter can be a value between 0 and 15
  *         A lower priority value indicates a higher priority.          
  * @retval None
  */
void HAL_NVIC_SetPriority(IRQn_Type IRQn, uint32_t PreemptPriority, uint32_t SubPriority)
{ 
 800122a:	b530      	push	{r4, r5, lr}
 800122c:	68dc      	ldr	r4, [r3, #12]
 800122e:	f3c4 2402 	ubfx	r4, r4, #8, #3
{
  uint32_t PriorityGroupTmp = (PriorityGroup & (uint32_t)0x07UL);   /* only values 0..7 are used          */
  uint32_t PreemptPriorityBits;
  uint32_t SubPriorityBits;

  PreemptPriorityBits = ((7UL - PriorityGroupTmp) > (uint32_t)(__NVIC_PRIO_BITS)) ? (uint32_t)(__NVIC_PRIO_BITS) : (uint32_t)(7UL - PriorityGroupTmp);
 8001232:	f1c4 0307 	rsb	r3, r4, #7
  SubPriorityBits     = ((PriorityGroupTmp + (uint32_t)(__NVIC_PRIO_BITS)) < (uint32_t)7UL) ? (uint32_t)0UL : (uint32_t)((PriorityGroupTmp - 7UL) + (uint32_t)(__NVIC_PRIO_BITS));
 8001236:	1d25      	adds	r5, r4, #4
  PreemptPriorityBits = ((7UL - PriorityGroupTmp) > (uint32_t)(__NVIC_PRIO_BITS)) ? (uint32_t)(__NVIC_PRIO_BITS) : (uint32_t)(7UL - PriorityGroupTmp);
 8001238:	2b04      	cmp	r3, #4
 800123a:	bf28      	it	cs
 800123c:	2304      	movcs	r3, #4
  SubPriorityBits     = ((PriorityGroupTmp + (uint32_t)(__NVIC_PRIO_BITS)) < (uint32_t)7UL) ? (uint32_t)0UL : (uint32_t)((PriorityGroupTmp - 7UL) + (uint32_t)(__NVIC_PRIO_BITS));
 800123e:	2d06      	cmp	r5, #6

  return (
           ((PreemptPriority & (uint32_t)((1UL << (PreemptPriorityBits)) - 1UL)) << SubPriorityBits) |
 8001240:	f04f 0501 	mov.w	r5, #1
 8001244:	fa05 f303 	lsl.w	r3, r5, r3
 8001248:	f103 33ff 	add.w	r3, r3, #4294967295	; 0xffffffff
  SubPriorityBits     = ((PriorityGroupTmp + (uint32_t)(__NVIC_PRIO_BITS)) < (uint32_t)7UL) ? (uint32_t)0UL : (uint32_t)((PriorityGroupTmp - 7UL) + (uint32_t)(__NVIC_PRIO_BITS));
 800124c:	bf8c      	ite	hi
 800124e:	3c03      	subhi	r4, #3
 8001250:	2400      	movls	r4, #0
           ((PreemptPriority & (uint32_t)((1UL << (PreemptPriorityBits)) - 1UL)) << SubPriorityBits) |
 8001252:	4019      	ands	r1, r3
 8001254:	40a1      	lsls	r1, r4
           ((SubPriority     & (uint32_t)((1UL << (SubPriorityBits    )) - 1UL)))
 8001256:	fa05 f404 	lsl.w	r4, r5, r4
 800125a:	3c01      	subs	r4, #1
 800125c:	4022      	ands	r2, r4
  if ((int32_t)(IRQn) >= 0)
 800125e:	2800      	cmp	r0, #0
           ((PreemptPriority & (uint32_t)((1UL << (PreemptPriorityBits)) - 1UL)) << SubPriorityBits) |
 8001260:	ea42 0201 	orr.w	r2, r2, r1
 8001264:	ea4f 1202 	mov.w	r2, r2, lsl #4
    NVIC->IP[((uint32_t)IRQn)]               = (uint8_t)((priority << (8U - __NVIC_PRIO_BITS)) & (uint32_t)0xFFUL);
 8001268:	bfad      	iteet	ge
 800126a:	f100 4060 	addge.w	r0, r0, #3758096384	; 0xe0000000
    SCB->SHP[(((uint32_t)IRQn) & 0xFUL)-4UL] = (uint8_t)((priority << (8U - __NVIC_PRIO_BITS)) & (uint32_t)0xFFUL);
 800126e:	f000 000f 	andlt.w	r0, r0, #15
 8001272:	4b06      	ldrlt	r3, [pc, #24]	; (800128c <HAL_NVIC_SetPriority+0x64>)
    NVIC->IP[((uint32_t)IRQn)]               = (uint8_t)((priority << (8U - __NVIC_PRIO_BITS)) & (uint32_t)0xFFUL);
 8001274:	f500 4061 	addge.w	r0, r0, #57600	; 0xe100
    SCB->SHP[(((uint32_t)IRQn) & 0xFUL)-4UL] = (uint8_t)((priority << (8U - __NVIC_PRIO_BITS)) & (uint32_t)0xFFUL);
 8001278:	bfb5      	itete	lt
 800127a:	b2d2      	uxtblt	r2, r2
    NVIC->IP[((uint32_t)IRQn)]               = (uint8_t)((priority << (8U - __NVIC_PRIO_BITS)) & (uint32_t)0xFFUL);
 800127c:	b2d2      	uxtbge	r2, r2
    SCB->SHP[(((uint32_t)IRQn) & 0xFUL)-4UL] = (uint8_t)((priority << (8U - __NVIC_PRIO_BITS)) & (uint32_t)0xFFUL);
 800127e:	541a      	strblt	r2, [r3, r0]
    NVIC->IP[((uint32_t)IRQn)]               = (uint8_t)((priority << (8U - __NVIC_PRIO_BITS)) & (uint32_t)0xFFUL);
 8001280:	f880 2300 	strbge.w	r2, [r0, #768]	; 0x300
 8001284:	bd30      	pop	{r4, r5, pc}
 8001286:	bf00      	nop
 8001288:	e000ed00 	.word	0xe000ed00
 800128c:	e000ed14 	.word	0xe000ed14

08001290 <HAL_NVIC_EnableIRQ>:
  if ((int32_t)(IRQn) >= 0)
 8001290:	2800      	cmp	r0, #0
 8001292:	db08      	blt.n	80012a6 <HAL_NVIC_EnableIRQ+0x16>
    NVIC->ISER[(((uint32_t)IRQn) >> 5UL)] = (uint32_t)(1UL << (((uint32_t)IRQn) & 0x1FUL));
 8001294:	0942      	lsrs	r2, r0, #5
 8001296:	2301      	movs	r3, #1
 8001298:	f000 001f 	and.w	r0, r0, #31
 800129c:	fa03 f000 	lsl.w	r0, r3, r0
 80012a0:	4b01      	ldr	r3, [pc, #4]	; (80012a8 <HAL_NVIC_EnableIRQ+0x18>)
 80012a2:	f843 0022 	str.w	r0, [r3, r2, lsl #2]
 80012a6:	4770      	bx	lr
 80012a8:	e000e100 	.word	0xe000e100

080012ac <HAL_NVIC_ClearPendingIRQ>:
  if ((int32_t)(IRQn) >= 0)
 80012ac:	2800      	cmp	r0, #0
 80012ae:	db09      	blt.n	80012c4 <HAL_NVIC_ClearPendingIRQ+0x18>
    NVIC->ICPR[(((uint32_t)IRQn) >> 5UL)] = (uint32_t)(1UL << (((uint32_t)IRQn) & 0x1FUL));
 80012b0:	0943      	lsrs	r3, r0, #5
 80012b2:	2201      	movs	r2, #1
 80012b4:	f000 001f 	and.w	r0, r0, #31
 80012b8:	fa02 f000 	lsl.w	r0, r2, r0
 80012bc:	3360      	adds	r3, #96	; 0x60
 80012be:	4a02      	ldr	r2, [pc, #8]	; (80012c8 <HAL_NVIC_ClearPendingIRQ+0x1c>)
 80012c0:	f842 0023 	str.w	r0, [r2, r3, lsl #2]
 80012c4:	4770      	bx	lr
 80012c6:	bf00      	nop
 80012c8:	e000e100 	.word	0xe000e100

080012cc <HAL_GPIO_Init>:
  * @param  GPIO_Init pointer to a GPIO_InitTypeDef structure that contains
  *         the configuration information for the specified GPIO peripheral.
  * @retval None
  */
void HAL_GPIO_Init(GPIO_TypeDef  *GPIOx, GPIO_InitTypeDef *GPIO_Init)
{
 80012cc:	e92d 4ff0 	stmdb	sp!, {r4, r5, r6, r7, r8, r9, sl, fp, lr}
 80012d0:	b085      	sub	sp, #20
  for(position = 0U; position < GPIO_NUMBER; position++)
  {
    /* Get the IO position */
    ioposition = 0x01U << position;
    /* Get the current IO position */
    iocurrent = (uint32_t)(GPIO_Init->Pin) & ioposition;
 80012d2:	680b      	ldr	r3, [r1, #0]
      /*--------------------- EXTI Mode Configuration ------------------------*/
      /* Configure the External Interrupt or event for the current IO */
      if((GPIO_Init->Mode & EXTI_MODE) == EXTI_MODE)
      {
        /* Enable SYSCFG Clock */
        __HAL_RCC_SYSCFG_CLK_ENABLE();
 80012d4:	f8df 819c 	ldr.w	r8, [pc, #412]	; 8001474 <HAL_GPIO_Init+0x1a8>
        temp &= ~(0x0FU << (4U * (position & 0x03U)));
        temp |= ((uint32_t)(GPIO_GET_INDEX(GPIOx)) << (4U * (position & 0x03U)));
        SYSCFG->EXTICR[position >> 2U] = temp;

        /* Clear EXTI line configuration */
        temp = EXTI->IMR;
 80012d8:	4a64      	ldr	r2, [pc, #400]	; (800146c <HAL_GPIO_Init+0x1a0>)
    iocurrent = (uint32_t)(GPIO_Init->Pin) & ioposition;
 80012da:	9301      	str	r3, [sp, #4]
    ioposition = 0x01U << position;
 80012dc:	f04f 0901 	mov.w	r9, #1
  for(position = 0U; position < GPIO_NUMBER; position++)
 80012e0:	2300      	movs	r3, #0
    iocurrent = (uint32_t)(GPIO_Init->Pin) & ioposition;
 80012e2:	9c01      	ldr	r4, [sp, #4]
    ioposition = 0x01U << position;
 80012e4:	fa09 f703 	lsl.w	r7, r9, r3
    iocurrent = (uint32_t)(GPIO_Init->Pin) & ioposition;
 80012e8:	ea07 0604 	and.w	r6, r7, r4
    if(iocurrent == ioposition)
 80012ec:	42b7      	cmp	r7, r6
 80012ee:	f040 80ad 	bne.w	800144c <HAL_GPIO_Init+0x180>
      if((GPIO_Init->Mode == GPIO_MODE_AF_PP) || (GPIO_Init->Mode == GPIO_MODE_AF_OD))
 80012f2:	684c      	ldr	r4, [r1, #4]
 80012f4:	f024 0a10 	bic.w	sl, r4, #16
 80012f8:	f1ba 0f02 	cmp.w	sl, #2
 80012fc:	d116      	bne.n	800132c <HAL_GPIO_Init+0x60>
        temp = GPIOx->AFR[position >> 3U];
 80012fe:	ea4f 0cd3 	mov.w	ip, r3, lsr #3
 8001302:	eb00 0c8c 	add.w	ip, r0, ip, lsl #2
        temp &= ~(0xFU << ((uint32_t)(position & 0x07U) * 4U)) ;
 8001306:	f003 0b07 	and.w	fp, r3, #7
        temp = GPIOx->AFR[position >> 3U];
 800130a:	f8dc 5020 	ldr.w	r5, [ip, #32]
        temp &= ~(0xFU << ((uint32_t)(position & 0x07U) * 4U)) ;
 800130e:	ea4f 0b8b 	mov.w	fp, fp, lsl #2
 8001312:	f04f 0e0f 	mov.w	lr, #15
 8001316:	fa0e fe0b 	lsl.w	lr, lr, fp
 800131a:	ea25 0e0e 	bic.w	lr, r5, lr
        temp |= ((uint32_t)(GPIO_Init->Alternate) << (((uint32_t)position & 0x07U) * 4U));
 800131e:	690d      	ldr	r5, [r1, #16]
 8001320:	fa05 f50b 	lsl.w	r5, r5, fp
 8001324:	ea45 050e 	orr.w	r5, r5, lr
        GPIOx->AFR[position >> 3U] = temp;
 8001328:	f8cc 5020 	str.w	r5, [ip, #32]
 800132c:	ea4f 0c43 	mov.w	ip, r3, lsl #1
      temp &= ~(GPIO_MODER_MODER0 << (position * 2U));
 8001330:	2503      	movs	r5, #3
      temp = GPIOx->MODER;
 8001332:	f8d0 b000 	ldr.w	fp, [r0]
      temp &= ~(GPIO_MODER_MODER0 << (position * 2U));
 8001336:	fa05 f50c 	lsl.w	r5, r5, ip
 800133a:	43ed      	mvns	r5, r5
      temp |= ((GPIO_Init->Mode & GPIO_MODE) << (position * 2U));
 800133c:	f004 0e03 	and.w	lr, r4, #3
      temp &= ~(GPIO_MODER_MODER0 << (position * 2U));
 8001340:	ea0b 0b05 	and.w	fp, fp, r5
      temp |= ((GPIO_Init->Mode & GPIO_MODE) << (position * 2U));
 8001344:	fa0e fe0c 	lsl.w	lr, lr, ip
      if((GPIO_Init->Mode == GPIO_MODE_OUTPUT_PP) || (GPIO_Init->Mode == GPIO_MODE_AF_PP) ||
 8001348:	f10a 3aff 	add.w	sl, sl, #4294967295	; 0xffffffff
      temp |= ((GPIO_Init->Mode & GPIO_MODE) << (position * 2U));
 800134c:	ea4e 0e0b 	orr.w	lr, lr, fp
      if((GPIO_Init->Mode == GPIO_MODE_OUTPUT_PP) || (GPIO_Init->Mode == GPIO_MODE_AF_PP) ||
 8001350:	f1ba 0f01 	cmp.w	sl, #1
      temp &= ~(GPIO_MODER_MODER0 << (position * 2U));
 8001354:	9500      	str	r5, [sp, #0]
      GPIOx->MODER = temp;
 8001356:	f8c0 e000 	str.w	lr, [r0]
      if((GPIO_Init->Mode == GPIO_MODE_OUTPUT_PP) || (GPIO_Init->Mode == GPIO_MODE_AF_PP) ||
 800135a:	d815      	bhi.n	8001388 <HAL_GPIO_Init+0xbc>
        temp = GPIOx->OSPEEDR; 
 800135c:	f8d0 e008 	ldr.w	lr, [r0, #8]
        temp &= ~(GPIO_OSPEEDER_OSPEEDR0 << (position * 2U));
 8001360:	ea05 0e0e 	and.w	lr, r5, lr
        temp |= (GPIO_Init->Speed << (position * 2U));
 8001364:	68cd      	ldr	r5, [r1, #12]
 8001366:	fa05 fa0c 	lsl.w	sl, r5, ip
 800136a:	ea4a 0e0e 	orr.w	lr, sl, lr
        GPIOx->OSPEEDR = temp;
 800136e:	f8c0 e008 	str.w	lr, [r0, #8]
        temp = GPIOx->OTYPER;
 8001372:	f8d0 e004 	ldr.w	lr, [r0, #4]
        temp &= ~(GPIO_OTYPER_OT_0 << position) ;
 8001376:	ea2e 0707 	bic.w	r7, lr, r7
        temp |= (((GPIO_Init->Mode & GPIO_OUTPUT_TYPE) >> 4U) << position);
 800137a:	f3c4 1e00 	ubfx	lr, r4, #4, #1
 800137e:	fa0e fe03 	lsl.w	lr, lr, r3
 8001382:	ea4e 0707 	orr.w	r7, lr, r7
        GPIOx->OTYPER = temp;
 8001386:	6047      	str	r7, [r0, #4]
      temp = GPIOx->PUPDR;
 8001388:	68c7      	ldr	r7, [r0, #12]
      temp &= ~(GPIO_PUPDR_PUPDR0 << (position * 2U));
 800138a:	9d00      	ldr	r5, [sp, #0]
 800138c:	403d      	ands	r5, r7
      temp |= ((GPIO_Init->Pull) << (position * 2U));
 800138e:	688f      	ldr	r7, [r1, #8]
 8001390:	fa07 f70c 	lsl.w	r7, r7, ip
 8001394:	433d      	orrs	r5, r7
      GPIOx->PUPDR = temp;
 8001396:	60c5      	str	r5, [r0, #12]
      if((GPIO_Init->Mode & EXTI_MODE) == EXTI_MODE)
 8001398:	00e5      	lsls	r5, r4, #3
 800139a:	d557      	bpl.n	800144c <HAL_GPIO_Init+0x180>
        __HAL_RCC_SYSCFG_CLK_ENABLE();
 800139c:	f04f 0b00 	mov.w	fp, #0
 80013a0:	f8cd b00c 	str.w	fp, [sp, #12]
 80013a4:	f8d8 7044 	ldr.w	r7, [r8, #68]	; 0x44
        temp |= ((uint32_t)(GPIO_GET_INDEX(GPIOx)) << (4U * (position & 0x03U)));
 80013a8:	4d31      	ldr	r5, [pc, #196]	; (8001470 <HAL_GPIO_Init+0x1a4>)
        __HAL_RCC_SYSCFG_CLK_ENABLE();
 80013aa:	f447 4780 	orr.w	r7, r7, #16384	; 0x4000
 80013ae:	f8c8 7044 	str.w	r7, [r8, #68]	; 0x44
 80013b2:	f8d8 7044 	ldr.w	r7, [r8, #68]	; 0x44
 80013b6:	f407 4780 	and.w	r7, r7, #16384	; 0x4000
 80013ba:	9703      	str	r7, [sp, #12]
 80013bc:	9f03      	ldr	r7, [sp, #12]
 80013be:	f023 0703 	bic.w	r7, r3, #3
 80013c2:	f107 4780 	add.w	r7, r7, #1073741824	; 0x40000000
 80013c6:	f507 379c 	add.w	r7, r7, #79872	; 0x13800
        temp &= ~(0x0FU << (4U * (position & 0x03U)));
 80013ca:	f003 0c03 	and.w	ip, r3, #3
        temp = SYSCFG->EXTICR[position >> 2U];
 80013ce:	f8d7 a008 	ldr.w	sl, [r7, #8]
        temp &= ~(0x0FU << (4U * (position & 0x03U)));
 80013d2:	ea4f 0c8c 	mov.w	ip, ip, lsl #2
 80013d6:	f04f 0e0f 	mov.w	lr, #15
 80013da:	fa0e fe0c 	lsl.w	lr, lr, ip
        temp |= ((uint32_t)(GPIO_GET_INDEX(GPIOx)) << (4U * (position & 0x03U)));
 80013de:	42a8      	cmp	r0, r5
        temp &= ~(0x0FU << (4U * (position & 0x03U)));
 80013e0:	ea2a 0e0e 	bic.w	lr, sl, lr
        temp |= ((uint32_t)(GPIO_GET_INDEX(GPIOx)) << (4U * (position & 0x03U)));
 80013e4:	d039      	beq.n	800145a <HAL_GPIO_Init+0x18e>
 80013e6:	f505 6580 	add.w	r5, r5, #1024	; 0x400
 80013ea:	42a8      	cmp	r0, r5
 80013ec:	d037      	beq.n	800145e <HAL_GPIO_Init+0x192>
 80013ee:	f505 6580 	add.w	r5, r5, #1024	; 0x400
 80013f2:	42a8      	cmp	r0, r5
 80013f4:	d035      	beq.n	8001462 <HAL_GPIO_Init+0x196>
 80013f6:	f505 6580 	add.w	r5, r5, #1024	; 0x400
 80013fa:	42a8      	cmp	r0, r5
 80013fc:	d033      	beq.n	8001466 <HAL_GPIO_Init+0x19a>
 80013fe:	f505 6580 	add.w	r5, r5, #1024	; 0x400
 8001402:	42a8      	cmp	r0, r5
 8001404:	bf14      	ite	ne
 8001406:	2507      	movne	r5, #7
 8001408:	2504      	moveq	r5, #4
 800140a:	fa05 f50c 	lsl.w	r5, r5, ip
 800140e:	ea45 050e 	orr.w	r5, r5, lr
        SYSCFG->EXTICR[position >> 2U] = temp;
 8001412:	60bd      	str	r5, [r7, #8]
        temp = EXTI->IMR;
 8001414:	6815      	ldr	r5, [r2, #0]
        temp &= ~((uint32_t)iocurrent);
 8001416:	43f7      	mvns	r7, r6
        if((GPIO_Init->Mode & GPIO_MODE_IT) == GPIO_MODE_IT)
 8001418:	f414 3f80 	tst.w	r4, #65536	; 0x10000
        temp &= ~((uint32_t)iocurrent);
 800141c:	bf0c      	ite	eq
 800141e:	403d      	andeq	r5, r7
        {
          temp |= iocurrent;
 8001420:	4335      	orrne	r5, r6
        }
        EXTI->IMR = temp;
 8001422:	6015      	str	r5, [r2, #0]

        temp = EXTI->EMR;
 8001424:	6855      	ldr	r5, [r2, #4]
        temp &= ~((uint32_t)iocurrent);
        if((GPIO_Init->Mode & GPIO_MODE_EVT) == GPIO_MODE_EVT)
 8001426:	f414 3f00 	tst.w	r4, #131072	; 0x20000
        temp &= ~((uint32_t)iocurrent);
 800142a:	bf0c      	ite	eq
 800142c:	403d      	andeq	r5, r7
        {
          temp |= iocurrent;
 800142e:	4335      	orrne	r5, r6
        }
        EXTI->EMR = temp;
 8001430:	6055      	str	r5, [r2, #4]

        /* Clear Rising Falling edge configuration */
        temp = EXTI->RTSR;
 8001432:	6895      	ldr	r5, [r2, #8]
        temp &= ~((uint32_t)iocurrent);
        if((GPIO_Init->Mode & RISING_EDGE) == RISING_EDGE)
 8001434:	f414 1f80 	tst.w	r4, #1048576	; 0x100000
        temp &= ~((uint32_t)iocurrent);
 8001438:	bf0c      	ite	eq
 800143a:	403d      	andeq	r5, r7
        {
          temp |= iocurrent;
 800143c:	4335      	orrne	r5, r6
        }
        EXTI->RTSR = temp;
 800143e:	6095      	str	r5, [r2, #8]

        temp = EXTI->FTSR;
 8001440:	68d5      	ldr	r5, [r2, #12]
        temp &= ~((uint32_t)iocurrent);
        if((GPIO_Init->Mode & FALLING_EDGE) == FALLING_EDGE)
 8001442:	02a4      	lsls	r4, r4, #10
        temp &= ~((uint32_t)iocurrent);
 8001444:	bf54      	ite	pl
 8001446:	403d      	andpl	r5, r7
        {
          temp |= iocurrent;
 8001448:	4335      	orrmi	r5, r6
        }
        EXTI->FTSR = temp;
 800144a:	60d5      	str	r5, [r2, #12]
  for(position = 0U; position < GPIO_NUMBER; position++)
 800144c:	3301      	adds	r3, #1
 800144e:	2b10      	cmp	r3, #16
 8001450:	f47f af47 	bne.w	80012e2 <HAL_GPIO_Init+0x16>
      }
    }
  }
}
 8001454:	b005      	add	sp, #20
 8001456:	e8bd 8ff0 	ldmia.w	sp!, {r4, r5, r6, r7, r8, r9, sl, fp, pc}
        temp |= ((uint32_t)(GPIO_GET_INDEX(GPIOx)) << (4U * (position & 0x03U)));
 800145a:	465d      	mov	r5, fp
 800145c:	e7d5      	b.n	800140a <HAL_GPIO_Init+0x13e>
 800145e:	2501      	movs	r5, #1
 8001460:	e7d3      	b.n	800140a <HAL_GPIO_Init+0x13e>
 8001462:	2502      	movs	r5, #2
 8001464:	e7d1      	b.n	800140a <HAL_GPIO_Init+0x13e>
 8001466:	2503      	movs	r5, #3
 8001468:	e7cf      	b.n	800140a <HAL_GPIO_Init+0x13e>
 800146a:	bf00      	nop
 800146c:	40013c00 	.word	0x40013c00
 8001470:	40020000 	.word	0x40020000
 8001474:	40023800 	.word	0x40023800

08001478 <HAL_GPIO_DeInit>:
  * @param  GPIO_Pin specifies the port bit to be written.
  *          This parameter can be one of GPIO_PIN_x where x can be (0..15).
  * @retval None
  */
void HAL_GPIO_DeInit(GPIO_TypeDef  *GPIOx, uint32_t GPIO_Pin)
{
 8001478:	e92d 4ff0 	stmdb	sp!, {r4, r5, r6, r7, r8, r9, sl, fp, lr}
        /* Configure the External Interrupt or event for the current IO */
        tmp = 0x0FU << (4U * (position & 0x03U));
        SYSCFG->EXTICR[position >> 2U] &= ~tmp;

        /* Clear EXTI line configuration */
        EXTI->IMR &= ~((uint32_t)iocurrent);
 800147c:	4c37      	ldr	r4, [pc, #220]	; (800155c <HAL_GPIO_DeInit+0xe4>)
  for(position = 0U; position < GPIO_NUMBER; position++)
 800147e:	2300      	movs	r3, #0
    ioposition = 0x01U << position;
 8001480:	f04f 0a01 	mov.w	sl, #1
      tmp &= (0x0FU << (4U * (position & 0x03U)));
 8001484:	f04f 080f 	mov.w	r8, #15
        EXTI->FTSR &= ~((uint32_t)iocurrent);
      }

      /*------------------------- GPIO Mode Configuration --------------------*/
      /* Configure IO Direction in Input Floating Mode */
      GPIOx->MODER &= ~(GPIO_MODER_MODER0 << (position * 2U));
 8001488:	f04f 0b03 	mov.w	fp, #3
    ioposition = 0x01U << position;
 800148c:	fa0a fe03 	lsl.w	lr, sl, r3
    iocurrent = (GPIO_Pin) & ioposition;
 8001490:	ea0e 0201 	and.w	r2, lr, r1
    if(iocurrent == ioposition)
 8001494:	4596      	cmp	lr, r2
 8001496:	d153      	bne.n	8001540 <HAL_GPIO_DeInit+0xc8>
 8001498:	f023 0503 	bic.w	r5, r3, #3
 800149c:	f105 4580 	add.w	r5, r5, #1073741824	; 0x40000000
 80014a0:	f505 359c 	add.w	r5, r5, #79872	; 0x13800
      tmp &= (0x0FU << (4U * (position & 0x03U)));
 80014a4:	f003 0703 	and.w	r7, r3, #3
      tmp = SYSCFG->EXTICR[position >> 2U];
 80014a8:	68ae      	ldr	r6, [r5, #8]
      tmp &= (0x0FU << (4U * (position & 0x03U)));
 80014aa:	00bf      	lsls	r7, r7, #2
 80014ac:	fa08 f907 	lsl.w	r9, r8, r7
 80014b0:	ea06 0c09 	and.w	ip, r6, r9
      if(tmp == ((uint32_t)(GPIO_GET_INDEX(GPIOx)) << (4U * (position & 0x03U))))
 80014b4:	4e2a      	ldr	r6, [pc, #168]	; (8001560 <HAL_GPIO_DeInit+0xe8>)
 80014b6:	42b0      	cmp	r0, r6
 80014b8:	d047      	beq.n	800154a <HAL_GPIO_DeInit+0xd2>
 80014ba:	f506 6680 	add.w	r6, r6, #1024	; 0x400
 80014be:	42b0      	cmp	r0, r6
 80014c0:	d045      	beq.n	800154e <HAL_GPIO_DeInit+0xd6>
 80014c2:	f506 6680 	add.w	r6, r6, #1024	; 0x400
 80014c6:	42b0      	cmp	r0, r6
 80014c8:	d043      	beq.n	8001552 <HAL_GPIO_DeInit+0xda>
 80014ca:	f506 6680 	add.w	r6, r6, #1024	; 0x400
 80014ce:	42b0      	cmp	r0, r6
 80014d0:	d041      	beq.n	8001556 <HAL_GPIO_DeInit+0xde>
 80014d2:	f506 6680 	add.w	r6, r6, #1024	; 0x400
 80014d6:	42b0      	cmp	r0, r6
 80014d8:	bf0c      	ite	eq
 80014da:	2604      	moveq	r6, #4
 80014dc:	2607      	movne	r6, #7
 80014de:	40be      	lsls	r6, r7
 80014e0:	45b4      	cmp	ip, r6
 80014e2:	d110      	bne.n	8001506 <HAL_GPIO_DeInit+0x8e>
        SYSCFG->EXTICR[position >> 2U] &= ~tmp;
 80014e4:	68ae      	ldr	r6, [r5, #8]
 80014e6:	ea26 0609 	bic.w	r6, r6, r9
 80014ea:	60ae      	str	r6, [r5, #8]
        EXTI->IMR &= ~((uint32_t)iocurrent);
 80014ec:	6825      	ldr	r5, [r4, #0]
 80014ee:	43d2      	mvns	r2, r2
 80014f0:	4015      	ands	r5, r2
 80014f2:	6025      	str	r5, [r4, #0]
        EXTI->EMR &= ~((uint32_t)iocurrent);
 80014f4:	6865      	ldr	r5, [r4, #4]
 80014f6:	4015      	ands	r5, r2
 80014f8:	6065      	str	r5, [r4, #4]
        EXTI->RTSR &= ~((uint32_t)iocurrent);
 80014fa:	68a5      	ldr	r5, [r4, #8]
 80014fc:	4015      	ands	r5, r2
 80014fe:	60a5      	str	r5, [r4, #8]
        EXTI->FTSR &= ~((uint32_t)iocurrent);
 8001500:	68e5      	ldr	r5, [r4, #12]
 8001502:	402a      	ands	r2, r5
 8001504:	60e2      	str	r2, [r4, #12]
      GPIOx->MODER &= ~(GPIO_MODER_MODER0 << (position * 2U));
 8001506:	005a      	lsls	r2, r3, #1
 8001508:	6805      	ldr	r5, [r0, #0]
 800150a:	fa0b f202 	lsl.w	r2, fp, r2
 800150e:	43d2      	mvns	r2, r2

      /* Configure the default Alternate Function in current IO */
      GPIOx->AFR[position >> 3U] &= ~(0xFU << ((uint32_t)(position & 0x07U) * 4U)) ;
 8001510:	08de      	lsrs	r6, r3, #3
      GPIOx->MODER &= ~(GPIO_MODER_MODER0 << (position * 2U));
 8001512:	4015      	ands	r5, r2
 8001514:	eb00 0686 	add.w	r6, r0, r6, lsl #2
 8001518:	6005      	str	r5, [r0, #0]
      GPIOx->AFR[position >> 3U] &= ~(0xFU << ((uint32_t)(position & 0x07U) * 4U)) ;
 800151a:	f003 0507 	and.w	r5, r3, #7
 800151e:	6a37      	ldr	r7, [r6, #32]
 8001520:	00ad      	lsls	r5, r5, #2
 8001522:	fa08 f505 	lsl.w	r5, r8, r5
 8001526:	ea27 0505 	bic.w	r5, r7, r5
 800152a:	6235      	str	r5, [r6, #32]

      /* Configure the default value for IO Speed */
      GPIOx->OSPEEDR &= ~(GPIO_OSPEEDER_OSPEEDR0 << (position * 2U));
 800152c:	6885      	ldr	r5, [r0, #8]
 800152e:	4015      	ands	r5, r2
 8001530:	6085      	str	r5, [r0, #8]

      /* Configure the default value IO Output Type */
      GPIOx->OTYPER  &= ~(GPIO_OTYPER_OT_0 << position) ;
 8001532:	6845      	ldr	r5, [r0, #4]
 8001534:	ea25 050e 	bic.w	r5, r5, lr
 8001538:	6045      	str	r5, [r0, #4]

      /* Deactivate the Pull-up and Pull-down resistor for the current IO */
      GPIOx->PUPDR &= ~(GPIO_PUPDR_PUPDR0 << (position * 2U));
 800153a:	68c5      	ldr	r5, [r0, #12]
 800153c:	402a      	ands	r2, r5
 800153e:	60c2      	str	r2, [r0, #12]
  for(position = 0U; position < GPIO_NUMBER; position++)
 8001540:	3301      	adds	r3, #1
 8001542:	2b10      	cmp	r3, #16
 8001544:	d1a2      	bne.n	800148c <HAL_GPIO_DeInit+0x14>
    }
  }
}
 8001546:	e8bd 8ff0 	ldmia.w	sp!, {r4, r5, r6, r7, r8, r9, sl, fp, pc}
      if(tmp == ((uint32_t)(GPIO_GET_INDEX(GPIOx)) << (4U * (position & 0x03U))))
 800154a:	2600      	movs	r6, #0
 800154c:	e7c7      	b.n	80014de <HAL_GPIO_DeInit+0x66>
 800154e:	2601      	movs	r6, #1
 8001550:	e7c5      	b.n	80014de <HAL_GPIO_DeInit+0x66>
 8001552:	2602      	movs	r6, #2
 8001554:	e7c3      	b.n	80014de <HAL_GPIO_DeInit+0x66>
 8001556:	2603      	movs	r6, #3
 8001558:	e7c1      	b.n	80014de <HAL_GPIO_DeInit+0x66>
 800155a:	bf00      	nop
 800155c:	40013c00 	.word	0x40013c00
 8001560:	40020000 	.word	0x40020000

08001564 <HAL_GPIO_ReadPin>:
  GPIO_PinState bitstatus;

  /* Check the parameters */
  assert_param(IS_GPIO_PIN(GPIO_Pin));

  if((GPIOx->IDR & GPIO_Pin) != (uint32_t)GPIO_PIN_RESET)
 8001564:	6903      	ldr	r3, [r0, #16]
 8001566:	4219      	tst	r1, r3
  else
  {
    bitstatus = GPIO_PIN_RESET;
  }
  return bitstatus;
}
 8001568:	bf14      	ite	ne
 800156a:	2001      	movne	r0, #1
 800156c:	2000      	moveq	r0, #0
 800156e:	4770      	bx	lr

08001570 <HAL_GPIO_WritePin>:
{
  /* Check the parameters */
  assert_param(IS_GPIO_PIN(GPIO_Pin));
  assert_param(IS_GPIO_PIN_ACTION(PinState));

  if(PinState != GPIO_PIN_RESET)
 8001570:	b10a      	cbz	r2, 8001576 <HAL_GPIO_WritePin+0x6>
  {
    GPIOx->BSRR = GPIO_Pin;
  }
  else
  {
    GPIOx->BSRR = (uint32_t)GPIO_Pin << 16U;
 8001572:	6181      	str	r1, [r0, #24]
 8001574:	4770      	bx	lr
 8001576:	0409      	lsls	r1, r1, #16
 8001578:	e7fb      	b.n	8001572 <HAL_GPIO_WritePin+0x2>
	...

0800157c <HAL_GPIO_EXTI_IRQHandler>:
  * @brief  This function handles EXTI interrupt request.
  * @param  GPIO_Pin Specifies the pins connected EXTI line
  * @retval None
  */
void HAL_GPIO_EXTI_IRQHandler(uint16_t GPIO_Pin)
{
 800157c:	b508      	push	{r3, lr}
  /* EXTI line interrupt detected */
  if(__HAL_GPIO_EXTI_GET_IT(GPIO_Pin) != RESET)
 800157e:	4b04      	ldr	r3, [pc, #16]	; (8001590 <HAL_GPIO_EXTI_IRQHandler+0x14>)
 8001580:	6959      	ldr	r1, [r3, #20]
 8001582:	4201      	tst	r1, r0
 8001584:	d002      	beq.n	800158c <HAL_GPIO_EXTI_IRQHandler+0x10>
  {
    __HAL_GPIO_EXTI_CLEAR_IT(GPIO_Pin);
 8001586:	6158      	str	r0, [r3, #20]
    HAL_GPIO_EXTI_Callback(GPIO_Pin);
 8001588:	f002 fc9e 	bl	8003ec8 <HAL_GPIO_EXTI_Callback>
 800158c:	bd08      	pop	{r3, pc}
 800158e:	bf00      	nop
 8001590:	40013c00 	.word	0x40013c00

08001594 <HAL_RCC_OscConfig>:
  *         supported by this API. User should request a transition to HSE Off
  *         first and then HSE On or HSE Bypass.
  * @retval HAL status
  */
__weak HAL_StatusTypeDef HAL_RCC_OscConfig(RCC_OscInitTypeDef  *RCC_OscInitStruct)
{
 8001594:	e92d 41f3 	stmdb	sp!, {r0, r1, r4, r5, r6, r7, r8, lr}
  uint32_t tickstart;

  /* Check Null pointer */
  if(RCC_OscInitStruct == NULL)
 8001598:	4604      	mov	r4, r0
 800159a:	b918      	cbnz	r0, 80015a4 <HAL_RCC_OscConfig+0x10>
  {
    return HAL_ERROR;
 800159c:	2001      	movs	r0, #1
    {
      return HAL_ERROR;
    }
  }
  return HAL_OK;
}
 800159e:	b002      	add	sp, #8
 80015a0:	e8bd 81f0 	ldmia.w	sp!, {r4, r5, r6, r7, r8, pc}
  if(((RCC_OscInitStruct->OscillatorType) & RCC_OSCILLATORTYPE_HSE) == RCC_OSCILLATORTYPE_HSE)
 80015a4:	6803      	ldr	r3, [r0, #0]
 80015a6:	07dd      	lsls	r5, r3, #31
 80015a8:	d410      	bmi.n	80015cc <HAL_RCC_OscConfig+0x38>
  if(((RCC_OscInitStruct->OscillatorType) & RCC_OSCILLATORTYPE_HSI) == RCC_OSCILLATORTYPE_HSI)
 80015aa:	6823      	ldr	r3, [r4, #0]
 80015ac:	0798      	lsls	r0, r3, #30
 80015ae:	d458      	bmi.n	8001662 <HAL_RCC_OscConfig+0xce>
  if(((RCC_OscInitStruct->OscillatorType) & RCC_OSCILLATORTYPE_LSI) == RCC_OSCILLATORTYPE_LSI)
 80015b0:	6823      	ldr	r3, [r4, #0]
 80015b2:	071a      	lsls	r2, r3, #28
 80015b4:	f100 809a 	bmi.w	80016ec <HAL_RCC_OscConfig+0x158>
  if(((RCC_OscInitStruct->OscillatorType) & RCC_OSCILLATORTYPE_LSE) == RCC_OSCILLATORTYPE_LSE)
 80015b8:	6823      	ldr	r3, [r4, #0]
 80015ba:	075b      	lsls	r3, r3, #29
 80015bc:	f100 80b8 	bmi.w	8001730 <HAL_RCC_OscConfig+0x19c>
  if ((RCC_OscInitStruct->PLL.PLLState) != RCC_PLL_NONE)
 80015c0:	69a2      	ldr	r2, [r4, #24]
 80015c2:	2a00      	cmp	r2, #0
 80015c4:	f040 8119 	bne.w	80017fa <HAL_RCC_OscConfig+0x266>
  return HAL_OK;
 80015c8:	2000      	movs	r0, #0
 80015ca:	e7e8      	b.n	800159e <HAL_RCC_OscConfig+0xa>
    if((__HAL_RCC_GET_SYSCLK_SOURCE() == RCC_CFGR_SWS_HSE) ||\
 80015cc:	4ba6      	ldr	r3, [pc, #664]	; (8001868 <HAL_RCC_OscConfig+0x2d4>)
 80015ce:	689a      	ldr	r2, [r3, #8]
 80015d0:	f002 020c 	and.w	r2, r2, #12
 80015d4:	2a04      	cmp	r2, #4
 80015d6:	d007      	beq.n	80015e8 <HAL_RCC_OscConfig+0x54>
      ((__HAL_RCC_GET_SYSCLK_SOURCE() == RCC_CFGR_SWS_PLL) && ((RCC->PLLCFGR & RCC_PLLCFGR_PLLSRC) == RCC_PLLCFGR_PLLSRC_HSE)))
 80015d8:	689a      	ldr	r2, [r3, #8]
 80015da:	f002 020c 	and.w	r2, r2, #12
    if((__HAL_RCC_GET_SYSCLK_SOURCE() == RCC_CFGR_SWS_HSE) ||\
 80015de:	2a08      	cmp	r2, #8
 80015e0:	d10a      	bne.n	80015f8 <HAL_RCC_OscConfig+0x64>
      ((__HAL_RCC_GET_SYSCLK_SOURCE() == RCC_CFGR_SWS_PLL) && ((RCC->PLLCFGR & RCC_PLLCFGR_PLLSRC) == RCC_PLLCFGR_PLLSRC_HSE)))
 80015e2:	685b      	ldr	r3, [r3, #4]
 80015e4:	0259      	lsls	r1, r3, #9
 80015e6:	d507      	bpl.n	80015f8 <HAL_RCC_OscConfig+0x64>
      if((__HAL_RCC_GET_FLAG(RCC_FLAG_HSERDY) != RESET) && (RCC_OscInitStruct->HSEState == RCC_HSE_OFF))
 80015e8:	4b9f      	ldr	r3, [pc, #636]	; (8001868 <HAL_RCC_OscConfig+0x2d4>)
 80015ea:	681b      	ldr	r3, [r3, #0]
 80015ec:	039a      	lsls	r2, r3, #14
 80015ee:	d5dc      	bpl.n	80015aa <HAL_RCC_OscConfig+0x16>
 80015f0:	6863      	ldr	r3, [r4, #4]
 80015f2:	2b00      	cmp	r3, #0
 80015f4:	d1d9      	bne.n	80015aa <HAL_RCC_OscConfig+0x16>
 80015f6:	e7d1      	b.n	800159c <HAL_RCC_OscConfig+0x8>
      __HAL_RCC_HSE_CONFIG(RCC_OscInitStruct->HSEState);
 80015f8:	6863      	ldr	r3, [r4, #4]
 80015fa:	4d9b      	ldr	r5, [pc, #620]	; (8001868 <HAL_RCC_OscConfig+0x2d4>)
 80015fc:	f5b3 3f80 	cmp.w	r3, #65536	; 0x10000
 8001600:	d111      	bne.n	8001626 <HAL_RCC_OscConfig+0x92>
 8001602:	682b      	ldr	r3, [r5, #0]
 8001604:	f443 3380 	orr.w	r3, r3, #65536	; 0x10000
 8001608:	602b      	str	r3, [r5, #0]
        tickstart = HAL_GetTick();
 800160a:	f7ff fde1 	bl	80011d0 <HAL_GetTick>
        while(__HAL_RCC_GET_FLAG(RCC_FLAG_HSERDY) == RESET)
 800160e:	4d96      	ldr	r5, [pc, #600]	; (8001868 <HAL_RCC_OscConfig+0x2d4>)
        tickstart = HAL_GetTick();
 8001610:	4606      	mov	r6, r0
        while(__HAL_RCC_GET_FLAG(RCC_FLAG_HSERDY) == RESET)
 8001612:	682b      	ldr	r3, [r5, #0]
 8001614:	039b      	lsls	r3, r3, #14
 8001616:	d4c8      	bmi.n	80015aa <HAL_RCC_OscConfig+0x16>
          if((HAL_GetTick() - tickstart ) > HSE_TIMEOUT_VALUE)
 8001618:	f7ff fdda 	bl	80011d0 <HAL_GetTick>
 800161c:	1b80      	subs	r0, r0, r6
 800161e:	2864      	cmp	r0, #100	; 0x64
 8001620:	d9f7      	bls.n	8001612 <HAL_RCC_OscConfig+0x7e>
            return HAL_TIMEOUT;
 8001622:	2003      	movs	r0, #3
 8001624:	e7bb      	b.n	800159e <HAL_RCC_OscConfig+0xa>
      __HAL_RCC_HSE_CONFIG(RCC_OscInitStruct->HSEState);
 8001626:	f5b3 2fa0 	cmp.w	r3, #327680	; 0x50000
 800162a:	d104      	bne.n	8001636 <HAL_RCC_OscConfig+0xa2>
 800162c:	682b      	ldr	r3, [r5, #0]
 800162e:	f443 2380 	orr.w	r3, r3, #262144	; 0x40000
 8001632:	602b      	str	r3, [r5, #0]
 8001634:	e7e5      	b.n	8001602 <HAL_RCC_OscConfig+0x6e>
 8001636:	682a      	ldr	r2, [r5, #0]
 8001638:	f422 3280 	bic.w	r2, r2, #65536	; 0x10000
 800163c:	602a      	str	r2, [r5, #0]
 800163e:	682a      	ldr	r2, [r5, #0]
 8001640:	f422 2280 	bic.w	r2, r2, #262144	; 0x40000
 8001644:	602a      	str	r2, [r5, #0]
      if((RCC_OscInitStruct->HSEState) != RCC_HSE_OFF)
 8001646:	2b00      	cmp	r3, #0
 8001648:	d1df      	bne.n	800160a <HAL_RCC_OscConfig+0x76>
        tickstart = HAL_GetTick();
 800164a:	f7ff fdc1 	bl	80011d0 <HAL_GetTick>
 800164e:	4606      	mov	r6, r0
        while(__HAL_RCC_GET_FLAG(RCC_FLAG_HSERDY) != RESET)
 8001650:	682b      	ldr	r3, [r5, #0]
 8001652:	039f      	lsls	r7, r3, #14
 8001654:	d5a9      	bpl.n	80015aa <HAL_RCC_OscConfig+0x16>
          if((HAL_GetTick() - tickstart ) > HSE_TIMEOUT_VALUE)
 8001656:	f7ff fdbb 	bl	80011d0 <HAL_GetTick>
 800165a:	1b80      	subs	r0, r0, r6
 800165c:	2864      	cmp	r0, #100	; 0x64
 800165e:	d9f7      	bls.n	8001650 <HAL_RCC_OscConfig+0xbc>
 8001660:	e7df      	b.n	8001622 <HAL_RCC_OscConfig+0x8e>
    if((__HAL_RCC_GET_SYSCLK_SOURCE() == RCC_CFGR_SWS_HSI) ||\
 8001662:	4b81      	ldr	r3, [pc, #516]	; (8001868 <HAL_RCC_OscConfig+0x2d4>)
 8001664:	689a      	ldr	r2, [r3, #8]
 8001666:	f012 0f0c 	tst.w	r2, #12
 800166a:	d007      	beq.n	800167c <HAL_RCC_OscConfig+0xe8>
      ((__HAL_RCC_GET_SYSCLK_SOURCE() == RCC_CFGR_SWS_PLL) && ((RCC->PLLCFGR & RCC_PLLCFGR_PLLSRC) == RCC_PLLCFGR_PLLSRC_HSI)))
 800166c:	689a      	ldr	r2, [r3, #8]
 800166e:	f002 020c 	and.w	r2, r2, #12
    if((__HAL_RCC_GET_SYSCLK_SOURCE() == RCC_CFGR_SWS_HSI) ||\
 8001672:	2a08      	cmp	r2, #8
 8001674:	d111      	bne.n	800169a <HAL_RCC_OscConfig+0x106>
      ((__HAL_RCC_GET_SYSCLK_SOURCE() == RCC_CFGR_SWS_PLL) && ((RCC->PLLCFGR & RCC_PLLCFGR_PLLSRC) == RCC_PLLCFGR_PLLSRC_HSI)))
 8001676:	685b      	ldr	r3, [r3, #4]
 8001678:	025e      	lsls	r6, r3, #9
 800167a:	d40e      	bmi.n	800169a <HAL_RCC_OscConfig+0x106>
      if((__HAL_RCC_GET_FLAG(RCC_FLAG_HSIRDY) != RESET) && (RCC_OscInitStruct->HSIState != RCC_HSI_ON))
 800167c:	4b7a      	ldr	r3, [pc, #488]	; (8001868 <HAL_RCC_OscConfig+0x2d4>)
 800167e:	681a      	ldr	r2, [r3, #0]
 8001680:	0795      	lsls	r5, r2, #30
 8001682:	d502      	bpl.n	800168a <HAL_RCC_OscConfig+0xf6>
 8001684:	68e2      	ldr	r2, [r4, #12]
 8001686:	2a01      	cmp	r2, #1
 8001688:	d188      	bne.n	800159c <HAL_RCC_OscConfig+0x8>
        __HAL_RCC_HSI_CALIBRATIONVALUE_ADJUST(RCC_OscInitStruct->HSICalibrationValue);
 800168a:	681a      	ldr	r2, [r3, #0]
 800168c:	6921      	ldr	r1, [r4, #16]
 800168e:	f022 02f8 	bic.w	r2, r2, #248	; 0xf8
 8001692:	ea42 02c1 	orr.w	r2, r2, r1, lsl #3
 8001696:	601a      	str	r2, [r3, #0]
      if((__HAL_RCC_GET_FLAG(RCC_FLAG_HSIRDY) != RESET) && (RCC_OscInitStruct->HSIState != RCC_HSI_ON))
 8001698:	e78a      	b.n	80015b0 <HAL_RCC_OscConfig+0x1c>
      if((RCC_OscInitStruct->HSIState)!= RCC_HSI_OFF)
 800169a:	68e2      	ldr	r2, [r4, #12]
 800169c:	4b73      	ldr	r3, [pc, #460]	; (800186c <HAL_RCC_OscConfig+0x2d8>)
 800169e:	b1b2      	cbz	r2, 80016ce <HAL_RCC_OscConfig+0x13a>
        __HAL_RCC_HSI_ENABLE();
 80016a0:	2201      	movs	r2, #1
 80016a2:	601a      	str	r2, [r3, #0]
        tickstart = HAL_GetTick();
 80016a4:	f7ff fd94 	bl	80011d0 <HAL_GetTick>
        while(__HAL_RCC_GET_FLAG(RCC_FLAG_HSIRDY) == RESET)
 80016a8:	4d6f      	ldr	r5, [pc, #444]	; (8001868 <HAL_RCC_OscConfig+0x2d4>)
        tickstart = HAL_GetTick();
 80016aa:	4606      	mov	r6, r0
        while(__HAL_RCC_GET_FLAG(RCC_FLAG_HSIRDY) == RESET)
 80016ac:	682b      	ldr	r3, [r5, #0]
 80016ae:	0798      	lsls	r0, r3, #30
 80016b0:	d507      	bpl.n	80016c2 <HAL_RCC_OscConfig+0x12e>
        __HAL_RCC_HSI_CALIBRATIONVALUE_ADJUST(RCC_OscInitStruct->HSICalibrationValue);
 80016b2:	682b      	ldr	r3, [r5, #0]
 80016b4:	6922      	ldr	r2, [r4, #16]
 80016b6:	f023 03f8 	bic.w	r3, r3, #248	; 0xf8
 80016ba:	ea43 03c2 	orr.w	r3, r3, r2, lsl #3
 80016be:	602b      	str	r3, [r5, #0]
 80016c0:	e776      	b.n	80015b0 <HAL_RCC_OscConfig+0x1c>
          if((HAL_GetTick() - tickstart ) > HSI_TIMEOUT_VALUE)
 80016c2:	f7ff fd85 	bl	80011d0 <HAL_GetTick>
 80016c6:	1b80      	subs	r0, r0, r6
 80016c8:	2802      	cmp	r0, #2
 80016ca:	d9ef      	bls.n	80016ac <HAL_RCC_OscConfig+0x118>
 80016cc:	e7a9      	b.n	8001622 <HAL_RCC_OscConfig+0x8e>
        __HAL_RCC_HSI_DISABLE();
 80016ce:	601a      	str	r2, [r3, #0]
        tickstart = HAL_GetTick();
 80016d0:	f7ff fd7e 	bl	80011d0 <HAL_GetTick>
        while(__HAL_RCC_GET_FLAG(RCC_FLAG_HSIRDY) != RESET)
 80016d4:	4d64      	ldr	r5, [pc, #400]	; (8001868 <HAL_RCC_OscConfig+0x2d4>)
        tickstart = HAL_GetTick();
 80016d6:	4606      	mov	r6, r0
        while(__HAL_RCC_GET_FLAG(RCC_FLAG_HSIRDY) != RESET)
 80016d8:	682b      	ldr	r3, [r5, #0]
 80016da:	0799      	lsls	r1, r3, #30
 80016dc:	f57f af68 	bpl.w	80015b0 <HAL_RCC_OscConfig+0x1c>
          if((HAL_GetTick() - tickstart ) > HSI_TIMEOUT_VALUE)
 80016e0:	f7ff fd76 	bl	80011d0 <HAL_GetTick>
 80016e4:	1b80      	subs	r0, r0, r6
 80016e6:	2802      	cmp	r0, #2
 80016e8:	d9f6      	bls.n	80016d8 <HAL_RCC_OscConfig+0x144>
 80016ea:	e79a      	b.n	8001622 <HAL_RCC_OscConfig+0x8e>
    if((RCC_OscInitStruct->LSIState)!= RCC_LSI_OFF)
 80016ec:	6962      	ldr	r2, [r4, #20]
 80016ee:	4b60      	ldr	r3, [pc, #384]	; (8001870 <HAL_RCC_OscConfig+0x2dc>)
 80016f0:	b17a      	cbz	r2, 8001712 <HAL_RCC_OscConfig+0x17e>
      __HAL_RCC_LSI_ENABLE();
 80016f2:	2201      	movs	r2, #1
 80016f4:	601a      	str	r2, [r3, #0]
      tickstart = HAL_GetTick();
 80016f6:	f7ff fd6b 	bl	80011d0 <HAL_GetTick>
      while(__HAL_RCC_GET_FLAG(RCC_FLAG_LSIRDY) == RESET)
 80016fa:	4d5b      	ldr	r5, [pc, #364]	; (8001868 <HAL_RCC_OscConfig+0x2d4>)
      tickstart = HAL_GetTick();
 80016fc:	4606      	mov	r6, r0
      while(__HAL_RCC_GET_FLAG(RCC_FLAG_LSIRDY) == RESET)
 80016fe:	6f6b      	ldr	r3, [r5, #116]	; 0x74
 8001700:	079f      	lsls	r7, r3, #30
 8001702:	f53f af59 	bmi.w	80015b8 <HAL_RCC_OscConfig+0x24>
        if((HAL_GetTick() - tickstart ) > LSI_TIMEOUT_VALUE)
 8001706:	f7ff fd63 	bl	80011d0 <HAL_GetTick>
 800170a:	1b80      	subs	r0, r0, r6
 800170c:	2802      	cmp	r0, #2
 800170e:	d9f6      	bls.n	80016fe <HAL_RCC_OscConfig+0x16a>
 8001710:	e787      	b.n	8001622 <HAL_RCC_OscConfig+0x8e>
      __HAL_RCC_LSI_DISABLE();
 8001712:	601a      	str	r2, [r3, #0]
      tickstart = HAL_GetTick();
 8001714:	f7ff fd5c 	bl	80011d0 <HAL_GetTick>
      while(__HAL_RCC_GET_FLAG(RCC_FLAG_LSIRDY) != RESET)
 8001718:	4d53      	ldr	r5, [pc, #332]	; (8001868 <HAL_RCC_OscConfig+0x2d4>)
      tickstart = HAL_GetTick();
 800171a:	4606      	mov	r6, r0
      while(__HAL_RCC_GET_FLAG(RCC_FLAG_LSIRDY) != RESET)
 800171c:	6f6b      	ldr	r3, [r5, #116]	; 0x74
 800171e:	0798      	lsls	r0, r3, #30
 8001720:	f57f af4a 	bpl.w	80015b8 <HAL_RCC_OscConfig+0x24>
        if((HAL_GetTick() - tickstart ) > LSI_TIMEOUT_VALUE)
 8001724:	f7ff fd54 	bl	80011d0 <HAL_GetTick>
 8001728:	1b80      	subs	r0, r0, r6
 800172a:	2802      	cmp	r0, #2
 800172c:	d9f6      	bls.n	800171c <HAL_RCC_OscConfig+0x188>
 800172e:	e778      	b.n	8001622 <HAL_RCC_OscConfig+0x8e>
    if(__HAL_RCC_PWR_IS_CLK_DISABLED())
 8001730:	4b4d      	ldr	r3, [pc, #308]	; (8001868 <HAL_RCC_OscConfig+0x2d4>)
 8001732:	6c1a      	ldr	r2, [r3, #64]	; 0x40
 8001734:	f012 5280 	ands.w	r2, r2, #268435456	; 0x10000000
 8001738:	d128      	bne.n	800178c <HAL_RCC_OscConfig+0x1f8>
      __HAL_RCC_PWR_CLK_ENABLE();
 800173a:	9201      	str	r2, [sp, #4]
 800173c:	6c1a      	ldr	r2, [r3, #64]	; 0x40
 800173e:	f042 5280 	orr.w	r2, r2, #268435456	; 0x10000000
 8001742:	641a      	str	r2, [r3, #64]	; 0x40
 8001744:	6c1b      	ldr	r3, [r3, #64]	; 0x40
 8001746:	f003 5380 	and.w	r3, r3, #268435456	; 0x10000000
 800174a:	9301      	str	r3, [sp, #4]
 800174c:	9b01      	ldr	r3, [sp, #4]
      pwrclkchanged = SET;
 800174e:	2601      	movs	r6, #1
    if(HAL_IS_BIT_CLR(PWR->CR, PWR_CR_DBP))
 8001750:	4d48      	ldr	r5, [pc, #288]	; (8001874 <HAL_RCC_OscConfig+0x2e0>)
 8001752:	682b      	ldr	r3, [r5, #0]
 8001754:	05d9      	lsls	r1, r3, #23
 8001756:	d51b      	bpl.n	8001790 <HAL_RCC_OscConfig+0x1fc>
    __HAL_RCC_LSE_CONFIG(RCC_OscInitStruct->LSEState);
 8001758:	68a3      	ldr	r3, [r4, #8]
 800175a:	4d43      	ldr	r5, [pc, #268]	; (8001868 <HAL_RCC_OscConfig+0x2d4>)
 800175c:	2b01      	cmp	r3, #1
 800175e:	d127      	bne.n	80017b0 <HAL_RCC_OscConfig+0x21c>
 8001760:	6f2b      	ldr	r3, [r5, #112]	; 0x70
 8001762:	f043 0301 	orr.w	r3, r3, #1
 8001766:	672b      	str	r3, [r5, #112]	; 0x70
      tickstart = HAL_GetTick();
 8001768:	f7ff fd32 	bl	80011d0 <HAL_GetTick>
      while(__HAL_RCC_GET_FLAG(RCC_FLAG_LSERDY) == RESET)
 800176c:	4d3e      	ldr	r5, [pc, #248]	; (8001868 <HAL_RCC_OscConfig+0x2d4>)
      tickstart = HAL_GetTick();
 800176e:	4607      	mov	r7, r0
        if((HAL_GetTick() - tickstart ) > RCC_LSE_TIMEOUT_VALUE)
 8001770:	f241 3888 	movw	r8, #5000	; 0x1388
      while(__HAL_RCC_GET_FLAG(RCC_FLAG_LSERDY) == RESET)
 8001774:	6f2b      	ldr	r3, [r5, #112]	; 0x70
 8001776:	079b      	lsls	r3, r3, #30
 8001778:	d539      	bpl.n	80017ee <HAL_RCC_OscConfig+0x25a>
    if(pwrclkchanged == SET)
 800177a:	2e00      	cmp	r6, #0
 800177c:	f43f af20 	beq.w	80015c0 <HAL_RCC_OscConfig+0x2c>
      __HAL_RCC_PWR_CLK_DISABLE();
 8001780:	4a39      	ldr	r2, [pc, #228]	; (8001868 <HAL_RCC_OscConfig+0x2d4>)
 8001782:	6c13      	ldr	r3, [r2, #64]	; 0x40
 8001784:	f023 5380 	bic.w	r3, r3, #268435456	; 0x10000000
 8001788:	6413      	str	r3, [r2, #64]	; 0x40
 800178a:	e719      	b.n	80015c0 <HAL_RCC_OscConfig+0x2c>
    FlagStatus       pwrclkchanged = RESET;
 800178c:	2600      	movs	r6, #0
 800178e:	e7df      	b.n	8001750 <HAL_RCC_OscConfig+0x1bc>
      SET_BIT(PWR->CR, PWR_CR_DBP);
 8001790:	682b      	ldr	r3, [r5, #0]
 8001792:	f443 7380 	orr.w	r3, r3, #256	; 0x100
 8001796:	602b      	str	r3, [r5, #0]
      tickstart = HAL_GetTick();
 8001798:	f7ff fd1a 	bl	80011d0 <HAL_GetTick>
 800179c:	4607      	mov	r7, r0
      while(HAL_IS_BIT_CLR(PWR->CR, PWR_CR_DBP))
 800179e:	682b      	ldr	r3, [r5, #0]
 80017a0:	05da      	lsls	r2, r3, #23
 80017a2:	d4d9      	bmi.n	8001758 <HAL_RCC_OscConfig+0x1c4>
        if((HAL_GetTick() - tickstart) > RCC_DBP_TIMEOUT_VALUE)
 80017a4:	f7ff fd14 	bl	80011d0 <HAL_GetTick>
 80017a8:	1bc0      	subs	r0, r0, r7
 80017aa:	2802      	cmp	r0, #2
 80017ac:	d9f7      	bls.n	800179e <HAL_RCC_OscConfig+0x20a>
 80017ae:	e738      	b.n	8001622 <HAL_RCC_OscConfig+0x8e>
    __HAL_RCC_LSE_CONFIG(RCC_OscInitStruct->LSEState);
 80017b0:	2b05      	cmp	r3, #5
 80017b2:	d104      	bne.n	80017be <HAL_RCC_OscConfig+0x22a>
 80017b4:	6f2b      	ldr	r3, [r5, #112]	; 0x70
 80017b6:	f043 0304 	orr.w	r3, r3, #4
 80017ba:	672b      	str	r3, [r5, #112]	; 0x70
 80017bc:	e7d0      	b.n	8001760 <HAL_RCC_OscConfig+0x1cc>
 80017be:	6f2a      	ldr	r2, [r5, #112]	; 0x70
 80017c0:	f022 0201 	bic.w	r2, r2, #1
 80017c4:	672a      	str	r2, [r5, #112]	; 0x70
 80017c6:	6f2a      	ldr	r2, [r5, #112]	; 0x70
 80017c8:	f022 0204 	bic.w	r2, r2, #4
 80017cc:	672a      	str	r2, [r5, #112]	; 0x70
    if((RCC_OscInitStruct->LSEState) != RCC_LSE_OFF)
 80017ce:	2b00      	cmp	r3, #0
 80017d0:	d1ca      	bne.n	8001768 <HAL_RCC_OscConfig+0x1d4>
      tickstart = HAL_GetTick();
 80017d2:	f7ff fcfd 	bl	80011d0 <HAL_GetTick>
        if((HAL_GetTick() - tickstart ) > RCC_LSE_TIMEOUT_VALUE)
 80017d6:	f241 3888 	movw	r8, #5000	; 0x1388
      tickstart = HAL_GetTick();
 80017da:	4607      	mov	r7, r0
      while(__HAL_RCC_GET_FLAG(RCC_FLAG_LSERDY) != RESET)
 80017dc:	6f2b      	ldr	r3, [r5, #112]	; 0x70
 80017de:	0798      	lsls	r0, r3, #30
 80017e0:	d5cb      	bpl.n	800177a <HAL_RCC_OscConfig+0x1e6>
        if((HAL_GetTick() - tickstart ) > RCC_LSE_TIMEOUT_VALUE)
 80017e2:	f7ff fcf5 	bl	80011d0 <HAL_GetTick>
 80017e6:	1bc0      	subs	r0, r0, r7
 80017e8:	4540      	cmp	r0, r8
 80017ea:	d9f7      	bls.n	80017dc <HAL_RCC_OscConfig+0x248>
 80017ec:	e719      	b.n	8001622 <HAL_RCC_OscConfig+0x8e>
        if((HAL_GetTick() - tickstart ) > RCC_LSE_TIMEOUT_VALUE)
 80017ee:	f7ff fcef 	bl	80011d0 <HAL_GetTick>
 80017f2:	1bc0      	subs	r0, r0, r7
 80017f4:	4540      	cmp	r0, r8
 80017f6:	d9bd      	bls.n	8001774 <HAL_RCC_OscConfig+0x1e0>
 80017f8:	e713      	b.n	8001622 <HAL_RCC_OscConfig+0x8e>
    if(__HAL_RCC_GET_SYSCLK_SOURCE() != RCC_CFGR_SWS_PLL)
 80017fa:	4d1b      	ldr	r5, [pc, #108]	; (8001868 <HAL_RCC_OscConfig+0x2d4>)
 80017fc:	68ab      	ldr	r3, [r5, #8]
 80017fe:	f003 030c 	and.w	r3, r3, #12
 8001802:	2b08      	cmp	r3, #8
 8001804:	f43f aeca 	beq.w	800159c <HAL_RCC_OscConfig+0x8>
 8001808:	4e1b      	ldr	r6, [pc, #108]	; (8001878 <HAL_RCC_OscConfig+0x2e4>)
 800180a:	2300      	movs	r3, #0
      if((RCC_OscInitStruct->PLL.PLLState) == RCC_PLL_ON)
 800180c:	2a02      	cmp	r2, #2
        __HAL_RCC_PLL_DISABLE();
 800180e:	6033      	str	r3, [r6, #0]
      if((RCC_OscInitStruct->PLL.PLLState) == RCC_PLL_ON)
 8001810:	d134      	bne.n	800187c <HAL_RCC_OscConfig+0x2e8>
        tickstart = HAL_GetTick();
 8001812:	f7ff fcdd 	bl	80011d0 <HAL_GetTick>
 8001816:	4607      	mov	r7, r0
        while(__HAL_RCC_GET_FLAG(RCC_FLAG_PLLRDY) != RESET)
 8001818:	682b      	ldr	r3, [r5, #0]
 800181a:	0199      	lsls	r1, r3, #6
 800181c:	d41e      	bmi.n	800185c <HAL_RCC_OscConfig+0x2c8>
        WRITE_REG(RCC->PLLCFGR, (RCC_OscInitStruct->PLL.PLLSource                                            | \
 800181e:	6a22      	ldr	r2, [r4, #32]
 8001820:	69e3      	ldr	r3, [r4, #28]
 8001822:	4313      	orrs	r3, r2
 8001824:	6a62      	ldr	r2, [r4, #36]	; 0x24
 8001826:	ea43 1382 	orr.w	r3, r3, r2, lsl #6
 800182a:	6ae2      	ldr	r2, [r4, #44]	; 0x2c
 800182c:	ea43 6302 	orr.w	r3, r3, r2, lsl #24
 8001830:	6aa2      	ldr	r2, [r4, #40]	; 0x28
        while(__HAL_RCC_GET_FLAG(RCC_FLAG_PLLRDY) == RESET)
 8001832:	4c0d      	ldr	r4, [pc, #52]	; (8001868 <HAL_RCC_OscConfig+0x2d4>)
        WRITE_REG(RCC->PLLCFGR, (RCC_OscInitStruct->PLL.PLLSource                                            | \
 8001834:	0852      	lsrs	r2, r2, #1
 8001836:	3a01      	subs	r2, #1
 8001838:	ea43 4302 	orr.w	r3, r3, r2, lsl #16
 800183c:	606b      	str	r3, [r5, #4]
        __HAL_RCC_PLL_ENABLE();
 800183e:	2301      	movs	r3, #1
 8001840:	6033      	str	r3, [r6, #0]
        tickstart = HAL_GetTick();
 8001842:	f7ff fcc5 	bl	80011d0 <HAL_GetTick>
 8001846:	4605      	mov	r5, r0
        while(__HAL_RCC_GET_FLAG(RCC_FLAG_PLLRDY) == RESET)
 8001848:	6823      	ldr	r3, [r4, #0]
 800184a:	019a      	lsls	r2, r3, #6
 800184c:	f53f aebc 	bmi.w	80015c8 <HAL_RCC_OscConfig+0x34>
          if((HAL_GetTick() - tickstart ) > PLL_TIMEOUT_VALUE)
 8001850:	f7ff fcbe 	bl	80011d0 <HAL_GetTick>
 8001854:	1b40      	subs	r0, r0, r5
 8001856:	2802      	cmp	r0, #2
 8001858:	d9f6      	bls.n	8001848 <HAL_RCC_OscConfig+0x2b4>
 800185a:	e6e2      	b.n	8001622 <HAL_RCC_OscConfig+0x8e>
          if((HAL_GetTick() - tickstart ) > PLL_TIMEOUT_VALUE)
 800185c:	f7ff fcb8 	bl	80011d0 <HAL_GetTick>
 8001860:	1bc0      	subs	r0, r0, r7
 8001862:	2802      	cmp	r0, #2
 8001864:	d9d8      	bls.n	8001818 <HAL_RCC_OscConfig+0x284>
 8001866:	e6dc      	b.n	8001622 <HAL_RCC_OscConfig+0x8e>
 8001868:	40023800 	.word	0x40023800
 800186c:	42470000 	.word	0x42470000
 8001870:	42470e80 	.word	0x42470e80
 8001874:	40007000 	.word	0x40007000
 8001878:	42470060 	.word	0x42470060
        tickstart = HAL_GetTick();
 800187c:	f7ff fca8 	bl	80011d0 <HAL_GetTick>
 8001880:	4604      	mov	r4, r0
        while(__HAL_RCC_GET_FLAG(RCC_FLAG_PLLRDY) != RESET)
 8001882:	682b      	ldr	r3, [r5, #0]
 8001884:	019b      	lsls	r3, r3, #6
 8001886:	f57f ae9f 	bpl.w	80015c8 <HAL_RCC_OscConfig+0x34>
          if((HAL_GetTick() - tickstart ) > PLL_TIMEOUT_VALUE)
 800188a:	f7ff fca1 	bl	80011d0 <HAL_GetTick>
 800188e:	1b00      	subs	r0, r0, r4
 8001890:	2802      	cmp	r0, #2
 8001892:	d9f6      	bls.n	8001882 <HAL_RCC_OscConfig+0x2ee>
 8001894:	e6c5      	b.n	8001622 <HAL_RCC_OscConfig+0x8e>
 8001896:	bf00      	nop

08001898 <HAL_RCC_GetSysClockFreq>:
{
  uint32_t pllm = 0U, pllvco = 0U, pllp = 0U;
  uint32_t sysclockfreq = 0U;

  /* Get SYSCLK source -------------------------------------------------------*/
  switch (RCC->CFGR & RCC_CFGR_SWS)
 8001898:	4913      	ldr	r1, [pc, #76]	; (80018e8 <HAL_RCC_GetSysClockFreq+0x50>)
{
 800189a:	b508      	push	{r3, lr}
  switch (RCC->CFGR & RCC_CFGR_SWS)
 800189c:	688b      	ldr	r3, [r1, #8]
 800189e:	f003 030c 	and.w	r3, r3, #12
 80018a2:	2b04      	cmp	r3, #4
 80018a4:	d003      	beq.n	80018ae <HAL_RCC_GetSysClockFreq+0x16>
 80018a6:	2b08      	cmp	r3, #8
 80018a8:	d003      	beq.n	80018b2 <HAL_RCC_GetSysClockFreq+0x1a>
  {
    case RCC_CFGR_SWS_HSI:  /* HSI used as system clock source */
    {
      sysclockfreq = HSI_VALUE;
 80018aa:	4810      	ldr	r0, [pc, #64]	; (80018ec <HAL_RCC_GetSysClockFreq+0x54>)
      sysclockfreq = HSI_VALUE;
      break;
    }
  }
  return sysclockfreq;
}
 80018ac:	bd08      	pop	{r3, pc}
      sysclockfreq = HSE_VALUE;
 80018ae:	4810      	ldr	r0, [pc, #64]	; (80018f0 <HAL_RCC_GetSysClockFreq+0x58>)
 80018b0:	bd08      	pop	{r3, pc}
      pllm = RCC->PLLCFGR & RCC_PLLCFGR_PLLM;
 80018b2:	684a      	ldr	r2, [r1, #4]
      if(__HAL_RCC_GET_PLL_OSCSOURCE() != RCC_PLLSOURCE_HSI)
 80018b4:	684b      	ldr	r3, [r1, #4]
        pllvco = (uint32_t) ((((uint64_t) HSE_VALUE * ((uint64_t) ((RCC->PLLCFGR & RCC_PLLCFGR_PLLN) >> RCC_PLLCFGR_PLLN_Pos)))) / (uint64_t)pllm);
 80018b6:	6849      	ldr	r1, [r1, #4]
      if(__HAL_RCC_GET_PLL_OSCSOURCE() != RCC_PLLSOURCE_HSI)
 80018b8:	f413 0380 	ands.w	r3, r3, #4194304	; 0x400000
        pllvco = (uint32_t) ((((uint64_t) HSE_VALUE * ((uint64_t) ((RCC->PLLCFGR & RCC_PLLCFGR_PLLN) >> RCC_PLLCFGR_PLLN_Pos)))) / (uint64_t)pllm);
 80018bc:	bf14      	ite	ne
 80018be:	480c      	ldrne	r0, [pc, #48]	; (80018f0 <HAL_RCC_GetSysClockFreq+0x58>)
        pllvco = (uint32_t) ((((uint64_t) HSI_VALUE * ((uint64_t) ((RCC->PLLCFGR & RCC_PLLCFGR_PLLN) >> RCC_PLLCFGR_PLLN_Pos)))) / (uint64_t)pllm);
 80018c0:	480a      	ldreq	r0, [pc, #40]	; (80018ec <HAL_RCC_GetSysClockFreq+0x54>)
        pllvco = (uint32_t) ((((uint64_t) HSE_VALUE * ((uint64_t) ((RCC->PLLCFGR & RCC_PLLCFGR_PLLN) >> RCC_PLLCFGR_PLLN_Pos)))) / (uint64_t)pllm);
 80018c2:	f3c1 1188 	ubfx	r1, r1, #6, #9
 80018c6:	bf18      	it	ne
 80018c8:	2300      	movne	r3, #0
      pllm = RCC->PLLCFGR & RCC_PLLCFGR_PLLM;
 80018ca:	f002 023f 	and.w	r2, r2, #63	; 0x3f
        pllvco = (uint32_t) ((((uint64_t) HSI_VALUE * ((uint64_t) ((RCC->PLLCFGR & RCC_PLLCFGR_PLLN) >> RCC_PLLCFGR_PLLN_Pos)))) / (uint64_t)pllm);
 80018ce:	fba1 0100 	umull	r0, r1, r1, r0
 80018d2:	f7fe fc85 	bl	80001e0 <__aeabi_uldivmod>
      pllp = ((((RCC->PLLCFGR & RCC_PLLCFGR_PLLP) >> RCC_PLLCFGR_PLLP_Pos) + 1U) *2U);
 80018d6:	4b04      	ldr	r3, [pc, #16]	; (80018e8 <HAL_RCC_GetSysClockFreq+0x50>)
 80018d8:	685b      	ldr	r3, [r3, #4]
 80018da:	f3c3 4301 	ubfx	r3, r3, #16, #2
 80018de:	3301      	adds	r3, #1
 80018e0:	005b      	lsls	r3, r3, #1
      sysclockfreq = pllvco/pllp;
 80018e2:	fbb0 f0f3 	udiv	r0, r0, r3
 80018e6:	bd08      	pop	{r3, pc}
 80018e8:	40023800 	.word	0x40023800
 80018ec:	00f42400 	.word	0x00f42400
 80018f0:	007a1200 	.word	0x007a1200

080018f4 <HAL_RCC_ClockConfig>:
{
 80018f4:	e92d 41f0 	stmdb	sp!, {r4, r5, r6, r7, r8, lr}
 80018f8:	460d      	mov	r5, r1
  if(RCC_ClkInitStruct == NULL)
 80018fa:	4604      	mov	r4, r0
 80018fc:	b910      	cbnz	r0, 8001904 <HAL_RCC_ClockConfig+0x10>
    return HAL_ERROR;
 80018fe:	2001      	movs	r0, #1
 8001900:	e8bd 81f0 	ldmia.w	sp!, {r4, r5, r6, r7, r8, pc}
  if(FLatency > __HAL_FLASH_GET_LATENCY())
 8001904:	4b44      	ldr	r3, [pc, #272]	; (8001a18 <HAL_RCC_ClockConfig+0x124>)
 8001906:	681a      	ldr	r2, [r3, #0]
 8001908:	f002 020f 	and.w	r2, r2, #15
 800190c:	428a      	cmp	r2, r1
 800190e:	d328      	bcc.n	8001962 <HAL_RCC_ClockConfig+0x6e>
  if(((RCC_ClkInitStruct->ClockType) & RCC_CLOCKTYPE_HCLK) == RCC_CLOCKTYPE_HCLK)
 8001910:	6821      	ldr	r1, [r4, #0]
 8001912:	078f      	lsls	r7, r1, #30
 8001914:	d42d      	bmi.n	8001972 <HAL_RCC_ClockConfig+0x7e>
  if(((RCC_ClkInitStruct->ClockType) & RCC_CLOCKTYPE_SYSCLK) == RCC_CLOCKTYPE_SYSCLK)
 8001916:	07c8      	lsls	r0, r1, #31
 8001918:	d440      	bmi.n	800199c <HAL_RCC_ClockConfig+0xa8>
  if(FLatency < __HAL_FLASH_GET_LATENCY())
 800191a:	4b3f      	ldr	r3, [pc, #252]	; (8001a18 <HAL_RCC_ClockConfig+0x124>)
 800191c:	681a      	ldr	r2, [r3, #0]
 800191e:	f002 020f 	and.w	r2, r2, #15
 8001922:	4295      	cmp	r5, r2
 8001924:	d366      	bcc.n	80019f4 <HAL_RCC_ClockConfig+0x100>
  if(((RCC_ClkInitStruct->ClockType) & RCC_CLOCKTYPE_PCLK1) == RCC_CLOCKTYPE_PCLK1)
 8001926:	6822      	ldr	r2, [r4, #0]
 8001928:	0751      	lsls	r1, r2, #29
 800192a:	d46c      	bmi.n	8001a06 <HAL_RCC_ClockConfig+0x112>
  if(((RCC_ClkInitStruct->ClockType) & RCC_CLOCKTYPE_PCLK2) == RCC_CLOCKTYPE_PCLK2)
 800192c:	0713      	lsls	r3, r2, #28
 800192e:	d507      	bpl.n	8001940 <HAL_RCC_ClockConfig+0x4c>
    MODIFY_REG(RCC->CFGR, RCC_CFGR_PPRE2, ((RCC_ClkInitStruct->APB2CLKDivider) << 3U));
 8001930:	4a3a      	ldr	r2, [pc, #232]	; (8001a1c <HAL_RCC_ClockConfig+0x128>)
 8001932:	6921      	ldr	r1, [r4, #16]
 8001934:	6893      	ldr	r3, [r2, #8]
 8001936:	f423 4360 	bic.w	r3, r3, #57344	; 0xe000
 800193a:	ea43 03c1 	orr.w	r3, r3, r1, lsl #3
 800193e:	6093      	str	r3, [r2, #8]
  SystemCoreClock = HAL_RCC_GetSysClockFreq() >> AHBPrescTable[(RCC->CFGR & RCC_CFGR_HPRE)>> RCC_CFGR_HPRE_Pos];
 8001940:	f7ff ffaa 	bl	8001898 <HAL_RCC_GetSysClockFreq>
 8001944:	4b35      	ldr	r3, [pc, #212]	; (8001a1c <HAL_RCC_ClockConfig+0x128>)
 8001946:	4a36      	ldr	r2, [pc, #216]	; (8001a20 <HAL_RCC_ClockConfig+0x12c>)
 8001948:	689b      	ldr	r3, [r3, #8]
 800194a:	f3c3 1303 	ubfx	r3, r3, #4, #4
 800194e:	5cd3      	ldrb	r3, [r2, r3]
 8001950:	40d8      	lsrs	r0, r3
 8001952:	4b34      	ldr	r3, [pc, #208]	; (8001a24 <HAL_RCC_ClockConfig+0x130>)
 8001954:	6018      	str	r0, [r3, #0]
  HAL_InitTick (TICK_INT_PRIORITY);
 8001956:	2000      	movs	r0, #0
 8001958:	f002 fac8 	bl	8003eec <HAL_InitTick>
  return HAL_OK;
 800195c:	2000      	movs	r0, #0
 800195e:	e8bd 81f0 	ldmia.w	sp!, {r4, r5, r6, r7, r8, pc}
    __HAL_FLASH_SET_LATENCY(FLatency);
 8001962:	b2ca      	uxtb	r2, r1
 8001964:	701a      	strb	r2, [r3, #0]
    if(__HAL_FLASH_GET_LATENCY() != FLatency)
 8001966:	681b      	ldr	r3, [r3, #0]
 8001968:	f003 030f 	and.w	r3, r3, #15
 800196c:	4299      	cmp	r1, r3
 800196e:	d1c6      	bne.n	80018fe <HAL_RCC_ClockConfig+0xa>
 8001970:	e7ce      	b.n	8001910 <HAL_RCC_ClockConfig+0x1c>
 8001972:	4b2a      	ldr	r3, [pc, #168]	; (8001a1c <HAL_RCC_ClockConfig+0x128>)
    if(((RCC_ClkInitStruct->ClockType) & RCC_CLOCKTYPE_PCLK1) == RCC_CLOCKTYPE_PCLK1)
 8001974:	f011 0f04 	tst.w	r1, #4
      MODIFY_REG(RCC->CFGR, RCC_CFGR_PPRE1, RCC_HCLK_DIV16);
 8001978:	bf1e      	ittt	ne
 800197a:	689a      	ldrne	r2, [r3, #8]
 800197c:	f442 52e0 	orrne.w	r2, r2, #7168	; 0x1c00
 8001980:	609a      	strne	r2, [r3, #8]
    if(((RCC_ClkInitStruct->ClockType) & RCC_CLOCKTYPE_PCLK2) == RCC_CLOCKTYPE_PCLK2)
 8001982:	070e      	lsls	r6, r1, #28
      MODIFY_REG(RCC->CFGR, RCC_CFGR_PPRE2, (RCC_HCLK_DIV16 << 3));
 8001984:	bf42      	ittt	mi
 8001986:	689a      	ldrmi	r2, [r3, #8]
 8001988:	f442 4260 	orrmi.w	r2, r2, #57344	; 0xe000
 800198c:	609a      	strmi	r2, [r3, #8]
    MODIFY_REG(RCC->CFGR, RCC_CFGR_HPRE, RCC_ClkInitStruct->AHBCLKDivider);
 800198e:	689a      	ldr	r2, [r3, #8]
 8001990:	68a0      	ldr	r0, [r4, #8]
 8001992:	f022 02f0 	bic.w	r2, r2, #240	; 0xf0
 8001996:	4302      	orrs	r2, r0
 8001998:	609a      	str	r2, [r3, #8]
 800199a:	e7bc      	b.n	8001916 <HAL_RCC_ClockConfig+0x22>
    if(RCC_ClkInitStruct->SYSCLKSource == RCC_SYSCLKSOURCE_HSE)
 800199c:	6862      	ldr	r2, [r4, #4]
 800199e:	4b1f      	ldr	r3, [pc, #124]	; (8001a1c <HAL_RCC_ClockConfig+0x128>)
 80019a0:	2a01      	cmp	r2, #1
 80019a2:	d11d      	bne.n	80019e0 <HAL_RCC_ClockConfig+0xec>
      if(__HAL_RCC_GET_FLAG(RCC_FLAG_HSERDY) == RESET)
 80019a4:	681b      	ldr	r3, [r3, #0]
 80019a6:	f413 3f00 	tst.w	r3, #131072	; 0x20000
      if(__HAL_RCC_GET_FLAG(RCC_FLAG_HSIRDY) == RESET)
 80019aa:	d0a8      	beq.n	80018fe <HAL_RCC_ClockConfig+0xa>
    __HAL_RCC_SYSCLK_CONFIG(RCC_ClkInitStruct->SYSCLKSource);
 80019ac:	4e1b      	ldr	r6, [pc, #108]	; (8001a1c <HAL_RCC_ClockConfig+0x128>)
 80019ae:	68b3      	ldr	r3, [r6, #8]
 80019b0:	f023 0303 	bic.w	r3, r3, #3
 80019b4:	4313      	orrs	r3, r2
 80019b6:	60b3      	str	r3, [r6, #8]
    tickstart = HAL_GetTick();
 80019b8:	f7ff fc0a 	bl	80011d0 <HAL_GetTick>
      if ((HAL_GetTick() - tickstart) > CLOCKSWITCH_TIMEOUT_VALUE)
 80019bc:	f241 3888 	movw	r8, #5000	; 0x1388
    tickstart = HAL_GetTick();
 80019c0:	4607      	mov	r7, r0
    while (__HAL_RCC_GET_SYSCLK_SOURCE() != (RCC_ClkInitStruct->SYSCLKSource << RCC_CFGR_SWS_Pos))
 80019c2:	68b3      	ldr	r3, [r6, #8]
 80019c4:	6862      	ldr	r2, [r4, #4]
 80019c6:	f003 030c 	and.w	r3, r3, #12
 80019ca:	ebb3 0f82 	cmp.w	r3, r2, lsl #2
 80019ce:	d0a4      	beq.n	800191a <HAL_RCC_ClockConfig+0x26>
      if ((HAL_GetTick() - tickstart) > CLOCKSWITCH_TIMEOUT_VALUE)
 80019d0:	f7ff fbfe 	bl	80011d0 <HAL_GetTick>
 80019d4:	1bc0      	subs	r0, r0, r7
 80019d6:	4540      	cmp	r0, r8
 80019d8:	d9f3      	bls.n	80019c2 <HAL_RCC_ClockConfig+0xce>
        return HAL_TIMEOUT;
 80019da:	2003      	movs	r0, #3
}
 80019dc:	e8bd 81f0 	ldmia.w	sp!, {r4, r5, r6, r7, r8, pc}
    else if((RCC_ClkInitStruct->SYSCLKSource == RCC_SYSCLKSOURCE_PLLCLK)   ||
 80019e0:	1e91      	subs	r1, r2, #2
 80019e2:	2901      	cmp	r1, #1
      if(__HAL_RCC_GET_FLAG(RCC_FLAG_PLLRDY) == RESET)
 80019e4:	681b      	ldr	r3, [r3, #0]
    else if((RCC_ClkInitStruct->SYSCLKSource == RCC_SYSCLKSOURCE_PLLCLK)   ||
 80019e6:	d802      	bhi.n	80019ee <HAL_RCC_ClockConfig+0xfa>
      if(__HAL_RCC_GET_FLAG(RCC_FLAG_PLLRDY) == RESET)
 80019e8:	f013 7f00 	tst.w	r3, #33554432	; 0x2000000
 80019ec:	e7dd      	b.n	80019aa <HAL_RCC_ClockConfig+0xb6>
      if(__HAL_RCC_GET_FLAG(RCC_FLAG_HSIRDY) == RESET)
 80019ee:	f013 0f02 	tst.w	r3, #2
 80019f2:	e7da      	b.n	80019aa <HAL_RCC_ClockConfig+0xb6>
    __HAL_FLASH_SET_LATENCY(FLatency);
 80019f4:	b2ea      	uxtb	r2, r5
 80019f6:	701a      	strb	r2, [r3, #0]
    if(__HAL_FLASH_GET_LATENCY() != FLatency)
 80019f8:	681b      	ldr	r3, [r3, #0]
 80019fa:	f003 030f 	and.w	r3, r3, #15
 80019fe:	429d      	cmp	r5, r3
 8001a00:	f47f af7d 	bne.w	80018fe <HAL_RCC_ClockConfig+0xa>
 8001a04:	e78f      	b.n	8001926 <HAL_RCC_ClockConfig+0x32>
    MODIFY_REG(RCC->CFGR, RCC_CFGR_PPRE1, RCC_ClkInitStruct->APB1CLKDivider);
 8001a06:	4905      	ldr	r1, [pc, #20]	; (8001a1c <HAL_RCC_ClockConfig+0x128>)
 8001a08:	68e0      	ldr	r0, [r4, #12]
 8001a0a:	688b      	ldr	r3, [r1, #8]
 8001a0c:	f423 53e0 	bic.w	r3, r3, #7168	; 0x1c00
 8001a10:	4303      	orrs	r3, r0
 8001a12:	608b      	str	r3, [r1, #8]
 8001a14:	e78a      	b.n	800192c <HAL_RCC_ClockConfig+0x38>
 8001a16:	bf00      	nop
 8001a18:	40023c00 	.word	0x40023c00
 8001a1c:	40023800 	.word	0x40023800
 8001a20:	080042cc 	.word	0x080042cc
 8001a24:	20000198 	.word	0x20000198

08001a28 <HAL_RCC_GetPCLK1Freq>:
  * @retval PCLK1 frequency
  */
uint32_t HAL_RCC_GetPCLK1Freq(void)
{
  /* Get HCLK source and Compute PCLK1 frequency ---------------------------*/
  return (HAL_RCC_GetHCLKFreq() >> APBPrescTable[(RCC->CFGR & RCC_CFGR_PPRE1)>> RCC_CFGR_PPRE1_Pos]);
 8001a28:	4b04      	ldr	r3, [pc, #16]	; (8001a3c <HAL_RCC_GetPCLK1Freq+0x14>)
 8001a2a:	4a05      	ldr	r2, [pc, #20]	; (8001a40 <HAL_RCC_GetPCLK1Freq+0x18>)
 8001a2c:	689b      	ldr	r3, [r3, #8]
 8001a2e:	f3c3 2382 	ubfx	r3, r3, #10, #3
 8001a32:	5cd3      	ldrb	r3, [r2, r3]
 8001a34:	4a03      	ldr	r2, [pc, #12]	; (8001a44 <HAL_RCC_GetPCLK1Freq+0x1c>)
 8001a36:	6810      	ldr	r0, [r2, #0]
}
 8001a38:	40d8      	lsrs	r0, r3
 8001a3a:	4770      	bx	lr
 8001a3c:	40023800 	.word	0x40023800
 8001a40:	080042dc 	.word	0x080042dc
 8001a44:	20000198 	.word	0x20000198

08001a48 <HAL_RCC_GetPCLK2Freq>:
  * @retval PCLK2 frequency
  */
uint32_t HAL_RCC_GetPCLK2Freq(void)
{
  /* Get HCLK source and Compute PCLK2 frequency ---------------------------*/
  return (HAL_RCC_GetHCLKFreq()>> APBPrescTable[(RCC->CFGR & RCC_CFGR_PPRE2)>> RCC_CFGR_PPRE2_Pos]);
 8001a48:	4b04      	ldr	r3, [pc, #16]	; (8001a5c <HAL_RCC_GetPCLK2Freq+0x14>)
 8001a4a:	4a05      	ldr	r2, [pc, #20]	; (8001a60 <HAL_RCC_GetPCLK2Freq+0x18>)
 8001a4c:	689b      	ldr	r3, [r3, #8]
 8001a4e:	f3c3 3342 	ubfx	r3, r3, #13, #3
 8001a52:	5cd3      	ldrb	r3, [r2, r3]
 8001a54:	4a03      	ldr	r2, [pc, #12]	; (8001a64 <HAL_RCC_GetPCLK2Freq+0x1c>)
 8001a56:	6810      	ldr	r0, [r2, #0]
}
 8001a58:	40d8      	lsrs	r0, r3
 8001a5a:	4770      	bx	lr
 8001a5c:	40023800 	.word	0x40023800
 8001a60:	080042dc 	.word	0x080042dc
 8001a64:	20000198 	.word	0x20000198

08001a68 <HAL_RCC_GetClockConfig>:
  * @retval None
  */
void HAL_RCC_GetClockConfig(RCC_ClkInitTypeDef  *RCC_ClkInitStruct, uint32_t *pFLatency)
{
  /* Set all possible values for the Clock type parameter --------------------*/
  RCC_ClkInitStruct->ClockType = RCC_CLOCKTYPE_SYSCLK | RCC_CLOCKTYPE_HCLK | RCC_CLOCKTYPE_PCLK1 | RCC_CLOCKTYPE_PCLK2;
 8001a68:	230f      	movs	r3, #15
 8001a6a:	6003      	str	r3, [r0, #0]

  /* Get the SYSCLK configuration --------------------------------------------*/
  RCC_ClkInitStruct->SYSCLKSource = (uint32_t)(RCC->CFGR & RCC_CFGR_SW);
 8001a6c:	4b0b      	ldr	r3, [pc, #44]	; (8001a9c <HAL_RCC_GetClockConfig+0x34>)
 8001a6e:	689a      	ldr	r2, [r3, #8]
 8001a70:	f002 0203 	and.w	r2, r2, #3
 8001a74:	6042      	str	r2, [r0, #4]

  /* Get the HCLK configuration ----------------------------------------------*/
  RCC_ClkInitStruct->AHBCLKDivider = (uint32_t)(RCC->CFGR & RCC_CFGR_HPRE);
 8001a76:	689a      	ldr	r2, [r3, #8]
 8001a78:	f002 02f0 	and.w	r2, r2, #240	; 0xf0
 8001a7c:	6082      	str	r2, [r0, #8]

  /* Get the APB1 configuration ----------------------------------------------*/
  RCC_ClkInitStruct->APB1CLKDivider = (uint32_t)(RCC->CFGR & RCC_CFGR_PPRE1);
 8001a7e:	689a      	ldr	r2, [r3, #8]
 8001a80:	f402 52e0 	and.w	r2, r2, #7168	; 0x1c00
 8001a84:	60c2      	str	r2, [r0, #12]

  /* Get the APB2 configuration ----------------------------------------------*/
  RCC_ClkInitStruct->APB2CLKDivider = (uint32_t)((RCC->CFGR & RCC_CFGR_PPRE2) >> 3U);
 8001a86:	689b      	ldr	r3, [r3, #8]
 8001a88:	08db      	lsrs	r3, r3, #3
 8001a8a:	f403 53e0 	and.w	r3, r3, #7168	; 0x1c00
 8001a8e:	6103      	str	r3, [r0, #16]

  /* Get the Flash Wait State (Latency) configuration ------------------------*/
  *pFLatency = (uint32_t)(FLASH->ACR & FLASH_ACR_LATENCY);
 8001a90:	4b03      	ldr	r3, [pc, #12]	; (8001aa0 <HAL_RCC_GetClockConfig+0x38>)
 8001a92:	681b      	ldr	r3, [r3, #0]
 8001a94:	f003 030f 	and.w	r3, r3, #15
 8001a98:	600b      	str	r3, [r1, #0]
 8001a9a:	4770      	bx	lr
 8001a9c:	40023800 	.word	0x40023800
 8001aa0:	40023c00 	.word	0x40023c00

08001aa4 <TIM_OC1_SetConfig>:
  uint32_t tmpccmrx;
  uint32_t tmpccer;
  uint32_t tmpcr2;

  /* Disable the Channel 1: Reset the CC1E Bit */
  TIMx->CCER &= ~TIM_CCER_CC1E;
 8001aa4:	6a03      	ldr	r3, [r0, #32]
 8001aa6:	f023 0301 	bic.w	r3, r3, #1
 8001aaa:	6203      	str	r3, [r0, #32]

  /* Get the TIMx CCER register value */
  tmpccer = TIMx->CCER;
 8001aac:	6a03      	ldr	r3, [r0, #32]
{
 8001aae:	b570      	push	{r4, r5, r6, lr}
  /* Get the TIMx CR2 register value */
  tmpcr2 =  TIMx->CR2;
 8001ab0:	6844      	ldr	r4, [r0, #4]

  /* Get the TIMx CCMR1 register value */
  tmpccmrx = TIMx->CCMR1;
 8001ab2:	6982      	ldr	r2, [r0, #24]

  /* Reset the Output Compare Mode Bits */
  tmpccmrx &= ~TIM_CCMR1_OC1M;
  tmpccmrx &= ~TIM_CCMR1_CC1S;
  /* Select the Output Compare Mode */
  tmpccmrx |= OC_Config->OCMode;
 8001ab4:	680d      	ldr	r5, [r1, #0]
  tmpccmrx &= ~TIM_CCMR1_CC1S;
 8001ab6:	f022 0273 	bic.w	r2, r2, #115	; 0x73
  tmpccmrx |= OC_Config->OCMode;
 8001aba:	432a      	orrs	r2, r5

  /* Reset the Output Polarity level */
  tmpccer &= ~TIM_CCER_CC1P;
  /* Set the Output Compare Polarity */
  tmpccer |= OC_Config->OCPolarity;
 8001abc:	688d      	ldr	r5, [r1, #8]
  tmpccer &= ~TIM_CCER_CC1P;
 8001abe:	f023 0302 	bic.w	r3, r3, #2
  tmpccer |= OC_Config->OCPolarity;
 8001ac2:	432b      	orrs	r3, r5

  if (IS_TIM_CCXN_INSTANCE(TIMx, TIM_CHANNEL_1))
 8001ac4:	4d0a      	ldr	r5, [pc, #40]	; (8001af0 <TIM_OC1_SetConfig+0x4c>)
 8001ac6:	42a8      	cmp	r0, r5
 8001ac8:	d10b      	bne.n	8001ae2 <TIM_OC1_SetConfig+0x3e>
    assert_param(IS_TIM_OCN_POLARITY(OC_Config->OCNPolarity));

    /* Reset the Output N Polarity level */
    tmpccer &= ~TIM_CCER_CC1NP;
    /* Set the Output N Polarity */
    tmpccer |= OC_Config->OCNPolarity;
 8001aca:	68cd      	ldr	r5, [r1, #12]
    tmpcr2 &= ~TIM_CR2_OIS1;
    tmpcr2 &= ~TIM_CR2_OIS1N;
    /* Set the Output Idle state */
    tmpcr2 |= OC_Config->OCIdleState;
    /* Set the Output N Idle state */
    tmpcr2 |= OC_Config->OCNIdleState;
 8001acc:	698e      	ldr	r6, [r1, #24]
    tmpccer &= ~TIM_CCER_CC1NP;
 8001ace:	f023 0308 	bic.w	r3, r3, #8
    tmpccer |= OC_Config->OCNPolarity;
 8001ad2:	432b      	orrs	r3, r5
    tmpcr2 |= OC_Config->OCNIdleState;
 8001ad4:	694d      	ldr	r5, [r1, #20]
    tmpcr2 &= ~TIM_CR2_OIS1N;
 8001ad6:	f424 7440 	bic.w	r4, r4, #768	; 0x300
    tmpcr2 |= OC_Config->OCNIdleState;
 8001ada:	4335      	orrs	r5, r6
    tmpccer &= ~TIM_CCER_CC1NE;
 8001adc:	f023 0304 	bic.w	r3, r3, #4
    tmpcr2 |= OC_Config->OCNIdleState;
 8001ae0:	432c      	orrs	r4, r5
  }

  /* Write to TIMx CR2 */
  TIMx->CR2 = tmpcr2;
 8001ae2:	6044      	str	r4, [r0, #4]

  /* Write to TIMx CCMR1 */
  TIMx->CCMR1 = tmpccmrx;
 8001ae4:	6182      	str	r2, [r0, #24]

  /* Set the Capture Compare Register value */
  TIMx->CCR1 = OC_Config->Pulse;
 8001ae6:	684a      	ldr	r2, [r1, #4]
 8001ae8:	6342      	str	r2, [r0, #52]	; 0x34

  /* Write to TIMx CCER */
  TIMx->CCER = tmpccer;
 8001aea:	6203      	str	r3, [r0, #32]
 8001aec:	bd70      	pop	{r4, r5, r6, pc}
 8001aee:	bf00      	nop
 8001af0:	40010000 	.word	0x40010000

08001af4 <TIM_OC3_SetConfig>:
  uint32_t tmpccmrx;
  uint32_t tmpccer;
  uint32_t tmpcr2;

  /* Disable the Channel 3: Reset the CC2E Bit */
  TIMx->CCER &= ~TIM_CCER_CC3E;
 8001af4:	6a03      	ldr	r3, [r0, #32]
 8001af6:	f423 7380 	bic.w	r3, r3, #256	; 0x100
 8001afa:	6203      	str	r3, [r0, #32]

  /* Get the TIMx CCER register value */
  tmpccer = TIMx->CCER;
 8001afc:	6a03      	ldr	r3, [r0, #32]
{
 8001afe:	b570      	push	{r4, r5, r6, lr}
  /* Get the TIMx CR2 register value */
  tmpcr2 =  TIMx->CR2;
 8001b00:	6844      	ldr	r4, [r0, #4]

  /* Get the TIMx CCMR2 register value */
  tmpccmrx = TIMx->CCMR2;
 8001b02:	69c2      	ldr	r2, [r0, #28]

  /* Reset the Output Compare mode and Capture/Compare selection Bits */
  tmpccmrx &= ~TIM_CCMR2_OC3M;
  tmpccmrx &= ~TIM_CCMR2_CC3S;
  /* Select the Output Compare Mode */
  tmpccmrx |= OC_Config->OCMode;
 8001b04:	680d      	ldr	r5, [r1, #0]
  tmpccmrx &= ~TIM_CCMR2_CC3S;
 8001b06:	f022 0273 	bic.w	r2, r2, #115	; 0x73
  tmpccmrx |= OC_Config->OCMode;
 8001b0a:	432a      	orrs	r2, r5

  /* Reset the Output Polarity level */
  tmpccer &= ~TIM_CCER_CC3P;
  /* Set the Output Compare Polarity */
  tmpccer |= (OC_Config->OCPolarity << 8U);
 8001b0c:	688d      	ldr	r5, [r1, #8]
  tmpccer &= ~TIM_CCER_CC3P;
 8001b0e:	f423 7300 	bic.w	r3, r3, #512	; 0x200
  tmpccer |= (OC_Config->OCPolarity << 8U);
 8001b12:	ea43 2305 	orr.w	r3, r3, r5, lsl #8

  if (IS_TIM_CCXN_INSTANCE(TIMx, TIM_CHANNEL_3))
 8001b16:	4d0b      	ldr	r5, [pc, #44]	; (8001b44 <TIM_OC3_SetConfig+0x50>)
 8001b18:	42a8      	cmp	r0, r5
 8001b1a:	d10d      	bne.n	8001b38 <TIM_OC3_SetConfig+0x44>
    assert_param(IS_TIM_OCN_POLARITY(OC_Config->OCNPolarity));

    /* Reset the Output N Polarity level */
    tmpccer &= ~TIM_CCER_CC3NP;
    /* Set the Output N Polarity */
    tmpccer |= (OC_Config->OCNPolarity << 8U);
 8001b1c:	68cd      	ldr	r5, [r1, #12]
    tmpcr2 &= ~TIM_CR2_OIS3;
    tmpcr2 &= ~TIM_CR2_OIS3N;
    /* Set the Output Idle state */
    tmpcr2 |= (OC_Config->OCIdleState << 4U);
    /* Set the Output N Idle state */
    tmpcr2 |= (OC_Config->OCNIdleState << 4U);
 8001b1e:	698e      	ldr	r6, [r1, #24]
    tmpccer &= ~TIM_CCER_CC3NP;
 8001b20:	f423 6300 	bic.w	r3, r3, #2048	; 0x800
    tmpccer |= (OC_Config->OCNPolarity << 8U);
 8001b24:	ea43 2305 	orr.w	r3, r3, r5, lsl #8
    tmpcr2 |= (OC_Config->OCIdleState << 4U);
 8001b28:	694d      	ldr	r5, [r1, #20]
    tmpcr2 &= ~TIM_CR2_OIS3N;
 8001b2a:	f424 5440 	bic.w	r4, r4, #12288	; 0x3000
    tmpcr2 |= (OC_Config->OCNIdleState << 4U);
 8001b2e:	4335      	orrs	r5, r6
    tmpccer &= ~TIM_CCER_CC3NE;
 8001b30:	f423 6380 	bic.w	r3, r3, #1024	; 0x400
    tmpcr2 |= (OC_Config->OCNIdleState << 4U);
 8001b34:	ea44 1405 	orr.w	r4, r4, r5, lsl #4
  }

  /* Write to TIMx CR2 */
  TIMx->CR2 = tmpcr2;
 8001b38:	6044      	str	r4, [r0, #4]

  /* Write to TIMx CCMR2 */
  TIMx->CCMR2 = tmpccmrx;
 8001b3a:	61c2      	str	r2, [r0, #28]

  /* Set the Capture Compare Register value */
  TIMx->CCR3 = OC_Config->Pulse;
 8001b3c:	684a      	ldr	r2, [r1, #4]
 8001b3e:	63c2      	str	r2, [r0, #60]	; 0x3c

  /* Write to TIMx CCER */
  TIMx->CCER = tmpccer;
 8001b40:	6203      	str	r3, [r0, #32]
 8001b42:	bd70      	pop	{r4, r5, r6, pc}
 8001b44:	40010000 	.word	0x40010000

08001b48 <TIM_OC4_SetConfig>:
  uint32_t tmpccmrx;
  uint32_t tmpccer;
  uint32_t tmpcr2;

  /* Disable the Channel 4: Reset the CC4E Bit */
  TIMx->CCER &= ~TIM_CCER_CC4E;
 8001b48:	6a03      	ldr	r3, [r0, #32]
 8001b4a:	f423 5380 	bic.w	r3, r3, #4096	; 0x1000
 8001b4e:	6203      	str	r3, [r0, #32]

  /* Get the TIMx CCER register value */
  tmpccer = TIMx->CCER;
 8001b50:	6a03      	ldr	r3, [r0, #32]
{
 8001b52:	b530      	push	{r4, r5, lr}
  /* Get the TIMx CR2 register value */
  tmpcr2 =  TIMx->CR2;
 8001b54:	6844      	ldr	r4, [r0, #4]

  /* Get the TIMx CCMR2 register value */
  tmpccmrx = TIMx->CCMR2;
 8001b56:	69c2      	ldr	r2, [r0, #28]
  /* Reset the Output Compare mode and Capture/Compare selection Bits */
  tmpccmrx &= ~TIM_CCMR2_OC4M;
  tmpccmrx &= ~TIM_CCMR2_CC4S;

  /* Select the Output Compare Mode */
  tmpccmrx |= (OC_Config->OCMode << 8U);
 8001b58:	680d      	ldr	r5, [r1, #0]
  tmpccmrx &= ~TIM_CCMR2_CC4S;
 8001b5a:	f422 42e6 	bic.w	r2, r2, #29440	; 0x7300
  tmpccmrx |= (OC_Config->OCMode << 8U);
 8001b5e:	ea42 2205 	orr.w	r2, r2, r5, lsl #8

  /* Reset the Output Polarity level */
  tmpccer &= ~TIM_CCER_CC4P;
  /* Set the Output Compare Polarity */
  tmpccer |= (OC_Config->OCPolarity << 12U);
 8001b62:	688d      	ldr	r5, [r1, #8]
  tmpccer &= ~TIM_CCER_CC4P;
 8001b64:	f423 5300 	bic.w	r3, r3, #8192	; 0x2000
  tmpccer |= (OC_Config->OCPolarity << 12U);
 8001b68:	ea43 3305 	orr.w	r3, r3, r5, lsl #12

  if (IS_TIM_BREAK_INSTANCE(TIMx))
 8001b6c:	4d06      	ldr	r5, [pc, #24]	; (8001b88 <TIM_OC4_SetConfig+0x40>)
 8001b6e:	42a8      	cmp	r0, r5

    /* Reset the Output Compare IDLE State */
    tmpcr2 &= ~TIM_CR2_OIS4;

    /* Set the Output Idle state */
    tmpcr2 |= (OC_Config->OCIdleState << 6U);
 8001b70:	bf02      	ittt	eq
 8001b72:	694d      	ldreq	r5, [r1, #20]
    tmpcr2 &= ~TIM_CR2_OIS4;
 8001b74:	f424 4480 	biceq.w	r4, r4, #16384	; 0x4000
    tmpcr2 |= (OC_Config->OCIdleState << 6U);
 8001b78:	ea44 1485 	orreq.w	r4, r4, r5, lsl #6
  }

  /* Write to TIMx CR2 */
  TIMx->CR2 = tmpcr2;
 8001b7c:	6044      	str	r4, [r0, #4]

  /* Write to TIMx CCMR2 */
  TIMx->CCMR2 = tmpccmrx;
 8001b7e:	61c2      	str	r2, [r0, #28]

  /* Set the Capture Compare Register value */
  TIMx->CCR4 = OC_Config->Pulse;
 8001b80:	684a      	ldr	r2, [r1, #4]
 8001b82:	6402      	str	r2, [r0, #64]	; 0x40

  /* Write to TIMx CCER */
  TIMx->CCER = tmpccer;
 8001b84:	6203      	str	r3, [r0, #32]
 8001b86:	bd30      	pop	{r4, r5, pc}
 8001b88:	40010000 	.word	0x40010000

08001b8c <HAL_TIM_Base_MspInit>:
 8001b8c:	4770      	bx	lr

08001b8e <HAL_TIM_Base_Start_IT>:
  __HAL_TIM_ENABLE_IT(htim, TIM_IT_UPDATE);
 8001b8e:	6803      	ldr	r3, [r0, #0]
 8001b90:	68da      	ldr	r2, [r3, #12]
 8001b92:	f042 0201 	orr.w	r2, r2, #1
 8001b96:	60da      	str	r2, [r3, #12]
  tmpsmcr = htim->Instance->SMCR & TIM_SMCR_SMS;
 8001b98:	689a      	ldr	r2, [r3, #8]
 8001b9a:	f002 0207 	and.w	r2, r2, #7
  if (!IS_TIM_SLAVEMODE_TRIGGER_ENABLED(tmpsmcr))
 8001b9e:	2a06      	cmp	r2, #6
    __HAL_TIM_ENABLE(htim);
 8001ba0:	bf1e      	ittt	ne
 8001ba2:	681a      	ldrne	r2, [r3, #0]
 8001ba4:	f042 0201 	orrne.w	r2, r2, #1
 8001ba8:	601a      	strne	r2, [r3, #0]
}
 8001baa:	2000      	movs	r0, #0
 8001bac:	4770      	bx	lr

08001bae <HAL_TIM_PWM_DeInit>:
  htim->State = HAL_TIM_STATE_BUSY;
 8001bae:	2302      	movs	r3, #2
{
 8001bb0:	b510      	push	{r4, lr}
  htim->State = HAL_TIM_STATE_BUSY;
 8001bb2:	f880 303d 	strb.w	r3, [r0, #61]	; 0x3d
  __HAL_TIM_DISABLE(htim);
 8001bb6:	6803      	ldr	r3, [r0, #0]
 8001bb8:	6a19      	ldr	r1, [r3, #32]
 8001bba:	f241 1211 	movw	r2, #4369	; 0x1111
 8001bbe:	4211      	tst	r1, r2
{
 8001bc0:	4604      	mov	r4, r0
  __HAL_TIM_DISABLE(htim);
 8001bc2:	d108      	bne.n	8001bd6 <HAL_TIM_PWM_DeInit+0x28>
 8001bc4:	6a19      	ldr	r1, [r3, #32]
 8001bc6:	f240 4244 	movw	r2, #1092	; 0x444
 8001bca:	4211      	tst	r1, r2
 8001bcc:	bf02      	ittt	eq
 8001bce:	681a      	ldreq	r2, [r3, #0]
 8001bd0:	f022 0201 	biceq.w	r2, r2, #1
 8001bd4:	601a      	streq	r2, [r3, #0]
  HAL_TIM_PWM_MspDeInit(htim);
 8001bd6:	4620      	mov	r0, r4
 8001bd8:	f002 f94c 	bl	8003e74 <HAL_TIM_PWM_MspDeInit>
  htim->State = HAL_TIM_STATE_RESET;
 8001bdc:	2000      	movs	r0, #0
 8001bde:	f884 003d 	strb.w	r0, [r4, #61]	; 0x3d
  __HAL_UNLOCK(htim);
 8001be2:	f884 003c 	strb.w	r0, [r4, #60]	; 0x3c
}
 8001be6:	bd10      	pop	{r4, pc}

08001be8 <HAL_TIM_OC_DelayElapsedCallback>:
 8001be8:	4770      	bx	lr

08001bea <HAL_TIM_IC_CaptureCallback>:
 8001bea:	4770      	bx	lr

08001bec <HAL_TIM_PWM_PulseFinishedCallback>:
 8001bec:	4770      	bx	lr

08001bee <HAL_TIM_TriggerCallback>:
 8001bee:	4770      	bx	lr

08001bf0 <HAL_TIM_IRQHandler>:
  if (__HAL_TIM_GET_FLAG(htim, TIM_FLAG_CC1) != RESET)
 8001bf0:	6803      	ldr	r3, [r0, #0]
 8001bf2:	691a      	ldr	r2, [r3, #16]
 8001bf4:	0791      	lsls	r1, r2, #30
{
 8001bf6:	b510      	push	{r4, lr}
 8001bf8:	4604      	mov	r4, r0
  if (__HAL_TIM_GET_FLAG(htim, TIM_FLAG_CC1) != RESET)
 8001bfa:	d50e      	bpl.n	8001c1a <HAL_TIM_IRQHandler+0x2a>
    if (__HAL_TIM_GET_IT_SOURCE(htim, TIM_IT_CC1) != RESET)
 8001bfc:	68da      	ldr	r2, [r3, #12]
 8001bfe:	0792      	lsls	r2, r2, #30
 8001c00:	d50b      	bpl.n	8001c1a <HAL_TIM_IRQHandler+0x2a>
        __HAL_TIM_CLEAR_IT(htim, TIM_IT_CC1);
 8001c02:	f06f 0202 	mvn.w	r2, #2
 8001c06:	611a      	str	r2, [r3, #16]
        if ((htim->Instance->CCMR1 & TIM_CCMR1_CC1S) != 0x00U)
 8001c08:	699b      	ldr	r3, [r3, #24]
        htim->Channel = HAL_TIM_ACTIVE_CHANNEL_1;
 8001c0a:	2201      	movs	r2, #1
        if ((htim->Instance->CCMR1 & TIM_CCMR1_CC1S) != 0x00U)
 8001c0c:	079b      	lsls	r3, r3, #30
        htim->Channel = HAL_TIM_ACTIVE_CHANNEL_1;
 8001c0e:	7702      	strb	r2, [r0, #28]
        if ((htim->Instance->CCMR1 & TIM_CCMR1_CC1S) != 0x00U)
 8001c10:	d077      	beq.n	8001d02 <HAL_TIM_IRQHandler+0x112>
          HAL_TIM_IC_CaptureCallback(htim);
 8001c12:	f7ff ffea 	bl	8001bea <HAL_TIM_IC_CaptureCallback>
        htim->Channel = HAL_TIM_ACTIVE_CHANNEL_CLEARED;
 8001c16:	2300      	movs	r3, #0
 8001c18:	7723      	strb	r3, [r4, #28]
  if (__HAL_TIM_GET_FLAG(htim, TIM_FLAG_CC2) != RESET)
 8001c1a:	6823      	ldr	r3, [r4, #0]
 8001c1c:	691a      	ldr	r2, [r3, #16]
 8001c1e:	0750      	lsls	r0, r2, #29
 8001c20:	d510      	bpl.n	8001c44 <HAL_TIM_IRQHandler+0x54>
    if (__HAL_TIM_GET_IT_SOURCE(htim, TIM_IT_CC2) != RESET)
 8001c22:	68da      	ldr	r2, [r3, #12]
 8001c24:	0751      	lsls	r1, r2, #29
 8001c26:	d50d      	bpl.n	8001c44 <HAL_TIM_IRQHandler+0x54>
      __HAL_TIM_CLEAR_IT(htim, TIM_IT_CC2);
 8001c28:	f06f 0204 	mvn.w	r2, #4
 8001c2c:	611a      	str	r2, [r3, #16]
      if ((htim->Instance->CCMR1 & TIM_CCMR1_CC2S) != 0x00U)
 8001c2e:	699b      	ldr	r3, [r3, #24]
      htim->Channel = HAL_TIM_ACTIVE_CHANNEL_2;
 8001c30:	2202      	movs	r2, #2
      if ((htim->Instance->CCMR1 & TIM_CCMR1_CC2S) != 0x00U)
 8001c32:	f413 7f40 	tst.w	r3, #768	; 0x300
      htim->Channel = HAL_TIM_ACTIVE_CHANNEL_2;
 8001c36:	7722      	strb	r2, [r4, #28]
        HAL_TIM_IC_CaptureCallback(htim);
 8001c38:	4620      	mov	r0, r4
      if ((htim->Instance->CCMR1 & TIM_CCMR1_CC2S) != 0x00U)
 8001c3a:	d068      	beq.n	8001d0e <HAL_TIM_IRQHandler+0x11e>
        HAL_TIM_IC_CaptureCallback(htim);
 8001c3c:	f7ff ffd5 	bl	8001bea <HAL_TIM_IC_CaptureCallback>
      htim->Channel = HAL_TIM_ACTIVE_CHANNEL_CLEARED;
 8001c40:	2300      	movs	r3, #0
 8001c42:	7723      	strb	r3, [r4, #28]
  if (__HAL_TIM_GET_FLAG(htim, TIM_FLAG_CC3) != RESET)
 8001c44:	6823      	ldr	r3, [r4, #0]
 8001c46:	691a      	ldr	r2, [r3, #16]
 8001c48:	0712      	lsls	r2, r2, #28
 8001c4a:	d50f      	bpl.n	8001c6c <HAL_TIM_IRQHandler+0x7c>
    if (__HAL_TIM_GET_IT_SOURCE(htim, TIM_IT_CC3) != RESET)
 8001c4c:	68da      	ldr	r2, [r3, #12]
 8001c4e:	0710      	lsls	r0, r2, #28
 8001c50:	d50c      	bpl.n	8001c6c <HAL_TIM_IRQHandler+0x7c>
      __HAL_TIM_CLEAR_IT(htim, TIM_IT_CC3);
 8001c52:	f06f 0208 	mvn.w	r2, #8
 8001c56:	611a      	str	r2, [r3, #16]
      if ((htim->Instance->CCMR2 & TIM_CCMR2_CC3S) != 0x00U)
 8001c58:	69db      	ldr	r3, [r3, #28]
      htim->Channel = HAL_TIM_ACTIVE_CHANNEL_3;
 8001c5a:	2204      	movs	r2, #4
      if ((htim->Instance->CCMR2 & TIM_CCMR2_CC3S) != 0x00U)
 8001c5c:	0799      	lsls	r1, r3, #30
      htim->Channel = HAL_TIM_ACTIVE_CHANNEL_3;
 8001c5e:	7722      	strb	r2, [r4, #28]
        HAL_TIM_IC_CaptureCallback(htim);
 8001c60:	4620      	mov	r0, r4
      if ((htim->Instance->CCMR2 & TIM_CCMR2_CC3S) != 0x00U)
 8001c62:	d05a      	beq.n	8001d1a <HAL_TIM_IRQHandler+0x12a>
        HAL_TIM_IC_CaptureCallback(htim);
 8001c64:	f7ff ffc1 	bl	8001bea <HAL_TIM_IC_CaptureCallback>
      htim->Channel = HAL_TIM_ACTIVE_CHANNEL_CLEARED;
 8001c68:	2300      	movs	r3, #0
 8001c6a:	7723      	strb	r3, [r4, #28]
  if (__HAL_TIM_GET_FLAG(htim, TIM_FLAG_CC4) != RESET)
 8001c6c:	6823      	ldr	r3, [r4, #0]
 8001c6e:	691a      	ldr	r2, [r3, #16]
 8001c70:	06d2      	lsls	r2, r2, #27
 8001c72:	d510      	bpl.n	8001c96 <HAL_TIM_IRQHandler+0xa6>
    if (__HAL_TIM_GET_IT_SOURCE(htim, TIM_IT_CC4) != RESET)
 8001c74:	68da      	ldr	r2, [r3, #12]
 8001c76:	06d0      	lsls	r0, r2, #27
 8001c78:	d50d      	bpl.n	8001c96 <HAL_TIM_IRQHandler+0xa6>
      __HAL_TIM_CLEAR_IT(htim, TIM_IT_CC4);
 8001c7a:	f06f 0210 	mvn.w	r2, #16
 8001c7e:	611a      	str	r2, [r3, #16]
      if ((htim->Instance->CCMR2 & TIM_CCMR2_CC4S) != 0x00U)
 8001c80:	69db      	ldr	r3, [r3, #28]
      htim->Channel = HAL_TIM_ACTIVE_CHANNEL_4;
 8001c82:	2208      	movs	r2, #8
      if ((htim->Instance->CCMR2 & TIM_CCMR2_CC4S) != 0x00U)
 8001c84:	f413 7f40 	tst.w	r3, #768	; 0x300
      htim->Channel = HAL_TIM_ACTIVE_CHANNEL_4;
 8001c88:	7722      	strb	r2, [r4, #28]
        HAL_TIM_IC_CaptureCallback(htim);
 8001c8a:	4620      	mov	r0, r4
      if ((htim->Instance->CCMR2 & TIM_CCMR2_CC4S) != 0x00U)
 8001c8c:	d04b      	beq.n	8001d26 <HAL_TIM_IRQHandler+0x136>
        HAL_TIM_IC_CaptureCallback(htim);
 8001c8e:	f7ff ffac 	bl	8001bea <HAL_TIM_IC_CaptureCallback>
      htim->Channel = HAL_TIM_ACTIVE_CHANNEL_CLEARED;
 8001c92:	2300      	movs	r3, #0
 8001c94:	7723      	strb	r3, [r4, #28]
  if (__HAL_TIM_GET_FLAG(htim, TIM_FLAG_UPDATE) != RESET)
 8001c96:	6823      	ldr	r3, [r4, #0]
 8001c98:	691a      	ldr	r2, [r3, #16]
 8001c9a:	07d1      	lsls	r1, r2, #31
 8001c9c:	d508      	bpl.n	8001cb0 <HAL_TIM_IRQHandler+0xc0>
    if (__HAL_TIM_GET_IT_SOURCE(htim, TIM_IT_UPDATE) != RESET)
 8001c9e:	68da      	ldr	r2, [r3, #12]
 8001ca0:	07d2      	lsls	r2, r2, #31
 8001ca2:	d505      	bpl.n	8001cb0 <HAL_TIM_IRQHandler+0xc0>
      __HAL_TIM_CLEAR_IT(htim, TIM_IT_UPDATE);
 8001ca4:	f06f 0201 	mvn.w	r2, #1
 8001ca8:	611a      	str	r2, [r3, #16]
      HAL_TIM_PeriodElapsedCallback(htim);
 8001caa:	4620      	mov	r0, r4
 8001cac:	f002 f802 	bl	8003cb4 <HAL_TIM_PeriodElapsedCallback>
  if (__HAL_TIM_GET_FLAG(htim, TIM_FLAG_BREAK) != RESET)
 8001cb0:	6823      	ldr	r3, [r4, #0]
 8001cb2:	691a      	ldr	r2, [r3, #16]
 8001cb4:	0610      	lsls	r0, r2, #24
 8001cb6:	d508      	bpl.n	8001cca <HAL_TIM_IRQHandler+0xda>
    if (__HAL_TIM_GET_IT_SOURCE(htim, TIM_IT_BREAK) != RESET)
 8001cb8:	68da      	ldr	r2, [r3, #12]
 8001cba:	0611      	lsls	r1, r2, #24
 8001cbc:	d505      	bpl.n	8001cca <HAL_TIM_IRQHandler+0xda>
      __HAL_TIM_CLEAR_IT(htim, TIM_IT_BREAK);
 8001cbe:	f06f 0280 	mvn.w	r2, #128	; 0x80
 8001cc2:	611a      	str	r2, [r3, #16]
      HAL_TIMEx_BreakCallback(htim);
 8001cc4:	4620      	mov	r0, r4
 8001cc6:	f000 f9bc 	bl	8002042 <HAL_TIMEx_BreakCallback>
  if (__HAL_TIM_GET_FLAG(htim, TIM_FLAG_TRIGGER) != RESET)
 8001cca:	6823      	ldr	r3, [r4, #0]
 8001ccc:	691a      	ldr	r2, [r3, #16]
 8001cce:	0652      	lsls	r2, r2, #25
 8001cd0:	d508      	bpl.n	8001ce4 <HAL_TIM_IRQHandler+0xf4>
    if (__HAL_TIM_GET_IT_SOURCE(htim, TIM_IT_TRIGGER) != RESET)
 8001cd2:	68da      	ldr	r2, [r3, #12]
 8001cd4:	0650      	lsls	r0, r2, #25
 8001cd6:	d505      	bpl.n	8001ce4 <HAL_TIM_IRQHandler+0xf4>
      __HAL_TIM_CLEAR_IT(htim, TIM_IT_TRIGGER);
 8001cd8:	f06f 0240 	mvn.w	r2, #64	; 0x40
 8001cdc:	611a      	str	r2, [r3, #16]
      HAL_TIM_TriggerCallback(htim);
 8001cde:	4620      	mov	r0, r4
 8001ce0:	f7ff ff85 	bl	8001bee <HAL_TIM_TriggerCallback>
  if (__HAL_TIM_GET_FLAG(htim, TIM_FLAG_COM) != RESET)
 8001ce4:	6823      	ldr	r3, [r4, #0]
 8001ce6:	691a      	ldr	r2, [r3, #16]
 8001ce8:	0691      	lsls	r1, r2, #26
 8001cea:	d522      	bpl.n	8001d32 <HAL_TIM_IRQHandler+0x142>
    if (__HAL_TIM_GET_IT_SOURCE(htim, TIM_IT_COM) != RESET)
 8001cec:	68da      	ldr	r2, [r3, #12]
 8001cee:	0692      	lsls	r2, r2, #26
 8001cf0:	d51f      	bpl.n	8001d32 <HAL_TIM_IRQHandler+0x142>
      __HAL_TIM_CLEAR_IT(htim, TIM_FLAG_COM);
 8001cf2:	f06f 0220 	mvn.w	r2, #32
      HAL_TIMEx_CommutCallback(htim);
 8001cf6:	4620      	mov	r0, r4
      __HAL_TIM_CLEAR_IT(htim, TIM_FLAG_COM);
 8001cf8:	611a      	str	r2, [r3, #16]
}
 8001cfa:	e8bd 4010 	ldmia.w	sp!, {r4, lr}
      HAL_TIMEx_CommutCallback(htim);
 8001cfe:	f000 b99f 	b.w	8002040 <HAL_TIMEx_CommutCallback>
          HAL_TIM_OC_DelayElapsedCallback(htim);
 8001d02:	f7ff ff71 	bl	8001be8 <HAL_TIM_OC_DelayElapsedCallback>
          HAL_TIM_PWM_PulseFinishedCallback(htim);
 8001d06:	4620      	mov	r0, r4
 8001d08:	f7ff ff70 	bl	8001bec <HAL_TIM_PWM_PulseFinishedCallback>
 8001d0c:	e783      	b.n	8001c16 <HAL_TIM_IRQHandler+0x26>
        HAL_TIM_OC_DelayElapsedCallback(htim);
 8001d0e:	f7ff ff6b 	bl	8001be8 <HAL_TIM_OC_DelayElapsedCallback>
        HAL_TIM_PWM_PulseFinishedCallback(htim);
 8001d12:	4620      	mov	r0, r4
 8001d14:	f7ff ff6a 	bl	8001bec <HAL_TIM_PWM_PulseFinishedCallback>
 8001d18:	e792      	b.n	8001c40 <HAL_TIM_IRQHandler+0x50>
        HAL_TIM_OC_DelayElapsedCallback(htim);
 8001d1a:	f7ff ff65 	bl	8001be8 <HAL_TIM_OC_DelayElapsedCallback>
        HAL_TIM_PWM_PulseFinishedCallback(htim);
 8001d1e:	4620      	mov	r0, r4
 8001d20:	f7ff ff64 	bl	8001bec <HAL_TIM_PWM_PulseFinishedCallback>
 8001d24:	e7a0      	b.n	8001c68 <HAL_TIM_IRQHandler+0x78>
        HAL_TIM_OC_DelayElapsedCallback(htim);
 8001d26:	f7ff ff5f 	bl	8001be8 <HAL_TIM_OC_DelayElapsedCallback>
        HAL_TIM_PWM_PulseFinishedCallback(htim);
 8001d2a:	4620      	mov	r0, r4
 8001d2c:	f7ff ff5e 	bl	8001bec <HAL_TIM_PWM_PulseFinishedCallback>
 8001d30:	e7af      	b.n	8001c92 <HAL_TIM_IRQHandler+0xa2>
 8001d32:	bd10      	pop	{r4, pc}

08001d34 <TIM_Base_SetConfig>:
  if (IS_TIM_COUNTER_MODE_SELECT_INSTANCE(TIMx))
 8001d34:	4a24      	ldr	r2, [pc, #144]	; (8001dc8 <TIM_Base_SetConfig+0x94>)
  tmpcr1 = TIMx->CR1;
 8001d36:	6803      	ldr	r3, [r0, #0]
  if (IS_TIM_COUNTER_MODE_SELECT_INSTANCE(TIMx))
 8001d38:	4290      	cmp	r0, r2
 8001d3a:	d00e      	beq.n	8001d5a <TIM_Base_SetConfig+0x26>
 8001d3c:	f1b0 4f80 	cmp.w	r0, #1073741824	; 0x40000000
 8001d40:	d00b      	beq.n	8001d5a <TIM_Base_SetConfig+0x26>
 8001d42:	f5a2 427c 	sub.w	r2, r2, #64512	; 0xfc00
 8001d46:	4290      	cmp	r0, r2
 8001d48:	d007      	beq.n	8001d5a <TIM_Base_SetConfig+0x26>
 8001d4a:	f502 6280 	add.w	r2, r2, #1024	; 0x400
 8001d4e:	4290      	cmp	r0, r2
 8001d50:	d003      	beq.n	8001d5a <TIM_Base_SetConfig+0x26>
 8001d52:	f502 6280 	add.w	r2, r2, #1024	; 0x400
 8001d56:	4290      	cmp	r0, r2
 8001d58:	d115      	bne.n	8001d86 <TIM_Base_SetConfig+0x52>
    tmpcr1 |= Structure->CounterMode;
 8001d5a:	684a      	ldr	r2, [r1, #4]
    tmpcr1 &= ~(TIM_CR1_DIR | TIM_CR1_CMS);
 8001d5c:	f023 0370 	bic.w	r3, r3, #112	; 0x70
    tmpcr1 |= Structure->CounterMode;
 8001d60:	4313      	orrs	r3, r2
  if (IS_TIM_CLOCK_DIVISION_INSTANCE(TIMx))
 8001d62:	4a19      	ldr	r2, [pc, #100]	; (8001dc8 <TIM_Base_SetConfig+0x94>)
 8001d64:	4290      	cmp	r0, r2
 8001d66:	d019      	beq.n	8001d9c <TIM_Base_SetConfig+0x68>
 8001d68:	f1b0 4f80 	cmp.w	r0, #1073741824	; 0x40000000
 8001d6c:	d016      	beq.n	8001d9c <TIM_Base_SetConfig+0x68>
 8001d6e:	f5a2 427c 	sub.w	r2, r2, #64512	; 0xfc00
 8001d72:	4290      	cmp	r0, r2
 8001d74:	d012      	beq.n	8001d9c <TIM_Base_SetConfig+0x68>
 8001d76:	f502 6280 	add.w	r2, r2, #1024	; 0x400
 8001d7a:	4290      	cmp	r0, r2
 8001d7c:	d00e      	beq.n	8001d9c <TIM_Base_SetConfig+0x68>
 8001d7e:	f502 6280 	add.w	r2, r2, #1024	; 0x400
 8001d82:	4290      	cmp	r0, r2
 8001d84:	d00a      	beq.n	8001d9c <TIM_Base_SetConfig+0x68>
 8001d86:	4a11      	ldr	r2, [pc, #68]	; (8001dcc <TIM_Base_SetConfig+0x98>)
 8001d88:	4290      	cmp	r0, r2
 8001d8a:	d007      	beq.n	8001d9c <TIM_Base_SetConfig+0x68>
 8001d8c:	f502 6280 	add.w	r2, r2, #1024	; 0x400
 8001d90:	4290      	cmp	r0, r2
 8001d92:	d003      	beq.n	8001d9c <TIM_Base_SetConfig+0x68>
 8001d94:	f502 6280 	add.w	r2, r2, #1024	; 0x400
 8001d98:	4290      	cmp	r0, r2
 8001d9a:	d103      	bne.n	8001da4 <TIM_Base_SetConfig+0x70>
    tmpcr1 |= (uint32_t)Structure->ClockDivision;
 8001d9c:	68ca      	ldr	r2, [r1, #12]
    tmpcr1 &= ~TIM_CR1_CKD;
 8001d9e:	f423 7340 	bic.w	r3, r3, #768	; 0x300
    tmpcr1 |= (uint32_t)Structure->ClockDivision;
 8001da2:	4313      	orrs	r3, r2
  MODIFY_REG(tmpcr1, TIM_CR1_ARPE, Structure->AutoReloadPreload);
 8001da4:	694a      	ldr	r2, [r1, #20]
 8001da6:	f023 0380 	bic.w	r3, r3, #128	; 0x80
 8001daa:	4313      	orrs	r3, r2
  TIMx->CR1 = tmpcr1;
 8001dac:	6003      	str	r3, [r0, #0]
  TIMx->ARR = (uint32_t)Structure->Period ;
 8001dae:	688b      	ldr	r3, [r1, #8]
 8001db0:	62c3      	str	r3, [r0, #44]	; 0x2c
  TIMx->PSC = Structure->Prescaler;
 8001db2:	680b      	ldr	r3, [r1, #0]
 8001db4:	6283      	str	r3, [r0, #40]	; 0x28
  if (IS_TIM_REPETITION_COUNTER_INSTANCE(TIMx))
 8001db6:	4b04      	ldr	r3, [pc, #16]	; (8001dc8 <TIM_Base_SetConfig+0x94>)
 8001db8:	4298      	cmp	r0, r3
    TIMx->RCR = Structure->RepetitionCounter;
 8001dba:	bf04      	itt	eq
 8001dbc:	690b      	ldreq	r3, [r1, #16]
 8001dbe:	6303      	streq	r3, [r0, #48]	; 0x30
  TIMx->EGR = TIM_EGR_UG;
 8001dc0:	2301      	movs	r3, #1
 8001dc2:	6143      	str	r3, [r0, #20]
 8001dc4:	4770      	bx	lr
 8001dc6:	bf00      	nop
 8001dc8:	40010000 	.word	0x40010000
 8001dcc:	40014000 	.word	0x40014000

08001dd0 <HAL_TIM_Base_Init>:
{
 8001dd0:	b510      	push	{r4, lr}
  if (htim == NULL)
 8001dd2:	4604      	mov	r4, r0
 8001dd4:	b1a0      	cbz	r0, 8001e00 <HAL_TIM_Base_Init+0x30>
  if (htim->State == HAL_TIM_STATE_RESET)
 8001dd6:	f890 303d 	ldrb.w	r3, [r0, #61]	; 0x3d
 8001dda:	f003 02ff 	and.w	r2, r3, #255	; 0xff
 8001dde:	b91b      	cbnz	r3, 8001de8 <HAL_TIM_Base_Init+0x18>
    htim->Lock = HAL_UNLOCKED;
 8001de0:	f880 203c 	strb.w	r2, [r0, #60]	; 0x3c
    HAL_TIM_Base_MspInit(htim);
 8001de4:	f7ff fed2 	bl	8001b8c <HAL_TIM_Base_MspInit>
  htim->State = HAL_TIM_STATE_BUSY;
 8001de8:	2302      	movs	r3, #2
 8001dea:	f884 303d 	strb.w	r3, [r4, #61]	; 0x3d
  TIM_Base_SetConfig(htim->Instance, &htim->Init);
 8001dee:	6820      	ldr	r0, [r4, #0]
 8001df0:	1d21      	adds	r1, r4, #4
 8001df2:	f7ff ff9f 	bl	8001d34 <TIM_Base_SetConfig>
  htim->State = HAL_TIM_STATE_READY;
 8001df6:	2301      	movs	r3, #1
 8001df8:	f884 303d 	strb.w	r3, [r4, #61]	; 0x3d
  return HAL_OK;
 8001dfc:	2000      	movs	r0, #0
 8001dfe:	bd10      	pop	{r4, pc}
    return HAL_ERROR;
 8001e00:	2001      	movs	r0, #1
}
 8001e02:	bd10      	pop	{r4, pc}

08001e04 <HAL_TIM_PWM_Init>:
{
 8001e04:	b510      	push	{r4, lr}
  if (htim == NULL)
 8001e06:	4604      	mov	r4, r0
 8001e08:	b1a0      	cbz	r0, 8001e34 <HAL_TIM_PWM_Init+0x30>
  if (htim->State == HAL_TIM_STATE_RESET)
 8001e0a:	f890 303d 	ldrb.w	r3, [r0, #61]	; 0x3d
 8001e0e:	f003 02ff 	and.w	r2, r3, #255	; 0xff
 8001e12:	b91b      	cbnz	r3, 8001e1c <HAL_TIM_PWM_Init+0x18>
    htim->Lock = HAL_UNLOCKED;
 8001e14:	f880 203c 	strb.w	r2, [r0, #60]	; 0x3c
    HAL_TIM_PWM_MspInit(htim);
 8001e18:	f001 ffbc 	bl	8003d94 <HAL_TIM_PWM_MspInit>
  htim->State = HAL_TIM_STATE_BUSY;
 8001e1c:	2302      	movs	r3, #2
 8001e1e:	f884 303d 	strb.w	r3, [r4, #61]	; 0x3d
  TIM_Base_SetConfig(htim->Instance, &htim->Init);
 8001e22:	6820      	ldr	r0, [r4, #0]
 8001e24:	1d21      	adds	r1, r4, #4
 8001e26:	f7ff ff85 	bl	8001d34 <TIM_Base_SetConfig>
  htim->State = HAL_TIM_STATE_READY;
 8001e2a:	2301      	movs	r3, #1
 8001e2c:	f884 303d 	strb.w	r3, [r4, #61]	; 0x3d
  return HAL_OK;
 8001e30:	2000      	movs	r0, #0
 8001e32:	bd10      	pop	{r4, pc}
    return HAL_ERROR;
 8001e34:	2001      	movs	r0, #1
}
 8001e36:	bd10      	pop	{r4, pc}

08001e38 <TIM_OC2_SetConfig>:
  TIMx->CCER &= ~TIM_CCER_CC2E;
 8001e38:	6a03      	ldr	r3, [r0, #32]
 8001e3a:	f023 0310 	bic.w	r3, r3, #16
 8001e3e:	6203      	str	r3, [r0, #32]
  tmpccer = TIMx->CCER;
 8001e40:	6a03      	ldr	r3, [r0, #32]
{
 8001e42:	b570      	push	{r4, r5, r6, lr}
  tmpcr2 =  TIMx->CR2;
 8001e44:	6844      	ldr	r4, [r0, #4]
  tmpccmrx = TIMx->CCMR1;
 8001e46:	6982      	ldr	r2, [r0, #24]
  tmpccmrx |= (OC_Config->OCMode << 8U);
 8001e48:	680d      	ldr	r5, [r1, #0]
  tmpccmrx &= ~TIM_CCMR1_CC2S;
 8001e4a:	f422 42e6 	bic.w	r2, r2, #29440	; 0x7300
  tmpccmrx |= (OC_Config->OCMode << 8U);
 8001e4e:	ea42 2205 	orr.w	r2, r2, r5, lsl #8
  tmpccer |= (OC_Config->OCPolarity << 4U);
 8001e52:	688d      	ldr	r5, [r1, #8]
  tmpccer &= ~TIM_CCER_CC2P;
 8001e54:	f023 0320 	bic.w	r3, r3, #32
  tmpccer |= (OC_Config->OCPolarity << 4U);
 8001e58:	ea43 1305 	orr.w	r3, r3, r5, lsl #4
  if (IS_TIM_CCXN_INSTANCE(TIMx, TIM_CHANNEL_2))
 8001e5c:	4d0b      	ldr	r5, [pc, #44]	; (8001e8c <TIM_OC2_SetConfig+0x54>)
 8001e5e:	42a8      	cmp	r0, r5
 8001e60:	d10d      	bne.n	8001e7e <TIM_OC2_SetConfig+0x46>
    tmpccer |= (OC_Config->OCNPolarity << 4U);
 8001e62:	68cd      	ldr	r5, [r1, #12]
    tmpcr2 |= (OC_Config->OCNIdleState << 2U);
 8001e64:	698e      	ldr	r6, [r1, #24]
    tmpccer &= ~TIM_CCER_CC2NP;
 8001e66:	f023 0380 	bic.w	r3, r3, #128	; 0x80
    tmpccer |= (OC_Config->OCNPolarity << 4U);
 8001e6a:	ea43 1305 	orr.w	r3, r3, r5, lsl #4
    tmpcr2 |= (OC_Config->OCIdleState << 2U);
 8001e6e:	694d      	ldr	r5, [r1, #20]
    tmpcr2 &= ~TIM_CR2_OIS2N;
 8001e70:	f424 6440 	bic.w	r4, r4, #3072	; 0xc00
    tmpcr2 |= (OC_Config->OCNIdleState << 2U);
 8001e74:	4335      	orrs	r5, r6
    tmpccer &= ~TIM_CCER_CC2NE;
 8001e76:	f023 0340 	bic.w	r3, r3, #64	; 0x40
    tmpcr2 |= (OC_Config->OCNIdleState << 2U);
 8001e7a:	ea44 0485 	orr.w	r4, r4, r5, lsl #2
  TIMx->CR2 = tmpcr2;
 8001e7e:	6044      	str	r4, [r0, #4]
  TIMx->CCMR1 = tmpccmrx;
 8001e80:	6182      	str	r2, [r0, #24]
  TIMx->CCR2 = OC_Config->Pulse;
 8001e82:	684a      	ldr	r2, [r1, #4]
 8001e84:	6382      	str	r2, [r0, #56]	; 0x38
  TIMx->CCER = tmpccer;
 8001e86:	6203      	str	r3, [r0, #32]
 8001e88:	bd70      	pop	{r4, r5, r6, pc}
 8001e8a:	bf00      	nop
 8001e8c:	40010000 	.word	0x40010000

08001e90 <HAL_TIM_PWM_ConfigChannel>:
{
 8001e90:	b538      	push	{r3, r4, r5, lr}
  __HAL_LOCK(htim);
 8001e92:	f890 303c 	ldrb.w	r3, [r0, #60]	; 0x3c
 8001e96:	2b01      	cmp	r3, #1
{
 8001e98:	4604      	mov	r4, r0
 8001e9a:	f04f 0002 	mov.w	r0, #2
  __HAL_LOCK(htim);
 8001e9e:	d025      	beq.n	8001eec <HAL_TIM_PWM_ConfigChannel+0x5c>
 8001ea0:	2301      	movs	r3, #1
 8001ea2:	f884 303c 	strb.w	r3, [r4, #60]	; 0x3c
  htim->State = HAL_TIM_STATE_BUSY;
 8001ea6:	f884 003d 	strb.w	r0, [r4, #61]	; 0x3d
  switch (Channel)
 8001eaa:	2a0c      	cmp	r2, #12
 8001eac:	d818      	bhi.n	8001ee0 <HAL_TIM_PWM_ConfigChannel+0x50>
 8001eae:	e8df f002 	tbb	[pc, r2]
 8001eb2:	1707      	.short	0x1707
 8001eb4:	171e1717 	.word	0x171e1717
 8001eb8:	172f1717 	.word	0x172f1717
 8001ebc:	1717      	.short	0x1717
 8001ebe:	40          	.byte	0x40
 8001ebf:	00          	.byte	0x00
      TIM_OC1_SetConfig(htim->Instance, sConfig);
 8001ec0:	6820      	ldr	r0, [r4, #0]
 8001ec2:	f7ff fdef 	bl	8001aa4 <TIM_OC1_SetConfig>
      htim->Instance->CCMR1 |= TIM_CCMR1_OC1PE;
 8001ec6:	6823      	ldr	r3, [r4, #0]
      htim->Instance->CCMR1 |= sConfig->OCFastMode;
 8001ec8:	6909      	ldr	r1, [r1, #16]
      htim->Instance->CCMR1 |= TIM_CCMR1_OC1PE;
 8001eca:	699a      	ldr	r2, [r3, #24]
 8001ecc:	f042 0208 	orr.w	r2, r2, #8
 8001ed0:	619a      	str	r2, [r3, #24]
      htim->Instance->CCMR1 &= ~TIM_CCMR1_OC1FE;
 8001ed2:	699a      	ldr	r2, [r3, #24]
 8001ed4:	f022 0204 	bic.w	r2, r2, #4
 8001ed8:	619a      	str	r2, [r3, #24]
      htim->Instance->CCMR1 |= sConfig->OCFastMode;
 8001eda:	699a      	ldr	r2, [r3, #24]
 8001edc:	430a      	orrs	r2, r1
      htim->Instance->CCMR1 |= sConfig->OCFastMode << 8U;
 8001ede:	619a      	str	r2, [r3, #24]
  htim->State = HAL_TIM_STATE_READY;
 8001ee0:	2301      	movs	r3, #1
  __HAL_UNLOCK(htim);
 8001ee2:	2000      	movs	r0, #0
  htim->State = HAL_TIM_STATE_READY;
 8001ee4:	f884 303d 	strb.w	r3, [r4, #61]	; 0x3d
  __HAL_UNLOCK(htim);
 8001ee8:	f884 003c 	strb.w	r0, [r4, #60]	; 0x3c
}
 8001eec:	bd38      	pop	{r3, r4, r5, pc}
      TIM_OC2_SetConfig(htim->Instance, sConfig);
 8001eee:	6820      	ldr	r0, [r4, #0]
 8001ef0:	f7ff ffa2 	bl	8001e38 <TIM_OC2_SetConfig>
      htim->Instance->CCMR1 |= TIM_CCMR1_OC2PE;
 8001ef4:	6823      	ldr	r3, [r4, #0]
      htim->Instance->CCMR1 |= sConfig->OCFastMode << 8U;
 8001ef6:	6909      	ldr	r1, [r1, #16]
      htim->Instance->CCMR1 |= TIM_CCMR1_OC2PE;
 8001ef8:	699a      	ldr	r2, [r3, #24]
 8001efa:	f442 6200 	orr.w	r2, r2, #2048	; 0x800
 8001efe:	619a      	str	r2, [r3, #24]
      htim->Instance->CCMR1 &= ~TIM_CCMR1_OC2FE;
 8001f00:	699a      	ldr	r2, [r3, #24]
 8001f02:	f422 6280 	bic.w	r2, r2, #1024	; 0x400
 8001f06:	619a      	str	r2, [r3, #24]
      htim->Instance->CCMR1 |= sConfig->OCFastMode << 8U;
 8001f08:	699a      	ldr	r2, [r3, #24]
 8001f0a:	ea42 2201 	orr.w	r2, r2, r1, lsl #8
 8001f0e:	e7e6      	b.n	8001ede <HAL_TIM_PWM_ConfigChannel+0x4e>
      TIM_OC3_SetConfig(htim->Instance, sConfig);
 8001f10:	6820      	ldr	r0, [r4, #0]
 8001f12:	f7ff fdef 	bl	8001af4 <TIM_OC3_SetConfig>
      htim->Instance->CCMR2 |= TIM_CCMR2_OC3PE;
 8001f16:	6823      	ldr	r3, [r4, #0]
      htim->Instance->CCMR2 |= sConfig->OCFastMode;
 8001f18:	6909      	ldr	r1, [r1, #16]
      htim->Instance->CCMR2 |= TIM_CCMR2_OC3PE;
 8001f1a:	69da      	ldr	r2, [r3, #28]
 8001f1c:	f042 0208 	orr.w	r2, r2, #8
 8001f20:	61da      	str	r2, [r3, #28]
      htim->Instance->CCMR2 &= ~TIM_CCMR2_OC3FE;
 8001f22:	69da      	ldr	r2, [r3, #28]
 8001f24:	f022 0204 	bic.w	r2, r2, #4
 8001f28:	61da      	str	r2, [r3, #28]
      htim->Instance->CCMR2 |= sConfig->OCFastMode;
 8001f2a:	69da      	ldr	r2, [r3, #28]
 8001f2c:	430a      	orrs	r2, r1
      htim->Instance->CCMR2 |= sConfig->OCFastMode << 8U;
 8001f2e:	61da      	str	r2, [r3, #28]
      break;
 8001f30:	e7d6      	b.n	8001ee0 <HAL_TIM_PWM_ConfigChannel+0x50>
      TIM_OC4_SetConfig(htim->Instance, sConfig);
 8001f32:	6820      	ldr	r0, [r4, #0]
 8001f34:	f7ff fe08 	bl	8001b48 <TIM_OC4_SetConfig>
      htim->Instance->CCMR2 |= TIM_CCMR2_OC4PE;
 8001f38:	6823      	ldr	r3, [r4, #0]
      htim->Instance->CCMR2 |= sConfig->OCFastMode << 8U;
 8001f3a:	6909      	ldr	r1, [r1, #16]
      htim->Instance->CCMR2 |= TIM_CCMR2_OC4PE;
 8001f3c:	69da      	ldr	r2, [r3, #28]
 8001f3e:	f442 6200 	orr.w	r2, r2, #2048	; 0x800
 8001f42:	61da      	str	r2, [r3, #28]
      htim->Instance->CCMR2 &= ~TIM_CCMR2_OC4FE;
 8001f44:	69da      	ldr	r2, [r3, #28]
 8001f46:	f422 6280 	bic.w	r2, r2, #1024	; 0x400
 8001f4a:	61da      	str	r2, [r3, #28]
      htim->Instance->CCMR2 |= sConfig->OCFastMode << 8U;
 8001f4c:	69da      	ldr	r2, [r3, #28]
 8001f4e:	ea42 2201 	orr.w	r2, r2, r1, lsl #8
 8001f52:	e7ec      	b.n	8001f2e <HAL_TIM_PWM_ConfigChannel+0x9e>

08001f54 <TIM_CCxChannelCmd>:
  assert_param(IS_TIM_CHANNELS(Channel));

  tmp = TIM_CCER_CC1E << (Channel & 0x1FU); /* 0x1FU = 31 bits max shift */

  /* Reset the CCxE Bit */
  TIMx->CCER &= ~tmp;
 8001f54:	6a03      	ldr	r3, [r0, #32]
  tmp = TIM_CCER_CC1E << (Channel & 0x1FU); /* 0x1FU = 31 bits max shift */
 8001f56:	f001 011f 	and.w	r1, r1, #31
{
 8001f5a:	b510      	push	{r4, lr}
  tmp = TIM_CCER_CC1E << (Channel & 0x1FU); /* 0x1FU = 31 bits max shift */
 8001f5c:	2401      	movs	r4, #1
 8001f5e:	408c      	lsls	r4, r1
  TIMx->CCER &= ~tmp;
 8001f60:	ea23 0304 	bic.w	r3, r3, r4
 8001f64:	6203      	str	r3, [r0, #32]

  /* Set or reset the CCxE Bit */
  TIMx->CCER |= (uint32_t)(ChannelState << (Channel & 0x1FU)); /* 0x1FU = 31 bits max shift */
 8001f66:	6a03      	ldr	r3, [r0, #32]
 8001f68:	408a      	lsls	r2, r1
 8001f6a:	431a      	orrs	r2, r3
 8001f6c:	6202      	str	r2, [r0, #32]
 8001f6e:	bd10      	pop	{r4, pc}

08001f70 <HAL_TIM_PWM_Start>:
{
 8001f70:	b510      	push	{r4, lr}
 8001f72:	4604      	mov	r4, r0
  TIM_CCxChannelCmd(htim->Instance, Channel, TIM_CCx_ENABLE);
 8001f74:	2201      	movs	r2, #1
 8001f76:	6800      	ldr	r0, [r0, #0]
 8001f78:	f7ff ffec 	bl	8001f54 <TIM_CCxChannelCmd>
  if (IS_TIM_BREAK_INSTANCE(htim->Instance) != RESET)
 8001f7c:	6823      	ldr	r3, [r4, #0]
 8001f7e:	4a09      	ldr	r2, [pc, #36]	; (8001fa4 <HAL_TIM_PWM_Start+0x34>)
 8001f80:	4293      	cmp	r3, r2
    __HAL_TIM_MOE_ENABLE(htim);
 8001f82:	bf02      	ittt	eq
 8001f84:	6c5a      	ldreq	r2, [r3, #68]	; 0x44
 8001f86:	f442 4200 	orreq.w	r2, r2, #32768	; 0x8000
 8001f8a:	645a      	streq	r2, [r3, #68]	; 0x44
  tmpsmcr = htim->Instance->SMCR & TIM_SMCR_SMS;
 8001f8c:	689a      	ldr	r2, [r3, #8]
 8001f8e:	f002 0207 	and.w	r2, r2, #7
  if (!IS_TIM_SLAVEMODE_TRIGGER_ENABLED(tmpsmcr))
 8001f92:	2a06      	cmp	r2, #6
    __HAL_TIM_ENABLE(htim);
 8001f94:	bf1e      	ittt	ne
 8001f96:	681a      	ldrne	r2, [r3, #0]
 8001f98:	f042 0201 	orrne.w	r2, r2, #1
 8001f9c:	601a      	strne	r2, [r3, #0]
}
 8001f9e:	2000      	movs	r0, #0
 8001fa0:	bd10      	pop	{r4, pc}
 8001fa2:	bf00      	nop
 8001fa4:	40010000 	.word	0x40010000

08001fa8 <HAL_TIM_PWM_Stop>:
{
 8001fa8:	b510      	push	{r4, lr}
 8001faa:	4604      	mov	r4, r0
  TIM_CCxChannelCmd(htim->Instance, Channel, TIM_CCx_DISABLE);
 8001fac:	2200      	movs	r2, #0
 8001fae:	6800      	ldr	r0, [r0, #0]
 8001fb0:	f7ff ffd0 	bl	8001f54 <TIM_CCxChannelCmd>
  if (IS_TIM_BREAK_INSTANCE(htim->Instance) != RESET)
 8001fb4:	6823      	ldr	r3, [r4, #0]
 8001fb6:	4a12      	ldr	r2, [pc, #72]	; (8002000 <HAL_TIM_PWM_Stop+0x58>)
 8001fb8:	4293      	cmp	r3, r2
 8001fba:	d10d      	bne.n	8001fd8 <HAL_TIM_PWM_Stop+0x30>
    __HAL_TIM_MOE_DISABLE(htim);
 8001fbc:	6a19      	ldr	r1, [r3, #32]
 8001fbe:	f241 1211 	movw	r2, #4369	; 0x1111
 8001fc2:	4211      	tst	r1, r2
 8001fc4:	d108      	bne.n	8001fd8 <HAL_TIM_PWM_Stop+0x30>
 8001fc6:	6a19      	ldr	r1, [r3, #32]
 8001fc8:	f240 4244 	movw	r2, #1092	; 0x444
 8001fcc:	4211      	tst	r1, r2
 8001fce:	bf02      	ittt	eq
 8001fd0:	6c5a      	ldreq	r2, [r3, #68]	; 0x44
 8001fd2:	f422 4200 	biceq.w	r2, r2, #32768	; 0x8000
 8001fd6:	645a      	streq	r2, [r3, #68]	; 0x44
  __HAL_TIM_DISABLE(htim);
 8001fd8:	6a19      	ldr	r1, [r3, #32]
 8001fda:	f241 1211 	movw	r2, #4369	; 0x1111
 8001fde:	4211      	tst	r1, r2
 8001fe0:	d108      	bne.n	8001ff4 <HAL_TIM_PWM_Stop+0x4c>
 8001fe2:	6a19      	ldr	r1, [r3, #32]
 8001fe4:	f240 4244 	movw	r2, #1092	; 0x444
 8001fe8:	4211      	tst	r1, r2
 8001fea:	bf02      	ittt	eq
 8001fec:	681a      	ldreq	r2, [r3, #0]
 8001fee:	f022 0201 	biceq.w	r2, r2, #1
 8001ff2:	601a      	streq	r2, [r3, #0]
  htim->State = HAL_TIM_STATE_READY;
 8001ff4:	2301      	movs	r3, #1
 8001ff6:	f884 303d 	strb.w	r3, [r4, #61]	; 0x3d
}
 8001ffa:	2000      	movs	r0, #0
 8001ffc:	bd10      	pop	{r4, pc}
 8001ffe:	bf00      	nop
 8002000:	40010000 	.word	0x40010000

08002004 <HAL_TIMEx_MasterConfigSynchronization>:
  assert_param(IS_TIM_SYNCHRO_INSTANCE(htim->Instance));
  assert_param(IS_TIM_TRGO_SOURCE(sMasterConfig->MasterOutputTrigger));
  assert_param(IS_TIM_MSM_STATE(sMasterConfig->MasterSlaveMode));

  /* Check input state */
  __HAL_LOCK(htim);
 8002004:	f890 303c 	ldrb.w	r3, [r0, #60]	; 0x3c
 8002008:	2b01      	cmp	r3, #1
{
 800200a:	b530      	push	{r4, r5, lr}
 800200c:	f04f 0302 	mov.w	r3, #2
  __HAL_LOCK(htim);
 8002010:	d014      	beq.n	800203c <HAL_TIMEx_MasterConfigSynchronization+0x38>

  /* Change the handler state */
  htim->State = HAL_TIM_STATE_BUSY;

  /* Get the TIMx CR2 register value */
  tmpcr2 = htim->Instance->CR2;
 8002012:	6804      	ldr	r4, [r0, #0]
  htim->State = HAL_TIM_STATE_BUSY;
 8002014:	f880 303d 	strb.w	r3, [r0, #61]	; 0x3d
  tmpcr2 = htim->Instance->CR2;
 8002018:	6862      	ldr	r2, [r4, #4]

  /* Get the TIMx SMCR register value */
  tmpsmcr = htim->Instance->SMCR;
 800201a:	68a3      	ldr	r3, [r4, #8]

  /* Reset the MMS Bits */
  tmpcr2 &= ~TIM_CR2_MMS;
  /* Select the TRGO source */
  tmpcr2 |=  sMasterConfig->MasterOutputTrigger;
 800201c:	680d      	ldr	r5, [r1, #0]

  /* Reset the MSM Bit */
  tmpsmcr &= ~TIM_SMCR_MSM;
  /* Set master mode */
  tmpsmcr |= sMasterConfig->MasterSlaveMode;
 800201e:	6849      	ldr	r1, [r1, #4]
  tmpcr2 &= ~TIM_CR2_MMS;
 8002020:	f022 0270 	bic.w	r2, r2, #112	; 0x70
  tmpsmcr &= ~TIM_SMCR_MSM;
 8002024:	f023 0380 	bic.w	r3, r3, #128	; 0x80
  tmpsmcr |= sMasterConfig->MasterSlaveMode;
 8002028:	430b      	orrs	r3, r1
  tmpcr2 |=  sMasterConfig->MasterOutputTrigger;
 800202a:	432a      	orrs	r2, r5

  /* Update TIMx CR2 */
  htim->Instance->CR2 = tmpcr2;
 800202c:	6062      	str	r2, [r4, #4]

  /* Update TIMx SMCR */
  htim->Instance->SMCR = tmpsmcr;
 800202e:	60a3      	str	r3, [r4, #8]

  /* Change the htim state */
  htim->State = HAL_TIM_STATE_READY;
 8002030:	2301      	movs	r3, #1
 8002032:	f880 303d 	strb.w	r3, [r0, #61]	; 0x3d

  __HAL_UNLOCK(htim);
 8002036:	2300      	movs	r3, #0
 8002038:	f880 303c 	strb.w	r3, [r0, #60]	; 0x3c
  __HAL_LOCK(htim);
 800203c:	4618      	mov	r0, r3

  return HAL_OK;
}
 800203e:	bd30      	pop	{r4, r5, pc}

08002040 <HAL_TIMEx_CommutCallback>:
 8002040:	4770      	bx	lr

08002042 <HAL_TIMEx_BreakCallback>:
  * @brief  Hall Break detection callback in non-blocking mode
  * @param  htim TIM handle
  * @retval None
  */
__weak void HAL_TIMEx_BreakCallback(TIM_HandleTypeDef *htim)
{
 8002042:	4770      	bx	lr

08002044 <UART_SetConfig>:
  * @param  huart  Pointer to a UART_HandleTypeDef structure that contains
  *                the configuration information for the specified UART module.
  * @retval None
  */
static void UART_SetConfig(UART_HandleTypeDef *huart)
{
 8002044:	e92d 47f0 	stmdb	sp!, {r4, r5, r6, r7, r8, r9, sl, lr}
  assert_param(IS_UART_MODE(huart->Init.Mode));

  /*-------------------------- USART CR2 Configuration -----------------------*/
  /* Configure the UART Stop Bits: Set STOP[13:12] bits
     according to huart->Init.StopBits value */
  MODIFY_REG(huart->Instance->CR2, USART_CR2_STOP, huart->Init.StopBits);
 8002048:	6806      	ldr	r6, [r0, #0]
 800204a:	68c2      	ldr	r2, [r0, #12]
 800204c:	6933      	ldr	r3, [r6, #16]
     Set the M bits according to huart->Init.WordLength value
     Set PCE and PS bits according to huart->Init.Parity value
     Set TE and RE bits according to huart->Init.Mode value
     Set OVER8 bit according to huart->Init.OverSampling value */

  tmpreg = (uint32_t)huart->Init.WordLength | huart->Init.Parity | huart->Init.Mode | huart->Init.OverSampling;
 800204e:	69c1      	ldr	r1, [r0, #28]
  MODIFY_REG(huart->Instance->CR2, USART_CR2_STOP, huart->Init.StopBits);
 8002050:	f423 5340 	bic.w	r3, r3, #12288	; 0x3000
 8002054:	4313      	orrs	r3, r2
 8002056:	6133      	str	r3, [r6, #16]
{
 8002058:	4604      	mov	r4, r0
  tmpreg = (uint32_t)huart->Init.WordLength | huart->Init.Parity | huart->Init.Mode | huart->Init.OverSampling;
 800205a:	6883      	ldr	r3, [r0, #8]
 800205c:	6900      	ldr	r0, [r0, #16]
  MODIFY_REG(huart->Instance->CR1,
 800205e:	68f2      	ldr	r2, [r6, #12]
  tmpreg = (uint32_t)huart->Init.WordLength | huart->Init.Parity | huart->Init.Mode | huart->Init.OverSampling;
 8002060:	4303      	orrs	r3, r0
 8002062:	6960      	ldr	r0, [r4, #20]
  MODIFY_REG(huart->Instance->CR1,
 8002064:	f422 4216 	bic.w	r2, r2, #38400	; 0x9600
  tmpreg = (uint32_t)huart->Init.WordLength | huart->Init.Parity | huart->Init.Mode | huart->Init.OverSampling;
 8002068:	4303      	orrs	r3, r0
  MODIFY_REG(huart->Instance->CR1,
 800206a:	f022 020c 	bic.w	r2, r2, #12
  tmpreg = (uint32_t)huart->Init.WordLength | huart->Init.Parity | huart->Init.Mode | huart->Init.OverSampling;
 800206e:	430b      	orrs	r3, r1
  MODIFY_REG(huart->Instance->CR1,
 8002070:	4313      	orrs	r3, r2
 8002072:	60f3      	str	r3, [r6, #12]
             (uint32_t)(USART_CR1_M | USART_CR1_PCE | USART_CR1_PS | USART_CR1_TE | USART_CR1_RE | USART_CR1_OVER8),
             tmpreg);

  /*-------------------------- USART CR3 Configuration -----------------------*/
  /* Configure the UART HFC: Set CTSE and RTSE bits according to huart->Init.HwFlowCtl value */
  MODIFY_REG(huart->Instance->CR3, (USART_CR3_RTSE | USART_CR3_CTSE), huart->Init.HwFlowCtl);
 8002074:	6973      	ldr	r3, [r6, #20]
 8002076:	69a2      	ldr	r2, [r4, #24]
 8002078:	f423 7340 	bic.w	r3, r3, #768	; 0x300
 800207c:	4313      	orrs	r3, r2

  /* Check the Over Sampling */
  if (huart->Init.OverSampling == UART_OVERSAMPLING_8)
 800207e:	f5b1 4f00 	cmp.w	r1, #32768	; 0x8000
  MODIFY_REG(huart->Instance->CR3, (USART_CR3_RTSE | USART_CR3_CTSE), huart->Init.HwFlowCtl);
 8002082:	6173      	str	r3, [r6, #20]
 8002084:	4b7a      	ldr	r3, [pc, #488]	; (8002270 <UART_SetConfig+0x22c>)
  if (huart->Init.OverSampling == UART_OVERSAMPLING_8)
 8002086:	d17c      	bne.n	8002182 <UART_SetConfig+0x13e>
  {
    /*-------------------------- USART BRR Configuration ---------------------*/
#if defined(USART6)
    if ((huart->Instance == USART1) || (huart->Instance == USART6))
 8002088:	429e      	cmp	r6, r3
 800208a:	d003      	beq.n	8002094 <UART_SetConfig+0x50>
 800208c:	f503 6380 	add.w	r3, r3, #1024	; 0x400
 8002090:	429e      	cmp	r6, r3
 8002092:	d144      	bne.n	800211e <UART_SetConfig+0xda>
    {
      huart->Instance->BRR = UART_BRR_SAMPLING8(HAL_RCC_GetPCLK2Freq(), huart->Init.BaudRate);
 8002094:	f7ff fcd8 	bl	8001a48 <HAL_RCC_GetPCLK2Freq>
 8002098:	2519      	movs	r5, #25
 800209a:	fb05 f300 	mul.w	r3, r5, r0
 800209e:	6860      	ldr	r0, [r4, #4]
 80020a0:	f04f 0964 	mov.w	r9, #100	; 0x64
 80020a4:	0040      	lsls	r0, r0, #1
 80020a6:	fbb3 f3f0 	udiv	r3, r3, r0
 80020aa:	fbb3 f3f9 	udiv	r3, r3, r9
 80020ae:	ea4f 1803 	mov.w	r8, r3, lsl #4
 80020b2:	f7ff fcc9 	bl	8001a48 <HAL_RCC_GetPCLK2Freq>
 80020b6:	6863      	ldr	r3, [r4, #4]
 80020b8:	4368      	muls	r0, r5
 80020ba:	005b      	lsls	r3, r3, #1
 80020bc:	fbb0 f7f3 	udiv	r7, r0, r3
 80020c0:	f7ff fcc2 	bl	8001a48 <HAL_RCC_GetPCLK2Freq>
 80020c4:	6863      	ldr	r3, [r4, #4]
 80020c6:	4368      	muls	r0, r5
 80020c8:	005b      	lsls	r3, r3, #1
 80020ca:	fbb0 f3f3 	udiv	r3, r0, r3
 80020ce:	fbb3 f3f9 	udiv	r3, r3, r9
 80020d2:	fb09 7313 	mls	r3, r9, r3, r7
 80020d6:	00db      	lsls	r3, r3, #3
 80020d8:	3332      	adds	r3, #50	; 0x32
 80020da:	fbb3 f3f9 	udiv	r3, r3, r9
 80020de:	005b      	lsls	r3, r3, #1
 80020e0:	f403 77f8 	and.w	r7, r3, #496	; 0x1f0
 80020e4:	f7ff fcb0 	bl	8001a48 <HAL_RCC_GetPCLK2Freq>
 80020e8:	6862      	ldr	r2, [r4, #4]
 80020ea:	4368      	muls	r0, r5
 80020ec:	0052      	lsls	r2, r2, #1
 80020ee:	fbb0 faf2 	udiv	sl, r0, r2
 80020f2:	f7ff fca9 	bl	8001a48 <HAL_RCC_GetPCLK2Freq>
      huart->Instance->BRR = UART_BRR_SAMPLING8(HAL_RCC_GetPCLK2Freq(), huart->Init.BaudRate);
    }
#endif /* USART6 */
    else
    {
      huart->Instance->BRR = UART_BRR_SAMPLING8(HAL_RCC_GetPCLK1Freq(), huart->Init.BaudRate);
 80020f6:	6863      	ldr	r3, [r4, #4]
 80020f8:	4368      	muls	r0, r5
 80020fa:	005b      	lsls	r3, r3, #1
 80020fc:	fbb0 f3f3 	udiv	r3, r0, r3
 8002100:	fbb3 f3f9 	udiv	r3, r3, r9
 8002104:	fb09 a313 	mls	r3, r9, r3, sl
 8002108:	00db      	lsls	r3, r3, #3
 800210a:	3332      	adds	r3, #50	; 0x32
 800210c:	fbb3 f3f9 	udiv	r3, r3, r9
 8002110:	f003 0307 	and.w	r3, r3, #7
 8002114:	4443      	add	r3, r8
      huart->Instance->BRR = UART_BRR_SAMPLING16(HAL_RCC_GetPCLK2Freq(), huart->Init.BaudRate);
    }
#endif /* USART6 */
    else
    {
      huart->Instance->BRR = UART_BRR_SAMPLING16(HAL_RCC_GetPCLK1Freq(), huart->Init.BaudRate);
 8002116:	443b      	add	r3, r7
 8002118:	60b3      	str	r3, [r6, #8]
 800211a:	e8bd 87f0 	ldmia.w	sp!, {r4, r5, r6, r7, r8, r9, sl, pc}
      huart->Instance->BRR = UART_BRR_SAMPLING8(HAL_RCC_GetPCLK1Freq(), huart->Init.BaudRate);
 800211e:	f7ff fc83 	bl	8001a28 <HAL_RCC_GetPCLK1Freq>
 8002122:	2519      	movs	r5, #25
 8002124:	fb05 f300 	mul.w	r3, r5, r0
 8002128:	6860      	ldr	r0, [r4, #4]
 800212a:	f04f 0964 	mov.w	r9, #100	; 0x64
 800212e:	0040      	lsls	r0, r0, #1
 8002130:	fbb3 f3f0 	udiv	r3, r3, r0
 8002134:	fbb3 f3f9 	udiv	r3, r3, r9
 8002138:	ea4f 1803 	mov.w	r8, r3, lsl #4
 800213c:	f7ff fc74 	bl	8001a28 <HAL_RCC_GetPCLK1Freq>
 8002140:	6863      	ldr	r3, [r4, #4]
 8002142:	4368      	muls	r0, r5
 8002144:	005b      	lsls	r3, r3, #1
 8002146:	fbb0 f7f3 	udiv	r7, r0, r3
 800214a:	f7ff fc6d 	bl	8001a28 <HAL_RCC_GetPCLK1Freq>
 800214e:	6863      	ldr	r3, [r4, #4]
 8002150:	4368      	muls	r0, r5
 8002152:	005b      	lsls	r3, r3, #1
 8002154:	fbb0 f3f3 	udiv	r3, r0, r3
 8002158:	fbb3 f3f9 	udiv	r3, r3, r9
 800215c:	fb09 7313 	mls	r3, r9, r3, r7
 8002160:	00db      	lsls	r3, r3, #3
 8002162:	3332      	adds	r3, #50	; 0x32
 8002164:	fbb3 f3f9 	udiv	r3, r3, r9
 8002168:	005b      	lsls	r3, r3, #1
 800216a:	f403 77f8 	and.w	r7, r3, #496	; 0x1f0
 800216e:	f7ff fc5b 	bl	8001a28 <HAL_RCC_GetPCLK1Freq>
 8002172:	6862      	ldr	r2, [r4, #4]
 8002174:	4368      	muls	r0, r5
 8002176:	0052      	lsls	r2, r2, #1
 8002178:	fbb0 faf2 	udiv	sl, r0, r2
 800217c:	f7ff fc54 	bl	8001a28 <HAL_RCC_GetPCLK1Freq>
 8002180:	e7b9      	b.n	80020f6 <UART_SetConfig+0xb2>
    if ((huart->Instance == USART1) || (huart->Instance == USART6))
 8002182:	429e      	cmp	r6, r3
 8002184:	d002      	beq.n	800218c <UART_SetConfig+0x148>
 8002186:	4b3b      	ldr	r3, [pc, #236]	; (8002274 <UART_SetConfig+0x230>)
 8002188:	429e      	cmp	r6, r3
 800218a:	d140      	bne.n	800220e <UART_SetConfig+0x1ca>
      huart->Instance->BRR = UART_BRR_SAMPLING16(HAL_RCC_GetPCLK2Freq(), huart->Init.BaudRate);
 800218c:	f7ff fc5c 	bl	8001a48 <HAL_RCC_GetPCLK2Freq>
 8002190:	6867      	ldr	r7, [r4, #4]
 8002192:	2519      	movs	r5, #25
 8002194:	f04f 0964 	mov.w	r9, #100	; 0x64
 8002198:	fb05 f300 	mul.w	r3, r5, r0
 800219c:	00bf      	lsls	r7, r7, #2
 800219e:	fbb3 f3f7 	udiv	r3, r3, r7
 80021a2:	fbb3 f3f9 	udiv	r3, r3, r9
 80021a6:	011f      	lsls	r7, r3, #4
 80021a8:	f7ff fc4e 	bl	8001a48 <HAL_RCC_GetPCLK2Freq>
 80021ac:	6863      	ldr	r3, [r4, #4]
 80021ae:	4368      	muls	r0, r5
 80021b0:	009b      	lsls	r3, r3, #2
 80021b2:	fbb0 f8f3 	udiv	r8, r0, r3
 80021b6:	f7ff fc47 	bl	8001a48 <HAL_RCC_GetPCLK2Freq>
 80021ba:	6863      	ldr	r3, [r4, #4]
 80021bc:	4368      	muls	r0, r5
 80021be:	009b      	lsls	r3, r3, #2
 80021c0:	fbb0 f3f3 	udiv	r3, r0, r3
 80021c4:	fbb3 f3f9 	udiv	r3, r3, r9
 80021c8:	fb09 8313 	mls	r3, r9, r3, r8
 80021cc:	011b      	lsls	r3, r3, #4
 80021ce:	3332      	adds	r3, #50	; 0x32
 80021d0:	fbb3 f3f9 	udiv	r3, r3, r9
 80021d4:	f003 08f0 	and.w	r8, r3, #240	; 0xf0
 80021d8:	f7ff fc36 	bl	8001a48 <HAL_RCC_GetPCLK2Freq>
 80021dc:	6862      	ldr	r2, [r4, #4]
 80021de:	4368      	muls	r0, r5
 80021e0:	0092      	lsls	r2, r2, #2
 80021e2:	fbb0 faf2 	udiv	sl, r0, r2
 80021e6:	f7ff fc2f 	bl	8001a48 <HAL_RCC_GetPCLK2Freq>
      huart->Instance->BRR = UART_BRR_SAMPLING16(HAL_RCC_GetPCLK1Freq(), huart->Init.BaudRate);
 80021ea:	6863      	ldr	r3, [r4, #4]
 80021ec:	4368      	muls	r0, r5
 80021ee:	009b      	lsls	r3, r3, #2
 80021f0:	fbb0 f3f3 	udiv	r3, r0, r3
 80021f4:	fbb3 f3f9 	udiv	r3, r3, r9
 80021f8:	fb09 a313 	mls	r3, r9, r3, sl
 80021fc:	011b      	lsls	r3, r3, #4
 80021fe:	3332      	adds	r3, #50	; 0x32
 8002200:	fbb3 f3f9 	udiv	r3, r3, r9
 8002204:	f003 030f 	and.w	r3, r3, #15
 8002208:	ea43 0308 	orr.w	r3, r3, r8
 800220c:	e783      	b.n	8002116 <UART_SetConfig+0xd2>
 800220e:	f7ff fc0b 	bl	8001a28 <HAL_RCC_GetPCLK1Freq>
 8002212:	6867      	ldr	r7, [r4, #4]
 8002214:	2519      	movs	r5, #25
 8002216:	f04f 0964 	mov.w	r9, #100	; 0x64
 800221a:	fb05 f300 	mul.w	r3, r5, r0
 800221e:	00bf      	lsls	r7, r7, #2
 8002220:	fbb3 f3f7 	udiv	r3, r3, r7
 8002224:	fbb3 f3f9 	udiv	r3, r3, r9
 8002228:	011f      	lsls	r7, r3, #4
 800222a:	f7ff fbfd 	bl	8001a28 <HAL_RCC_GetPCLK1Freq>
 800222e:	6863      	ldr	r3, [r4, #4]
 8002230:	4368      	muls	r0, r5
 8002232:	009b      	lsls	r3, r3, #2
 8002234:	fbb0 f8f3 	udiv	r8, r0, r3
 8002238:	f7ff fbf6 	bl	8001a28 <HAL_RCC_GetPCLK1Freq>
 800223c:	6863      	ldr	r3, [r4, #4]
 800223e:	4368      	muls	r0, r5
 8002240:	009b      	lsls	r3, r3, #2
 8002242:	fbb0 f3f3 	udiv	r3, r0, r3
 8002246:	fbb3 f3f9 	udiv	r3, r3, r9
 800224a:	fb09 8313 	mls	r3, r9, r3, r8
 800224e:	011b      	lsls	r3, r3, #4
 8002250:	3332      	adds	r3, #50	; 0x32
 8002252:	fbb3 f3f9 	udiv	r3, r3, r9
 8002256:	f003 08f0 	and.w	r8, r3, #240	; 0xf0
 800225a:	f7ff fbe5 	bl	8001a28 <HAL_RCC_GetPCLK1Freq>
 800225e:	6862      	ldr	r2, [r4, #4]
 8002260:	4368      	muls	r0, r5
 8002262:	0092      	lsls	r2, r2, #2
 8002264:	fbb0 faf2 	udiv	sl, r0, r2
 8002268:	f7ff fbde 	bl	8001a28 <HAL_RCC_GetPCLK1Freq>
 800226c:	e7bd      	b.n	80021ea <UART_SetConfig+0x1a6>
 800226e:	bf00      	nop
 8002270:	40011000 	.word	0x40011000
 8002274:	40011400 	.word	0x40011400

08002278 <UART_WaitOnFlagUntilTimeout.constprop.3>:
static HAL_StatusTypeDef UART_WaitOnFlagUntilTimeout(UART_HandleTypeDef *huart, uint32_t Flag, FlagStatus Status, uint32_t Tickstart, uint32_t Timeout)
 8002278:	b5f8      	push	{r3, r4, r5, r6, r7, lr}
 800227a:	4604      	mov	r4, r0
 800227c:	460e      	mov	r6, r1
 800227e:	4617      	mov	r7, r2
 8002280:	461d      	mov	r5, r3
  while ((__HAL_UART_GET_FLAG(huart, Flag) ? SET : RESET) == Status)
 8002282:	6821      	ldr	r1, [r4, #0]
 8002284:	680b      	ldr	r3, [r1, #0]
 8002286:	ea36 0303 	bics.w	r3, r6, r3
 800228a:	d101      	bne.n	8002290 <UART_WaitOnFlagUntilTimeout.constprop.3+0x18>
  return HAL_OK;
 800228c:	2000      	movs	r0, #0
}
 800228e:	bdf8      	pop	{r3, r4, r5, r6, r7, pc}
    if (Timeout != HAL_MAX_DELAY)
 8002290:	1c6b      	adds	r3, r5, #1
 8002292:	d0f7      	beq.n	8002284 <UART_WaitOnFlagUntilTimeout.constprop.3+0xc>
      if ((Timeout == 0U) || ((HAL_GetTick() - Tickstart) > Timeout))
 8002294:	b995      	cbnz	r5, 80022bc <UART_WaitOnFlagUntilTimeout.constprop.3+0x44>
        CLEAR_BIT(huart->Instance->CR1, (USART_CR1_RXNEIE | USART_CR1_PEIE | USART_CR1_TXEIE));
 8002296:	6823      	ldr	r3, [r4, #0]
 8002298:	68da      	ldr	r2, [r3, #12]
 800229a:	f422 72d0 	bic.w	r2, r2, #416	; 0x1a0
 800229e:	60da      	str	r2, [r3, #12]
        CLEAR_BIT(huart->Instance->CR3, USART_CR3_EIE);
 80022a0:	695a      	ldr	r2, [r3, #20]
 80022a2:	f022 0201 	bic.w	r2, r2, #1
 80022a6:	615a      	str	r2, [r3, #20]
        huart->gState  = HAL_UART_STATE_READY;
 80022a8:	2320      	movs	r3, #32
 80022aa:	f884 3039 	strb.w	r3, [r4, #57]	; 0x39
        huart->RxState = HAL_UART_STATE_READY;
 80022ae:	f884 303a 	strb.w	r3, [r4, #58]	; 0x3a
        __HAL_UNLOCK(huart);
 80022b2:	2300      	movs	r3, #0
 80022b4:	f884 3038 	strb.w	r3, [r4, #56]	; 0x38
 80022b8:	2003      	movs	r0, #3
 80022ba:	bdf8      	pop	{r3, r4, r5, r6, r7, pc}
      if ((Timeout == 0U) || ((HAL_GetTick() - Tickstart) > Timeout))
 80022bc:	f7fe ff88 	bl	80011d0 <HAL_GetTick>
 80022c0:	1bc0      	subs	r0, r0, r7
 80022c2:	4285      	cmp	r5, r0
 80022c4:	d2dd      	bcs.n	8002282 <UART_WaitOnFlagUntilTimeout.constprop.3+0xa>
 80022c6:	e7e6      	b.n	8002296 <UART_WaitOnFlagUntilTimeout.constprop.3+0x1e>

080022c8 <HAL_UART_Init>:
{
 80022c8:	b510      	push	{r4, lr}
  if (huart == NULL)
 80022ca:	4604      	mov	r4, r0
 80022cc:	b340      	cbz	r0, 8002320 <HAL_UART_Init+0x58>
  if (huart->gState == HAL_UART_STATE_RESET)
 80022ce:	f890 3039 	ldrb.w	r3, [r0, #57]	; 0x39
 80022d2:	f003 02ff 	and.w	r2, r3, #255	; 0xff
 80022d6:	b91b      	cbnz	r3, 80022e0 <HAL_UART_Init+0x18>
    huart->Lock = HAL_UNLOCKED;
 80022d8:	f880 2038 	strb.w	r2, [r0, #56]	; 0x38
    HAL_UART_MspInit(huart);
 80022dc:	f001 fd26 	bl	8003d2c <HAL_UART_MspInit>
  __HAL_UART_DISABLE(huart);
 80022e0:	6822      	ldr	r2, [r4, #0]
  huart->gState = HAL_UART_STATE_BUSY;
 80022e2:	2324      	movs	r3, #36	; 0x24
 80022e4:	f884 3039 	strb.w	r3, [r4, #57]	; 0x39
  __HAL_UART_DISABLE(huart);
 80022e8:	68d3      	ldr	r3, [r2, #12]
 80022ea:	f423 5300 	bic.w	r3, r3, #8192	; 0x2000
 80022ee:	60d3      	str	r3, [r2, #12]
  UART_SetConfig(huart);
 80022f0:	4620      	mov	r0, r4
 80022f2:	f7ff fea7 	bl	8002044 <UART_SetConfig>
  CLEAR_BIT(huart->Instance->CR2, (USART_CR2_LINEN | USART_CR2_CLKEN));
 80022f6:	6823      	ldr	r3, [r4, #0]
 80022f8:	691a      	ldr	r2, [r3, #16]
 80022fa:	f422 4290 	bic.w	r2, r2, #18432	; 0x4800
 80022fe:	611a      	str	r2, [r3, #16]
  CLEAR_BIT(huart->Instance->CR3, (USART_CR3_SCEN | USART_CR3_HDSEL | USART_CR3_IREN));
 8002300:	695a      	ldr	r2, [r3, #20]
 8002302:	f022 022a 	bic.w	r2, r2, #42	; 0x2a
 8002306:	615a      	str	r2, [r3, #20]
  __HAL_UART_ENABLE(huart);
 8002308:	68da      	ldr	r2, [r3, #12]
 800230a:	f442 5200 	orr.w	r2, r2, #8192	; 0x2000
 800230e:	60da      	str	r2, [r3, #12]
  huart->ErrorCode = HAL_UART_ERROR_NONE;
 8002310:	2000      	movs	r0, #0
  huart->gState = HAL_UART_STATE_READY;
 8002312:	2320      	movs	r3, #32
  huart->ErrorCode = HAL_UART_ERROR_NONE;
 8002314:	63e0      	str	r0, [r4, #60]	; 0x3c
  huart->gState = HAL_UART_STATE_READY;
 8002316:	f884 3039 	strb.w	r3, [r4, #57]	; 0x39
  huart->RxState = HAL_UART_STATE_READY;
 800231a:	f884 303a 	strb.w	r3, [r4, #58]	; 0x3a
  return HAL_OK;
 800231e:	bd10      	pop	{r4, pc}
    return HAL_ERROR;
 8002320:	2001      	movs	r0, #1
}
 8002322:	bd10      	pop	{r4, pc}

08002324 <HAL_UART_Transmit>:
{
 8002324:	e92d 41f0 	stmdb	sp!, {r4, r5, r6, r7, r8, lr}
 8002328:	461f      	mov	r7, r3
  if (huart->gState == HAL_UART_STATE_READY)
 800232a:	f890 3039 	ldrb.w	r3, [r0, #57]	; 0x39
 800232e:	2b20      	cmp	r3, #32
{
 8002330:	4604      	mov	r4, r0
 8002332:	460d      	mov	r5, r1
 8002334:	4690      	mov	r8, r2
  if (huart->gState == HAL_UART_STATE_READY)
 8002336:	d14f      	bne.n	80023d8 <HAL_UART_Transmit+0xb4>
    if ((pData == NULL) || (Size == 0U))
 8002338:	2900      	cmp	r1, #0
 800233a:	d04a      	beq.n	80023d2 <HAL_UART_Transmit+0xae>
 800233c:	2a00      	cmp	r2, #0
 800233e:	d048      	beq.n	80023d2 <HAL_UART_Transmit+0xae>
    __HAL_LOCK(huart);
 8002340:	f890 3038 	ldrb.w	r3, [r0, #56]	; 0x38
 8002344:	2b01      	cmp	r3, #1
 8002346:	d047      	beq.n	80023d8 <HAL_UART_Transmit+0xb4>
 8002348:	2301      	movs	r3, #1
 800234a:	f880 3038 	strb.w	r3, [r0, #56]	; 0x38
    huart->ErrorCode = HAL_UART_ERROR_NONE;
 800234e:	2300      	movs	r3, #0
 8002350:	63c3      	str	r3, [r0, #60]	; 0x3c
    huart->gState = HAL_UART_STATE_BUSY_TX;
 8002352:	2321      	movs	r3, #33	; 0x21
 8002354:	f880 3039 	strb.w	r3, [r0, #57]	; 0x39
    tickstart = HAL_GetTick();
 8002358:	f7fe ff3a 	bl	80011d0 <HAL_GetTick>
    huart->TxXferSize = Size;
 800235c:	f8a4 8024 	strh.w	r8, [r4, #36]	; 0x24
    tickstart = HAL_GetTick();
 8002360:	4606      	mov	r6, r0
    huart->TxXferCount = Size;
 8002362:	f8a4 8026 	strh.w	r8, [r4, #38]	; 0x26
    while (huart->TxXferCount > 0U)
 8002366:	8ce3      	ldrh	r3, [r4, #38]	; 0x26
 8002368:	b29b      	uxth	r3, r3
 800236a:	b96b      	cbnz	r3, 8002388 <HAL_UART_Transmit+0x64>
    if (UART_WaitOnFlagUntilTimeout(huart, UART_FLAG_TC, RESET, tickstart, Timeout) != HAL_OK)
 800236c:	463b      	mov	r3, r7
 800236e:	4632      	mov	r2, r6
 8002370:	2140      	movs	r1, #64	; 0x40
 8002372:	4620      	mov	r0, r4
 8002374:	f7ff ff80 	bl	8002278 <UART_WaitOnFlagUntilTimeout.constprop.3>
 8002378:	b9b0      	cbnz	r0, 80023a8 <HAL_UART_Transmit+0x84>
    huart->gState = HAL_UART_STATE_READY;
 800237a:	2320      	movs	r3, #32
 800237c:	f884 3039 	strb.w	r3, [r4, #57]	; 0x39
    __HAL_UNLOCK(huart);
 8002380:	f884 0038 	strb.w	r0, [r4, #56]	; 0x38
    return HAL_OK;
 8002384:	e8bd 81f0 	ldmia.w	sp!, {r4, r5, r6, r7, r8, pc}
      huart->TxXferCount--;
 8002388:	8ce3      	ldrh	r3, [r4, #38]	; 0x26
 800238a:	3b01      	subs	r3, #1
 800238c:	b29b      	uxth	r3, r3
 800238e:	84e3      	strh	r3, [r4, #38]	; 0x26
      if (huart->Init.WordLength == UART_WORDLENGTH_9B)
 8002390:	68a3      	ldr	r3, [r4, #8]
 8002392:	f5b3 5f80 	cmp.w	r3, #4096	; 0x1000
        if (UART_WaitOnFlagUntilTimeout(huart, UART_FLAG_TXE, RESET, tickstart, Timeout) != HAL_OK)
 8002396:	4632      	mov	r2, r6
 8002398:	463b      	mov	r3, r7
 800239a:	f04f 0180 	mov.w	r1, #128	; 0x80
 800239e:	4620      	mov	r0, r4
      if (huart->Init.WordLength == UART_WORDLENGTH_9B)
 80023a0:	d10e      	bne.n	80023c0 <HAL_UART_Transmit+0x9c>
        if (UART_WaitOnFlagUntilTimeout(huart, UART_FLAG_TXE, RESET, tickstart, Timeout) != HAL_OK)
 80023a2:	f7ff ff69 	bl	8002278 <UART_WaitOnFlagUntilTimeout.constprop.3>
 80023a6:	b110      	cbz	r0, 80023ae <HAL_UART_Transmit+0x8a>
          return HAL_TIMEOUT;
 80023a8:	2003      	movs	r0, #3
 80023aa:	e8bd 81f0 	ldmia.w	sp!, {r4, r5, r6, r7, r8, pc}
        huart->Instance->DR = (*tmp & (uint16_t)0x01FF);
 80023ae:	882b      	ldrh	r3, [r5, #0]
 80023b0:	6822      	ldr	r2, [r4, #0]
 80023b2:	f3c3 0308 	ubfx	r3, r3, #0, #9
 80023b6:	6053      	str	r3, [r2, #4]
        if (huart->Init.Parity == UART_PARITY_NONE)
 80023b8:	6923      	ldr	r3, [r4, #16]
 80023ba:	b943      	cbnz	r3, 80023ce <HAL_UART_Transmit+0xaa>
          pData += 2U;
 80023bc:	3502      	adds	r5, #2
 80023be:	e7d2      	b.n	8002366 <HAL_UART_Transmit+0x42>
        if (UART_WaitOnFlagUntilTimeout(huart, UART_FLAG_TXE, RESET, tickstart, Timeout) != HAL_OK)
 80023c0:	f7ff ff5a 	bl	8002278 <UART_WaitOnFlagUntilTimeout.constprop.3>
 80023c4:	2800      	cmp	r0, #0
 80023c6:	d1ef      	bne.n	80023a8 <HAL_UART_Transmit+0x84>
        huart->Instance->DR = (*pData++ & (uint8_t)0xFF);
 80023c8:	6823      	ldr	r3, [r4, #0]
 80023ca:	782a      	ldrb	r2, [r5, #0]
 80023cc:	605a      	str	r2, [r3, #4]
 80023ce:	3501      	adds	r5, #1
 80023d0:	e7c9      	b.n	8002366 <HAL_UART_Transmit+0x42>
      return  HAL_ERROR;
 80023d2:	2001      	movs	r0, #1
 80023d4:	e8bd 81f0 	ldmia.w	sp!, {r4, r5, r6, r7, r8, pc}
    return HAL_BUSY;
 80023d8:	2002      	movs	r0, #2
}
 80023da:	e8bd 81f0 	ldmia.w	sp!, {r4, r5, r6, r7, r8, pc}

080023de <HAL_UART_Receive>:
{
 80023de:	e92d 41f0 	stmdb	sp!, {r4, r5, r6, r7, r8, lr}
 80023e2:	461f      	mov	r7, r3
  if (huart->RxState == HAL_UART_STATE_READY)
 80023e4:	f890 303a 	ldrb.w	r3, [r0, #58]	; 0x3a
 80023e8:	2b20      	cmp	r3, #32
{
 80023ea:	4604      	mov	r4, r0
 80023ec:	460d      	mov	r5, r1
 80023ee:	4690      	mov	r8, r2
  if (huart->RxState == HAL_UART_STATE_READY)
 80023f0:	d152      	bne.n	8002498 <HAL_UART_Receive+0xba>
    if ((pData == NULL) || (Size == 0U))
 80023f2:	2900      	cmp	r1, #0
 80023f4:	d04d      	beq.n	8002492 <HAL_UART_Receive+0xb4>
 80023f6:	2a00      	cmp	r2, #0
 80023f8:	d04b      	beq.n	8002492 <HAL_UART_Receive+0xb4>
    __HAL_LOCK(huart);
 80023fa:	f890 3038 	ldrb.w	r3, [r0, #56]	; 0x38
 80023fe:	2b01      	cmp	r3, #1
 8002400:	d04a      	beq.n	8002498 <HAL_UART_Receive+0xba>
 8002402:	2301      	movs	r3, #1
 8002404:	f880 3038 	strb.w	r3, [r0, #56]	; 0x38
    huart->ErrorCode = HAL_UART_ERROR_NONE;
 8002408:	2300      	movs	r3, #0
 800240a:	63c3      	str	r3, [r0, #60]	; 0x3c
    huart->RxState = HAL_UART_STATE_BUSY_RX;
 800240c:	2322      	movs	r3, #34	; 0x22
 800240e:	f880 303a 	strb.w	r3, [r0, #58]	; 0x3a
    tickstart = HAL_GetTick();
 8002412:	f7fe fedd 	bl	80011d0 <HAL_GetTick>
    huart->RxXferSize = Size;
 8002416:	f8a4 802c 	strh.w	r8, [r4, #44]	; 0x2c
    tickstart = HAL_GetTick();
 800241a:	4606      	mov	r6, r0
    huart->RxXferCount = Size;
 800241c:	f8a4 802e 	strh.w	r8, [r4, #46]	; 0x2e
    while (huart->RxXferCount > 0U)
 8002420:	8de0      	ldrh	r0, [r4, #46]	; 0x2e
 8002422:	b280      	uxth	r0, r0
 8002424:	b930      	cbnz	r0, 8002434 <HAL_UART_Receive+0x56>
    huart->RxState = HAL_UART_STATE_READY;
 8002426:	2320      	movs	r3, #32
 8002428:	f884 303a 	strb.w	r3, [r4, #58]	; 0x3a
    __HAL_UNLOCK(huart);
 800242c:	f884 0038 	strb.w	r0, [r4, #56]	; 0x38
    return HAL_OK;
 8002430:	e8bd 81f0 	ldmia.w	sp!, {r4, r5, r6, r7, r8, pc}
      huart->RxXferCount--;
 8002434:	8de3      	ldrh	r3, [r4, #46]	; 0x2e
 8002436:	3b01      	subs	r3, #1
 8002438:	b29b      	uxth	r3, r3
 800243a:	85e3      	strh	r3, [r4, #46]	; 0x2e
      if (huart->Init.WordLength == UART_WORDLENGTH_9B)
 800243c:	68a3      	ldr	r3, [r4, #8]
 800243e:	f5b3 5f80 	cmp.w	r3, #4096	; 0x1000
        if (UART_WaitOnFlagUntilTimeout(huart, UART_FLAG_RXNE, RESET, tickstart, Timeout) != HAL_OK)
 8002442:	4632      	mov	r2, r6
 8002444:	463b      	mov	r3, r7
 8002446:	f04f 0120 	mov.w	r1, #32
 800244a:	4620      	mov	r0, r4
      if (huart->Init.WordLength == UART_WORDLENGTH_9B)
 800244c:	d112      	bne.n	8002474 <HAL_UART_Receive+0x96>
        if (UART_WaitOnFlagUntilTimeout(huart, UART_FLAG_RXNE, RESET, tickstart, Timeout) != HAL_OK)
 800244e:	f7ff ff13 	bl	8002278 <UART_WaitOnFlagUntilTimeout.constprop.3>
 8002452:	b110      	cbz	r0, 800245a <HAL_UART_Receive+0x7c>
          return HAL_TIMEOUT;
 8002454:	2003      	movs	r0, #3
 8002456:	e8bd 81f0 	ldmia.w	sp!, {r4, r5, r6, r7, r8, pc}
 800245a:	6823      	ldr	r3, [r4, #0]
        if (huart->Init.Parity == UART_PARITY_NONE)
 800245c:	6922      	ldr	r2, [r4, #16]
          *tmp = (uint16_t)(huart->Instance->DR & (uint16_t)0x01FF);
 800245e:	685b      	ldr	r3, [r3, #4]
        if (huart->Init.Parity == UART_PARITY_NONE)
 8002460:	b922      	cbnz	r2, 800246c <HAL_UART_Receive+0x8e>
          *tmp = (uint16_t)(huart->Instance->DR & (uint16_t)0x01FF);
 8002462:	f3c3 0308 	ubfx	r3, r3, #0, #9
 8002466:	f825 3b02 	strh.w	r3, [r5], #2
 800246a:	e7d9      	b.n	8002420 <HAL_UART_Receive+0x42>
          *tmp = (uint16_t)(huart->Instance->DR & (uint16_t)0x00FF);
 800246c:	b2db      	uxtb	r3, r3
 800246e:	f825 3b01 	strh.w	r3, [r5], #1
 8002472:	e7d5      	b.n	8002420 <HAL_UART_Receive+0x42>
        if (UART_WaitOnFlagUntilTimeout(huart, UART_FLAG_RXNE, RESET, tickstart, Timeout) != HAL_OK)
 8002474:	f7ff ff00 	bl	8002278 <UART_WaitOnFlagUntilTimeout.constprop.3>
 8002478:	2800      	cmp	r0, #0
 800247a:	d1eb      	bne.n	8002454 <HAL_UART_Receive+0x76>
 800247c:	6823      	ldr	r3, [r4, #0]
        if (huart->Init.Parity == UART_PARITY_NONE)
 800247e:	6921      	ldr	r1, [r4, #16]
          *pData++ = (uint8_t)(huart->Instance->DR & (uint8_t)0x00FF);
 8002480:	685b      	ldr	r3, [r3, #4]
 8002482:	1c6a      	adds	r2, r5, #1
        if (huart->Init.Parity == UART_PARITY_NONE)
 8002484:	b911      	cbnz	r1, 800248c <HAL_UART_Receive+0xae>
          *pData++ = (uint8_t)(huart->Instance->DR & (uint8_t)0x007F);
 8002486:	702b      	strb	r3, [r5, #0]
 8002488:	4615      	mov	r5, r2
 800248a:	e7c9      	b.n	8002420 <HAL_UART_Receive+0x42>
 800248c:	f003 037f 	and.w	r3, r3, #127	; 0x7f
 8002490:	e7f9      	b.n	8002486 <HAL_UART_Receive+0xa8>
      return  HAL_ERROR;
 8002492:	2001      	movs	r0, #1
 8002494:	e8bd 81f0 	ldmia.w	sp!, {r4, r5, r6, r7, r8, pc}
    return HAL_BUSY;
 8002498:	2002      	movs	r0, #2
}
 800249a:	e8bd 81f0 	ldmia.w	sp!, {r4, r5, r6, r7, r8, pc}

0800249e <osKernelStart>:
* @param  argument      pointer that is passed to the thread function as start argument.
* @retval status code that indicates the execution status of the function
* @note   MUST REMAIN UNCHANGED: \b osKernelStart shall be consistent in every CMSIS-RTOS.
*/
osStatus osKernelStart (void)
{
 800249e:	b508      	push	{r3, lr}
  vTaskStartScheduler();
 80024a0:	f000 fef8 	bl	8003294 <vTaskStartScheduler>
  
  return osOK;
}
 80024a4:	2000      	movs	r0, #0
 80024a6:	bd08      	pop	{r3, pc}

080024a8 <osThreadCreate>:
* @param  argument      pointer that is passed to the thread function as start argument.
* @retval thread ID for reference by other functions or NULL in case of error.
* @note   MUST REMAIN UNCHANGED: \b osThreadCreate shall be consistent in every CMSIS-RTOS.
*/
osThreadId osThreadCreate (const osThreadDef_t *thread_def, void *argument)
{
 80024a8:	b570      	push	{r4, r5, r6, lr}
 80024aa:	4605      	mov	r5, r0
  TaskHandle_t handle;
  
#if( configSUPPORT_STATIC_ALLOCATION == 1 ) &&  ( configSUPPORT_DYNAMIC_ALLOCATION == 1 )
  if((thread_def->buffer != NULL) && (thread_def->controlblock != NULL)) {
 80024ac:	6946      	ldr	r6, [r0, #20]
 80024ae:	692a      	ldr	r2, [r5, #16]
 80024b0:	6840      	ldr	r0, [r0, #4]
 80024b2:	f9b5 4008 	ldrsh.w	r4, [r5, #8]
{
 80024b6:	460b      	mov	r3, r1
 80024b8:	b086      	sub	sp, #24
 80024ba:	6829      	ldr	r1, [r5, #0]
  if((thread_def->buffer != NULL) && (thread_def->controlblock != NULL)) {
 80024bc:	b176      	cbz	r6, 80024dc <osThreadCreate+0x34>
 80024be:	69ad      	ldr	r5, [r5, #24]
 80024c0:	b165      	cbz	r5, 80024dc <osThreadCreate+0x34>
  if (priority != osPriorityError) {
 80024c2:	2c84      	cmp	r4, #132	; 0x84
    fpriority += (priority - osPriorityIdle);
 80024c4:	bf14      	ite	ne
 80024c6:	3403      	addne	r4, #3
  unsigned portBASE_TYPE fpriority = tskIDLE_PRIORITY;
 80024c8:	2400      	moveq	r4, #0
    handle = xTaskCreateStatic((TaskFunction_t)thread_def->pthread,(const portCHAR *)thread_def->name,
 80024ca:	9502      	str	r5, [sp, #8]
 80024cc:	e88d 0050 	stmia.w	sp, {r4, r6}
 80024d0:	f000 fe7c 	bl	80031cc <xTaskCreateStatic>
 80024d4:	9005      	str	r0, [sp, #20]
                   &handle) != pdPASS)  {
    return NULL;
  }     
#endif
  
  return handle;
 80024d6:	9805      	ldr	r0, [sp, #20]
}
 80024d8:	b006      	add	sp, #24
 80024da:	bd70      	pop	{r4, r5, r6, pc}
  if (priority != osPriorityError) {
 80024dc:	2c84      	cmp	r4, #132	; 0x84
    fpriority += (priority - osPriorityIdle);
 80024de:	bf14      	ite	ne
 80024e0:	3403      	addne	r4, #3
  unsigned portBASE_TYPE fpriority = tskIDLE_PRIORITY;
 80024e2:	2400      	moveq	r4, #0
    if (xTaskCreate((TaskFunction_t)thread_def->pthread,(const portCHAR *)thread_def->name,
 80024e4:	ad05      	add	r5, sp, #20
 80024e6:	b292      	uxth	r2, r2
 80024e8:	e88d 0030 	stmia.w	sp, {r4, r5}
 80024ec:	f000 fea5 	bl	800323a <xTaskCreate>
 80024f0:	2801      	cmp	r0, #1
 80024f2:	d0f0      	beq.n	80024d6 <osThreadCreate+0x2e>
      return NULL;
 80024f4:	2000      	movs	r0, #0
 80024f6:	e7ef      	b.n	80024d8 <osThreadCreate+0x30>

080024f8 <osDelay>:
* @brief   Wait for Timeout (Time Delay)
* @param   millisec      time delay value
* @retval  status code that indicates the execution status of the function.
*/
osStatus osDelay (uint32_t millisec)
{
 80024f8:	b508      	push	{r3, lr}
#if INCLUDE_vTaskDelay
  TickType_t ticks = millisec / portTICK_PERIOD_MS;
  
  vTaskDelay(ticks ? ticks : 1);          /* Minimum delay = 1 tick */
 80024fa:	2800      	cmp	r0, #0
 80024fc:	bf08      	it	eq
 80024fe:	2001      	moveq	r0, #1
 8002500:	f001 f810 	bl	8003524 <vTaskDelay>
#else
  (void) millisec;
  
  return osErrorResource;
#endif
}
 8002504:	2000      	movs	r0, #0
 8002506:	bd08      	pop	{r3, pc}

08002508 <vListInitialise>:
void vListInitialise( List_t * const pxList )
{
	/* The list structure contains a list item which is used to mark the
	end of the list.  To initialise the list the list end is inserted
	as the only list entry. */
	pxList->pxIndex = ( ListItem_t * ) &( pxList->xListEnd );			/*lint !e826 !e740 The mini list structure is used as the list end to save RAM.  This is checked and valid. */
 8002508:	f100 0308 	add.w	r3, r0, #8
 800250c:	6043      	str	r3, [r0, #4]

	/* The list end value is the highest possible value in the list to
	ensure it remains at the end of the list. */
	pxList->xListEnd.xItemValue = portMAX_DELAY;
 800250e:	f04f 32ff 	mov.w	r2, #4294967295	; 0xffffffff

	/* The list end next and previous pointers point to itself so we know
	when the list is empty. */
	pxList->xListEnd.pxNext = ( ListItem_t * ) &( pxList->xListEnd );	/*lint !e826 !e740 The mini list structure is used as the list end to save RAM.  This is checked and valid. */
 8002512:	60c3      	str	r3, [r0, #12]
	pxList->xListEnd.pxPrevious = ( ListItem_t * ) &( pxList->xListEnd );/*lint !e826 !e740 The mini list structure is used as the list end to save RAM.  This is checked and valid. */
 8002514:	6103      	str	r3, [r0, #16]

	pxList->uxNumberOfItems = ( UBaseType_t ) 0U;
 8002516:	2300      	movs	r3, #0
	pxList->xListEnd.xItemValue = portMAX_DELAY;
 8002518:	6082      	str	r2, [r0, #8]
	pxList->uxNumberOfItems = ( UBaseType_t ) 0U;
 800251a:	6003      	str	r3, [r0, #0]
 800251c:	4770      	bx	lr

0800251e <vListInitialiseItem>:
/*-----------------------------------------------------------*/

void vListInitialiseItem( ListItem_t * const pxItem )
{
	/* Make sure the list item is not recorded as being on a list. */
	pxItem->pvContainer = NULL;
 800251e:	2300      	movs	r3, #0
 8002520:	6103      	str	r3, [r0, #16]
 8002522:	4770      	bx	lr

08002524 <vListInsertEnd>:
}
/*-----------------------------------------------------------*/

void vListInsertEnd( List_t * const pxList, ListItem_t * const pxNewListItem )
{
ListItem_t * const pxIndex = pxList->pxIndex;
 8002524:	6843      	ldr	r3, [r0, #4]
	listTEST_LIST_ITEM_INTEGRITY( pxNewListItem );

	/* Insert a new list item into pxList, but rather than sort the list,
	makes the new list item the last item to be removed by a call to
	listGET_OWNER_OF_NEXT_ENTRY(). */
	pxNewListItem->pxNext = pxIndex;
 8002526:	604b      	str	r3, [r1, #4]
	pxNewListItem->pxPrevious = pxIndex->pxPrevious;
 8002528:	689a      	ldr	r2, [r3, #8]
 800252a:	608a      	str	r2, [r1, #8]

	/* Only used during decision coverage testing. */
	mtCOVERAGE_TEST_DELAY();

	pxIndex->pxPrevious->pxNext = pxNewListItem;
 800252c:	689a      	ldr	r2, [r3, #8]
 800252e:	6051      	str	r1, [r2, #4]
	pxIndex->pxPrevious = pxNewListItem;
 8002530:	6099      	str	r1, [r3, #8]

	/* Remember which list the item is in. */
	pxNewListItem->pvContainer = ( void * ) pxList;

	( pxList->uxNumberOfItems )++;
 8002532:	6803      	ldr	r3, [r0, #0]
	pxNewListItem->pvContainer = ( void * ) pxList;
 8002534:	6108      	str	r0, [r1, #16]
	( pxList->uxNumberOfItems )++;
 8002536:	3301      	adds	r3, #1
 8002538:	6003      	str	r3, [r0, #0]
 800253a:	4770      	bx	lr

0800253c <vListInsert>:
/*-----------------------------------------------------------*/

void vListInsert( List_t * const pxList, ListItem_t * const pxNewListItem )
{
ListItem_t *pxIterator;
const TickType_t xValueOfInsertion = pxNewListItem->xItemValue;
 800253c:	680a      	ldr	r2, [r1, #0]
	new list item should be placed after it.  This ensures that TCB's which are
	stored in ready lists (all of which have the same xItemValue value) get a
	share of the CPU.  However, if the xItemValue is the same as the back marker
	the iteration loop below will not end.  Therefore the value is checked
	first, and the algorithm slightly modified if necessary. */
	if( xValueOfInsertion == portMAX_DELAY )
 800253e:	1c53      	adds	r3, r2, #1
{
 8002540:	b530      	push	{r4, r5, lr}
	if( xValueOfInsertion == portMAX_DELAY )
 8002542:	d10a      	bne.n	800255a <vListInsert+0x1e>
	{
		pxIterator = pxList->xListEnd.pxPrevious;
 8002544:	6903      	ldr	r3, [r0, #16]
			/* There is nothing to do here, just iterating to the wanted
			insertion position. */
		}
	}

	pxNewListItem->pxNext = pxIterator->pxNext;
 8002546:	685a      	ldr	r2, [r3, #4]
 8002548:	604a      	str	r2, [r1, #4]
	pxNewListItem->pxNext->pxPrevious = pxNewListItem;
 800254a:	6091      	str	r1, [r2, #8]
	pxNewListItem->pxPrevious = pxIterator;
 800254c:	608b      	str	r3, [r1, #8]
	pxIterator->pxNext = pxNewListItem;
 800254e:	6059      	str	r1, [r3, #4]

	/* Remember which list the item is in.  This allows fast removal of the
	item later. */
	pxNewListItem->pvContainer = ( void * ) pxList;

	( pxList->uxNumberOfItems )++;
 8002550:	6803      	ldr	r3, [r0, #0]
	pxNewListItem->pvContainer = ( void * ) pxList;
 8002552:	6108      	str	r0, [r1, #16]
	( pxList->uxNumberOfItems )++;
 8002554:	3301      	adds	r3, #1
 8002556:	6003      	str	r3, [r0, #0]
 8002558:	bd30      	pop	{r4, r5, pc}
		for( pxIterator = ( ListItem_t * ) &( pxList->xListEnd ); pxIterator->pxNext->xItemValue <= xValueOfInsertion; pxIterator = pxIterator->pxNext ) /*lint !e826 !e740 The mini list structure is used as the list end to save RAM.  This is checked and valid. */
 800255a:	f100 0308 	add.w	r3, r0, #8
 800255e:	685c      	ldr	r4, [r3, #4]
 8002560:	6825      	ldr	r5, [r4, #0]
 8002562:	42aa      	cmp	r2, r5
 8002564:	d3ef      	bcc.n	8002546 <vListInsert+0xa>
 8002566:	4623      	mov	r3, r4
 8002568:	e7f9      	b.n	800255e <vListInsert+0x22>

0800256a <uxListRemove>:
{
/* The list item knows which list it is in.  Obtain the list from the list
item. */
List_t * const pxList = ( List_t * ) pxItemToRemove->pvContainer;

	pxItemToRemove->pxNext->pxPrevious = pxItemToRemove->pxPrevious;
 800256a:	6841      	ldr	r1, [r0, #4]
 800256c:	6882      	ldr	r2, [r0, #8]
List_t * const pxList = ( List_t * ) pxItemToRemove->pvContainer;
 800256e:	6903      	ldr	r3, [r0, #16]
	pxItemToRemove->pxNext->pxPrevious = pxItemToRemove->pxPrevious;
 8002570:	608a      	str	r2, [r1, #8]
	pxItemToRemove->pxPrevious->pxNext = pxItemToRemove->pxNext;
 8002572:	6882      	ldr	r2, [r0, #8]
 8002574:	6051      	str	r1, [r2, #4]

	/* Only used during decision coverage testing. */
	mtCOVERAGE_TEST_DELAY();

	/* Make sure the index is left pointing to a valid item. */
	if( pxList->pxIndex == pxItemToRemove )
 8002576:	6859      	ldr	r1, [r3, #4]
 8002578:	4288      	cmp	r0, r1
	{
		pxList->pxIndex = pxItemToRemove->pxPrevious;
 800257a:	bf08      	it	eq
 800257c:	605a      	streq	r2, [r3, #4]
	else
	{
		mtCOVERAGE_TEST_MARKER();
	}

	pxItemToRemove->pvContainer = NULL;
 800257e:	2200      	movs	r2, #0
 8002580:	6102      	str	r2, [r0, #16]
	( pxList->uxNumberOfItems )--;
 8002582:	681a      	ldr	r2, [r3, #0]
 8002584:	3a01      	subs	r2, #1
 8002586:	601a      	str	r2, [r3, #0]

	return pxList->uxNumberOfItems;
 8002588:	6818      	ldr	r0, [r3, #0]
}
 800258a:	4770      	bx	lr

0800258c <prvTaskExitError>:
	return pxTopOfStack;
}
/*-----------------------------------------------------------*/

static void prvTaskExitError( void )
{
 800258c:	b082      	sub	sp, #8
volatile uint32_t ulDummy = 0;
 800258e:	2300      	movs	r3, #0
 8002590:	9301      	str	r3, [sp, #4]
	its caller as there is nothing to return to.  If a task wants to exit it
	should instead call vTaskDelete( NULL ).

	Artificially force an assert() to be triggered if configASSERT() is
	defined, then stop here so application writers can catch the error. */
	configASSERT( uxCriticalNesting == ~0UL );
 8002592:	4b0d      	ldr	r3, [pc, #52]	; (80025c8 <prvTaskExitError+0x3c>)
 8002594:	681b      	ldr	r3, [r3, #0]
 8002596:	3301      	adds	r3, #1
 8002598:	d008      	beq.n	80025ac <prvTaskExitError+0x20>

portFORCE_INLINE static void vPortRaiseBASEPRI( void )
{
uint32_t ulNewBASEPRI;

	__asm volatile
 800259a:	f04f 0350 	mov.w	r3, #80	; 0x50
 800259e:	f383 8811 	msr	BASEPRI, r3
 80025a2:	f3bf 8f6f 	isb	sy
 80025a6:	f3bf 8f4f 	dsb	sy
 80025aa:	e7fe      	b.n	80025aa <prvTaskExitError+0x1e>
 80025ac:	f04f 0350 	mov.w	r3, #80	; 0x50
 80025b0:	f383 8811 	msr	BASEPRI, r3
 80025b4:	f3bf 8f6f 	isb	sy
 80025b8:	f3bf 8f4f 	dsb	sy
	portDISABLE_INTERRUPTS();
	while( ulDummy == 0 )
 80025bc:	9b01      	ldr	r3, [sp, #4]
 80025be:	2b00      	cmp	r3, #0
 80025c0:	d0fc      	beq.n	80025bc <prvTaskExitError+0x30>
		about code appearing after this function is called - making ulDummy
		volatile makes the compiler think the function could return and
		therefore not output an 'unreachable code' warning for code that appears
		after it. */
	}
}
 80025c2:	b002      	add	sp, #8
 80025c4:	4770      	bx	lr
 80025c6:	bf00      	nop
 80025c8:	2000016c 	.word	0x2000016c

080025cc <prvPortStartFirstTask>:
{
	/* Start the first task.  This also clears the bit that indicates the FPU is
	in use in case the FPU was used before the scheduler was started - which
	would otherwise result in the unnecessary leaving of space in the SVC stack
	for lazy saving of FPU registers. */
	__asm volatile(
 80025cc:	4808      	ldr	r0, [pc, #32]	; (80025f0 <prvPortStartFirstTask+0x24>)
 80025ce:	6800      	ldr	r0, [r0, #0]
 80025d0:	6800      	ldr	r0, [r0, #0]
 80025d2:	f380 8808 	msr	MSP, r0
 80025d6:	f04f 0000 	mov.w	r0, #0
 80025da:	f380 8814 	msr	CONTROL, r0
 80025de:	b662      	cpsie	i
 80025e0:	b661      	cpsie	f
 80025e2:	f3bf 8f4f 	dsb	sy
 80025e6:	f3bf 8f6f 	isb	sy
 80025ea:	df00      	svc	0
 80025ec:	bf00      	nop
 80025ee:	0000      	.short	0x0000
 80025f0:	e000ed08 	.word	0xe000ed08

080025f4 <vPortEnableVFP>:
/*-----------------------------------------------------------*/

/* This is a naked function. */
static void vPortEnableVFP( void )
{
	__asm volatile
 80025f4:	f8df 000c 	ldr.w	r0, [pc, #12]	; 8002604 <vPortEnableVFP+0x10>
 80025f8:	6801      	ldr	r1, [r0, #0]
 80025fa:	f441 0170 	orr.w	r1, r1, #15728640	; 0xf00000
 80025fe:	6001      	str	r1, [r0, #0]
 8002600:	4770      	bx	lr
 8002602:	0000      	.short	0x0000
 8002604:	e000ed88 	.word	0xe000ed88

08002608 <pxPortInitialiseStack>:
	*pxTopOfStack = portINITIAL_XPSR;	/* xPSR */
 8002608:	f04f 7380 	mov.w	r3, #16777216	; 0x1000000
 800260c:	f840 3c04 	str.w	r3, [r0, #-4]
	*pxTopOfStack = ( StackType_t ) portTASK_RETURN_ADDRESS;	/* LR */
 8002610:	4b07      	ldr	r3, [pc, #28]	; (8002630 <pxPortInitialiseStack+0x28>)
 8002612:	f840 3c0c 	str.w	r3, [r0, #-12]
	*pxTopOfStack = ( ( StackType_t ) pxCode ) & portSTART_ADDRESS_MASK;	/* PC */
 8002616:	f021 0101 	bic.w	r1, r1, #1
	*pxTopOfStack = portINITIAL_EXC_RETURN;
 800261a:	f06f 0302 	mvn.w	r3, #2
	*pxTopOfStack = ( ( StackType_t ) pxCode ) & portSTART_ADDRESS_MASK;	/* PC */
 800261e:	f840 1c08 	str.w	r1, [r0, #-8]
	*pxTopOfStack = ( StackType_t ) pvParameters;	/* R0 */
 8002622:	f840 2c20 	str.w	r2, [r0, #-32]
	*pxTopOfStack = portINITIAL_EXC_RETURN;
 8002626:	f840 3c24 	str.w	r3, [r0, #-36]
}
 800262a:	3844      	subs	r0, #68	; 0x44
 800262c:	4770      	bx	lr
 800262e:	bf00      	nop
 8002630:	0800258d 	.word	0x0800258d
	...

08002640 <SVC_Handler>:
	__asm volatile (
 8002640:	4b07      	ldr	r3, [pc, #28]	; (8002660 <pxCurrentTCBConst2>)
 8002642:	6819      	ldr	r1, [r3, #0]
 8002644:	6808      	ldr	r0, [r1, #0]
 8002646:	e8b0 4ff0 	ldmia.w	r0!, {r4, r5, r6, r7, r8, r9, sl, fp, lr}
 800264a:	f380 8809 	msr	PSP, r0
 800264e:	f3bf 8f6f 	isb	sy
 8002652:	f04f 0000 	mov.w	r0, #0
 8002656:	f380 8811 	msr	BASEPRI, r0
 800265a:	4770      	bx	lr
 800265c:	f3af 8000 	nop.w

08002660 <pxCurrentTCBConst2>:
 8002660:	20003fb0 	.word	0x20003fb0

08002664 <vPortEnterCritical>:
 8002664:	f04f 0350 	mov.w	r3, #80	; 0x50
 8002668:	f383 8811 	msr	BASEPRI, r3
 800266c:	f3bf 8f6f 	isb	sy
 8002670:	f3bf 8f4f 	dsb	sy
	uxCriticalNesting++;
 8002674:	4a0a      	ldr	r2, [pc, #40]	; (80026a0 <vPortEnterCritical+0x3c>)
 8002676:	6813      	ldr	r3, [r2, #0]
 8002678:	3301      	adds	r3, #1
	if( uxCriticalNesting == 1 )
 800267a:	2b01      	cmp	r3, #1
	uxCriticalNesting++;
 800267c:	6013      	str	r3, [r2, #0]
	if( uxCriticalNesting == 1 )
 800267e:	d10d      	bne.n	800269c <vPortEnterCritical+0x38>
		configASSERT( ( portNVIC_INT_CTRL_REG & portVECTACTIVE_MASK ) == 0 );
 8002680:	4b08      	ldr	r3, [pc, #32]	; (80026a4 <vPortEnterCritical+0x40>)
 8002682:	681b      	ldr	r3, [r3, #0]
 8002684:	f013 0fff 	tst.w	r3, #255	; 0xff
 8002688:	d008      	beq.n	800269c <vPortEnterCritical+0x38>
 800268a:	f04f 0350 	mov.w	r3, #80	; 0x50
 800268e:	f383 8811 	msr	BASEPRI, r3
 8002692:	f3bf 8f6f 	isb	sy
 8002696:	f3bf 8f4f 	dsb	sy
 800269a:	e7fe      	b.n	800269a <vPortEnterCritical+0x36>
 800269c:	4770      	bx	lr
 800269e:	bf00      	nop
 80026a0:	2000016c 	.word	0x2000016c
 80026a4:	e000ed04 	.word	0xe000ed04

080026a8 <vPortExitCritical>:
	configASSERT( uxCriticalNesting );
 80026a8:	4a08      	ldr	r2, [pc, #32]	; (80026cc <vPortExitCritical+0x24>)
 80026aa:	6813      	ldr	r3, [r2, #0]
 80026ac:	b943      	cbnz	r3, 80026c0 <vPortExitCritical+0x18>
 80026ae:	f04f 0350 	mov.w	r3, #80	; 0x50
 80026b2:	f383 8811 	msr	BASEPRI, r3
 80026b6:	f3bf 8f6f 	isb	sy
 80026ba:	f3bf 8f4f 	dsb	sy
 80026be:	e7fe      	b.n	80026be <vPortExitCritical+0x16>
	uxCriticalNesting--;
 80026c0:	3b01      	subs	r3, #1
 80026c2:	6013      	str	r3, [r2, #0]
	if( uxCriticalNesting == 0 )
 80026c4:	b90b      	cbnz	r3, 80026ca <vPortExitCritical+0x22>
}
/*-----------------------------------------------------------*/

portFORCE_INLINE static void vPortSetBASEPRI( uint32_t ulNewMaskValue )
{
	__asm volatile
 80026c6:	f383 8811 	msr	BASEPRI, r3
 80026ca:	4770      	bx	lr
 80026cc:	2000016c 	.word	0x2000016c

080026d0 <PendSV_Handler>:
	__asm volatile
 80026d0:	f3ef 8009 	mrs	r0, PSP
 80026d4:	f3bf 8f6f 	isb	sy
 80026d8:	4b15      	ldr	r3, [pc, #84]	; (8002730 <pxCurrentTCBConst>)
 80026da:	681a      	ldr	r2, [r3, #0]
 80026dc:	f01e 0f10 	tst.w	lr, #16
 80026e0:	bf08      	it	eq
 80026e2:	ed20 8a10 	vstmdbeq	r0!, {s16-s31}
 80026e6:	e920 4ff0 	stmdb	r0!, {r4, r5, r6, r7, r8, r9, sl, fp, lr}
 80026ea:	6010      	str	r0, [r2, #0]
 80026ec:	e92d 0009 	stmdb	sp!, {r0, r3}
 80026f0:	f04f 0050 	mov.w	r0, #80	; 0x50
 80026f4:	f380 8811 	msr	BASEPRI, r0
 80026f8:	f3bf 8f4f 	dsb	sy
 80026fc:	f3bf 8f6f 	isb	sy
 8002700:	f000 ff34 	bl	800356c <vTaskSwitchContext>
 8002704:	f04f 0000 	mov.w	r0, #0
 8002708:	f380 8811 	msr	BASEPRI, r0
 800270c:	bc09      	pop	{r0, r3}
 800270e:	6819      	ldr	r1, [r3, #0]
 8002710:	6808      	ldr	r0, [r1, #0]
 8002712:	e8b0 4ff0 	ldmia.w	r0!, {r4, r5, r6, r7, r8, r9, sl, fp, lr}
 8002716:	f01e 0f10 	tst.w	lr, #16
 800271a:	bf08      	it	eq
 800271c:	ecb0 8a10 	vldmiaeq	r0!, {s16-s31}
 8002720:	f380 8809 	msr	PSP, r0
 8002724:	f3bf 8f6f 	isb	sy
 8002728:	4770      	bx	lr
 800272a:	bf00      	nop
 800272c:	f3af 8000 	nop.w

08002730 <pxCurrentTCBConst>:
 8002730:	20003fb0 	.word	0x20003fb0

08002734 <SysTick_Handler>:
{
 8002734:	b508      	push	{r3, lr}
	__asm volatile
 8002736:	f04f 0350 	mov.w	r3, #80	; 0x50
 800273a:	f383 8811 	msr	BASEPRI, r3
 800273e:	f3bf 8f6f 	isb	sy
 8002742:	f3bf 8f4f 	dsb	sy
		if( xTaskIncrementTick() != pdFALSE )
 8002746:	f000 fde3 	bl	8003310 <xTaskIncrementTick>
 800274a:	b118      	cbz	r0, 8002754 <SysTick_Handler+0x20>
			portNVIC_INT_CTRL_REG = portNVIC_PENDSVSET_BIT;
 800274c:	4b03      	ldr	r3, [pc, #12]	; (800275c <SysTick_Handler+0x28>)
 800274e:	f04f 5280 	mov.w	r2, #268435456	; 0x10000000
 8002752:	601a      	str	r2, [r3, #0]
	__asm volatile
 8002754:	2300      	movs	r3, #0
 8002756:	f383 8811 	msr	BASEPRI, r3
 800275a:	bd08      	pop	{r3, pc}
 800275c:	e000ed04 	.word	0xe000ed04

08002760 <vPortSetupTimerInterrupt>:
	portNVIC_SYSTICK_CTRL_REG = 0UL;
 8002760:	4a08      	ldr	r2, [pc, #32]	; (8002784 <vPortSetupTimerInterrupt+0x24>)
	portNVIC_SYSTICK_CURRENT_VALUE_REG = 0UL;
 8002762:	4909      	ldr	r1, [pc, #36]	; (8002788 <vPortSetupTimerInterrupt+0x28>)
	portNVIC_SYSTICK_CTRL_REG = 0UL;
 8002764:	2300      	movs	r3, #0
 8002766:	6013      	str	r3, [r2, #0]
	portNVIC_SYSTICK_CURRENT_VALUE_REG = 0UL;
 8002768:	600b      	str	r3, [r1, #0]
	portNVIC_SYSTICK_LOAD_REG = ( configSYSTICK_CLOCK_HZ / configTICK_RATE_HZ ) - 1UL;
 800276a:	4b08      	ldr	r3, [pc, #32]	; (800278c <vPortSetupTimerInterrupt+0x2c>)
 800276c:	f44f 717a 	mov.w	r1, #1000	; 0x3e8
 8002770:	681b      	ldr	r3, [r3, #0]
 8002772:	fbb3 f3f1 	udiv	r3, r3, r1
 8002776:	4906      	ldr	r1, [pc, #24]	; (8002790 <vPortSetupTimerInterrupt+0x30>)
 8002778:	3b01      	subs	r3, #1
 800277a:	600b      	str	r3, [r1, #0]
	portNVIC_SYSTICK_CTRL_REG = ( portNVIC_SYSTICK_CLK_BIT | portNVIC_SYSTICK_INT_BIT | portNVIC_SYSTICK_ENABLE_BIT );
 800277c:	2307      	movs	r3, #7
 800277e:	6013      	str	r3, [r2, #0]
 8002780:	4770      	bx	lr
 8002782:	bf00      	nop
 8002784:	e000e010 	.word	0xe000e010
 8002788:	e000e018 	.word	0xe000e018
 800278c:	20000198 	.word	0x20000198
 8002790:	e000e014 	.word	0xe000e014

08002794 <xPortStartScheduler>:
	configASSERT( portCPUID != portCORTEX_M7_r0p1_ID );
 8002794:	4b39      	ldr	r3, [pc, #228]	; (800287c <xPortStartScheduler+0xe8>)
 8002796:	4a3a      	ldr	r2, [pc, #232]	; (8002880 <xPortStartScheduler+0xec>)
{
 8002798:	b513      	push	{r0, r1, r4, lr}
	configASSERT( portCPUID != portCORTEX_M7_r0p1_ID );
 800279a:	6819      	ldr	r1, [r3, #0]
 800279c:	4291      	cmp	r1, r2
 800279e:	d108      	bne.n	80027b2 <xPortStartScheduler+0x1e>
	__asm volatile
 80027a0:	f04f 0350 	mov.w	r3, #80	; 0x50
 80027a4:	f383 8811 	msr	BASEPRI, r3
 80027a8:	f3bf 8f6f 	isb	sy
 80027ac:	f3bf 8f4f 	dsb	sy
 80027b0:	e7fe      	b.n	80027b0 <xPortStartScheduler+0x1c>
	configASSERT( portCPUID != portCORTEX_M7_r0p0_ID );
 80027b2:	681a      	ldr	r2, [r3, #0]
 80027b4:	4b33      	ldr	r3, [pc, #204]	; (8002884 <xPortStartScheduler+0xf0>)
 80027b6:	429a      	cmp	r2, r3
 80027b8:	d108      	bne.n	80027cc <xPortStartScheduler+0x38>
 80027ba:	f04f 0350 	mov.w	r3, #80	; 0x50
 80027be:	f383 8811 	msr	BASEPRI, r3
 80027c2:	f3bf 8f6f 	isb	sy
 80027c6:	f3bf 8f4f 	dsb	sy
 80027ca:	e7fe      	b.n	80027ca <xPortStartScheduler+0x36>
		ulOriginalPriority = *pucFirstUserPriorityRegister;
 80027cc:	4b2e      	ldr	r3, [pc, #184]	; (8002888 <xPortStartScheduler+0xf4>)
 80027ce:	781a      	ldrb	r2, [r3, #0]
 80027d0:	b2d2      	uxtb	r2, r2
 80027d2:	9201      	str	r2, [sp, #4]
		*pucFirstUserPriorityRegister = portMAX_8_BIT_VALUE;
 80027d4:	22ff      	movs	r2, #255	; 0xff
 80027d6:	701a      	strb	r2, [r3, #0]
		ucMaxPriorityValue = *pucFirstUserPriorityRegister;
 80027d8:	781b      	ldrb	r3, [r3, #0]
		ucMaxSysCallPriority = configMAX_SYSCALL_INTERRUPT_PRIORITY & ucMaxPriorityValue;
 80027da:	4a2c      	ldr	r2, [pc, #176]	; (800288c <xPortStartScheduler+0xf8>)
		ucMaxPriorityValue = *pucFirstUserPriorityRegister;
 80027dc:	b2db      	uxtb	r3, r3
 80027de:	f88d 3003 	strb.w	r3, [sp, #3]
		ucMaxSysCallPriority = configMAX_SYSCALL_INTERRUPT_PRIORITY & ucMaxPriorityValue;
 80027e2:	f89d 3003 	ldrb.w	r3, [sp, #3]
 80027e6:	f003 0350 	and.w	r3, r3, #80	; 0x50
 80027ea:	7013      	strb	r3, [r2, #0]
		ulMaxPRIGROUPValue = portMAX_PRIGROUP_BITS;
 80027ec:	4b28      	ldr	r3, [pc, #160]	; (8002890 <xPortStartScheduler+0xfc>)
 80027ee:	2207      	movs	r2, #7
 80027f0:	601a      	str	r2, [r3, #0]
		while( ( ucMaxPriorityValue & portTOP_BIT_OF_BYTE ) == portTOP_BIT_OF_BYTE )
 80027f2:	2100      	movs	r1, #0
 80027f4:	f89d 0003 	ldrb.w	r0, [sp, #3]
 80027f8:	0600      	lsls	r0, r0, #24
 80027fa:	f102 34ff 	add.w	r4, r2, #4294967295	; 0xffffffff
 80027fe:	d40d      	bmi.n	800281c <xPortStartScheduler+0x88>
 8002800:	b101      	cbz	r1, 8002804 <xPortStartScheduler+0x70>
 8002802:	601a      	str	r2, [r3, #0]
			configASSERT( ( portMAX_PRIGROUP_BITS - ulMaxPRIGROUPValue ) == configPRIO_BITS );
 8002804:	681a      	ldr	r2, [r3, #0]
 8002806:	2a03      	cmp	r2, #3
 8002808:	d011      	beq.n	800282e <xPortStartScheduler+0x9a>
 800280a:	f04f 0350 	mov.w	r3, #80	; 0x50
 800280e:	f383 8811 	msr	BASEPRI, r3
 8002812:	f3bf 8f6f 	isb	sy
 8002816:	f3bf 8f4f 	dsb	sy
 800281a:	e7fe      	b.n	800281a <xPortStartScheduler+0x86>
			ucMaxPriorityValue <<= ( uint8_t ) 0x01;
 800281c:	f89d 2003 	ldrb.w	r2, [sp, #3]
 8002820:	0052      	lsls	r2, r2, #1
 8002822:	b2d2      	uxtb	r2, r2
 8002824:	f88d 2003 	strb.w	r2, [sp, #3]
 8002828:	2101      	movs	r1, #1
 800282a:	4622      	mov	r2, r4
 800282c:	e7e2      	b.n	80027f4 <xPortStartScheduler+0x60>
		ulMaxPRIGROUPValue <<= portPRIGROUP_SHIFT;
 800282e:	0212      	lsls	r2, r2, #8
		ulMaxPRIGROUPValue &= portPRIORITY_GROUP_MASK;
 8002830:	f402 62e0 	and.w	r2, r2, #1792	; 0x700
 8002834:	601a      	str	r2, [r3, #0]
		*pucFirstUserPriorityRegister = ulOriginalPriority;
 8002836:	9b01      	ldr	r3, [sp, #4]
 8002838:	4a13      	ldr	r2, [pc, #76]	; (8002888 <xPortStartScheduler+0xf4>)
 800283a:	b2db      	uxtb	r3, r3
 800283c:	7013      	strb	r3, [r2, #0]
	portNVIC_SYSPRI2_REG |= portNVIC_PENDSV_PRI;
 800283e:	4b15      	ldr	r3, [pc, #84]	; (8002894 <xPortStartScheduler+0x100>)
 8002840:	681a      	ldr	r2, [r3, #0]
 8002842:	f442 0270 	orr.w	r2, r2, #15728640	; 0xf00000
 8002846:	601a      	str	r2, [r3, #0]
	portNVIC_SYSPRI2_REG |= portNVIC_SYSTICK_PRI;
 8002848:	681a      	ldr	r2, [r3, #0]
 800284a:	f042 4270 	orr.w	r2, r2, #4026531840	; 0xf0000000
 800284e:	601a      	str	r2, [r3, #0]
	vPortSetupTimerInterrupt();
 8002850:	f7ff ff86 	bl	8002760 <vPortSetupTimerInterrupt>
	uxCriticalNesting = 0;
 8002854:	4b10      	ldr	r3, [pc, #64]	; (8002898 <xPortStartScheduler+0x104>)
 8002856:	2400      	movs	r4, #0
 8002858:	601c      	str	r4, [r3, #0]
	vPortEnableVFP();
 800285a:	f7ff fecb 	bl	80025f4 <vPortEnableVFP>
	*( portFPCCR ) |= portASPEN_AND_LSPEN_BITS;
 800285e:	4a0f      	ldr	r2, [pc, #60]	; (800289c <xPortStartScheduler+0x108>)
 8002860:	6813      	ldr	r3, [r2, #0]
 8002862:	f043 4340 	orr.w	r3, r3, #3221225472	; 0xc0000000
 8002866:	6013      	str	r3, [r2, #0]
	prvPortStartFirstTask();
 8002868:	f7ff feb0 	bl	80025cc <prvPortStartFirstTask>
	vTaskSwitchContext();
 800286c:	f000 fe7e 	bl	800356c <vTaskSwitchContext>
	prvTaskExitError();
 8002870:	f7ff fe8c 	bl	800258c <prvTaskExitError>
}
 8002874:	4620      	mov	r0, r4
 8002876:	b002      	add	sp, #8
 8002878:	bd10      	pop	{r4, pc}
 800287a:	bf00      	nop
 800287c:	e000ed00 	.word	0xe000ed00
 8002880:	410fc271 	.word	0x410fc271
 8002884:	410fc270 	.word	0x410fc270
 8002888:	e000e400 	.word	0xe000e400
 800288c:	20000390 	.word	0x20000390
 8002890:	20000394 	.word	0x20000394
 8002894:	e000ed20 	.word	0xe000ed20
 8002898:	2000016c 	.word	0x2000016c
 800289c:	e000ef34 	.word	0xe000ef34

080028a0 <prvInsertBlockIntoFreeList>:
	xBlockAllocatedBit = ( ( size_t ) 1 ) << ( ( sizeof( size_t ) * heapBITS_PER_BYTE ) - 1 );
}
/*-----------------------------------------------------------*/

static void prvInsertBlockIntoFreeList( BlockLink_t *pxBlockToInsert )
{
 80028a0:	b510      	push	{r4, lr}
BlockLink_t *pxIterator;
uint8_t *puc;

	/* Iterate through the list until a block is found that has a higher address
	than the block being inserted. */
	for( pxIterator = &xStart; pxIterator->pxNextFreeBlock < pxBlockToInsert; pxIterator = pxIterator->pxNextFreeBlock )
 80028a2:	4b0f      	ldr	r3, [pc, #60]	; (80028e0 <prvInsertBlockIntoFreeList+0x40>)
 80028a4:	681a      	ldr	r2, [r3, #0]
 80028a6:	4282      	cmp	r2, r0
 80028a8:	d318      	bcc.n	80028dc <prvInsertBlockIntoFreeList+0x3c>
	}

	/* Do the block being inserted, and the block it is being inserted after
	make a contiguous block of memory? */
	puc = ( uint8_t * ) pxIterator;
	if( ( puc + pxIterator->xBlockSize ) == ( uint8_t * ) pxBlockToInsert )
 80028aa:	685c      	ldr	r4, [r3, #4]
 80028ac:	1919      	adds	r1, r3, r4
 80028ae:	4288      	cmp	r0, r1
	{
		pxIterator->xBlockSize += pxBlockToInsert->xBlockSize;
 80028b0:	bf01      	itttt	eq
 80028b2:	6841      	ldreq	r1, [r0, #4]
 80028b4:	4618      	moveq	r0, r3
 80028b6:	1909      	addeq	r1, r1, r4
 80028b8:	6059      	streq	r1, [r3, #4]
	}

	/* Do the block being inserted, and the block it is being inserted before
	make a contiguous block of memory? */
	puc = ( uint8_t * ) pxBlockToInsert;
	if( ( puc + pxBlockToInsert->xBlockSize ) == ( uint8_t * ) pxIterator->pxNextFreeBlock )
 80028ba:	6844      	ldr	r4, [r0, #4]
 80028bc:	1901      	adds	r1, r0, r4
 80028be:	428a      	cmp	r2, r1
 80028c0:	d107      	bne.n	80028d2 <prvInsertBlockIntoFreeList+0x32>
	{
		if( pxIterator->pxNextFreeBlock != pxEnd )
 80028c2:	4908      	ldr	r1, [pc, #32]	; (80028e4 <prvInsertBlockIntoFreeList+0x44>)
 80028c4:	6809      	ldr	r1, [r1, #0]
 80028c6:	428a      	cmp	r2, r1
		{
			/* Form one big block from the two blocks. */
			pxBlockToInsert->xBlockSize += pxIterator->pxNextFreeBlock->xBlockSize;
 80028c8:	bf1f      	itttt	ne
 80028ca:	6851      	ldrne	r1, [r2, #4]
			pxBlockToInsert->pxNextFreeBlock = pxIterator->pxNextFreeBlock->pxNextFreeBlock;
 80028cc:	6812      	ldrne	r2, [r2, #0]
			pxBlockToInsert->xBlockSize += pxIterator->pxNextFreeBlock->xBlockSize;
 80028ce:	1909      	addne	r1, r1, r4
 80028d0:	6041      	strne	r1, [r0, #4]

	/* If the block being inserted plugged a gab, so was merged with the block
	before and the block after, then it's pxNextFreeBlock pointer will have
	already been set, and should not be set here as that would make it point
	to itself. */
	if( pxIterator != pxBlockToInsert )
 80028d2:	4298      	cmp	r0, r3
		pxBlockToInsert->pxNextFreeBlock = pxIterator->pxNextFreeBlock;
 80028d4:	6002      	str	r2, [r0, #0]
	{
		pxIterator->pxNextFreeBlock = pxBlockToInsert;
 80028d6:	bf18      	it	ne
 80028d8:	6018      	strne	r0, [r3, #0]
 80028da:	bd10      	pop	{r4, pc}
 80028dc:	4613      	mov	r3, r2
 80028de:	e7e1      	b.n	80028a4 <prvInsertBlockIntoFreeList+0x4>
 80028e0:	20003fa8 	.word	0x20003fa8
 80028e4:	20000398 	.word	0x20000398

080028e8 <pvPortMalloc>:
{
 80028e8:	e92d 41f0 	stmdb	sp!, {r4, r5, r6, r7, r8, lr}
 80028ec:	4604      	mov	r4, r0
	vTaskSuspendAll();
 80028ee:	f000 fd07 	bl	8003300 <vTaskSuspendAll>
		if( pxEnd == NULL )
 80028f2:	493e      	ldr	r1, [pc, #248]	; (80029ec <pvPortMalloc+0x104>)
 80028f4:	4d3e      	ldr	r5, [pc, #248]	; (80029f0 <pvPortMalloc+0x108>)
 80028f6:	680b      	ldr	r3, [r1, #0]
 80028f8:	bb0b      	cbnz	r3, 800293e <pvPortMalloc+0x56>
	uxAddress = ( size_t ) ucHeap;
 80028fa:	4a3e      	ldr	r2, [pc, #248]	; (80029f4 <pvPortMalloc+0x10c>)
	if( ( uxAddress & portBYTE_ALIGNMENT_MASK ) != 0 )
 80028fc:	0756      	lsls	r6, r2, #29
		uxAddress += ( portBYTE_ALIGNMENT - 1 );
 80028fe:	bf1f      	itttt	ne
 8002900:	1dd0      	addne	r0, r2, #7
		uxAddress &= ~( ( size_t ) portBYTE_ALIGNMENT_MASK );
 8002902:	f020 0007 	bicne.w	r0, r0, #7
		xTotalHeapSize -= uxAddress - ( size_t ) ucHeap;
 8002906:	f502 5370 	addne.w	r3, r2, #15360	; 0x3c00
 800290a:	1a1b      	subne	r3, r3, r0
		uxAddress &= ~( ( size_t ) portBYTE_ALIGNMENT_MASK );
 800290c:	bf14      	ite	ne
 800290e:	4602      	movne	r2, r0
size_t xTotalHeapSize = configTOTAL_HEAP_SIZE;
 8002910:	f44f 5370 	moveq.w	r3, #15360	; 0x3c00
	uxAddress = ( ( size_t ) pucAlignedHeap ) + xTotalHeapSize;
 8002914:	4413      	add	r3, r2
	uxAddress -= xHeapStructSize;
 8002916:	3b08      	subs	r3, #8
	uxAddress &= ~( ( size_t ) portBYTE_ALIGNMENT_MASK );
 8002918:	f023 0307 	bic.w	r3, r3, #7
	xStart.pxNextFreeBlock = ( void * ) pucAlignedHeap;
 800291c:	4e36      	ldr	r6, [pc, #216]	; (80029f8 <pvPortMalloc+0x110>)
	pxEnd = ( void * ) uxAddress;
 800291e:	600b      	str	r3, [r1, #0]
	xStart.xBlockSize = ( size_t ) 0;
 8002920:	2000      	movs	r0, #0
 8002922:	6070      	str	r0, [r6, #4]
	xStart.pxNextFreeBlock = ( void * ) pucAlignedHeap;
 8002924:	6032      	str	r2, [r6, #0]
	pxEnd->xBlockSize = 0;
 8002926:	6058      	str	r0, [r3, #4]
	pxEnd->pxNextFreeBlock = NULL;
 8002928:	6018      	str	r0, [r3, #0]
	pxFirstFreeBlock->xBlockSize = uxAddress - ( size_t ) pxFirstFreeBlock;
 800292a:	1a98      	subs	r0, r3, r2
	pxFirstFreeBlock->pxNextFreeBlock = pxEnd;
 800292c:	6013      	str	r3, [r2, #0]
	xMinimumEverFreeBytesRemaining = pxFirstFreeBlock->xBlockSize;
 800292e:	4b33      	ldr	r3, [pc, #204]	; (80029fc <pvPortMalloc+0x114>)
	pxFirstFreeBlock->xBlockSize = uxAddress - ( size_t ) pxFirstFreeBlock;
 8002930:	6050      	str	r0, [r2, #4]
	xMinimumEverFreeBytesRemaining = pxFirstFreeBlock->xBlockSize;
 8002932:	6018      	str	r0, [r3, #0]
	xFreeBytesRemaining = pxFirstFreeBlock->xBlockSize;
 8002934:	4b32      	ldr	r3, [pc, #200]	; (8002a00 <pvPortMalloc+0x118>)
 8002936:	6018      	str	r0, [r3, #0]
	xBlockAllocatedBit = ( ( size_t ) 1 ) << ( ( sizeof( size_t ) * heapBITS_PER_BYTE ) - 1 );
 8002938:	f04f 4300 	mov.w	r3, #2147483648	; 0x80000000
 800293c:	602b      	str	r3, [r5, #0]
		if( ( xWantedSize & xBlockAllocatedBit ) == 0 )
 800293e:	682f      	ldr	r7, [r5, #0]
 8002940:	4227      	tst	r7, r4
 8002942:	d116      	bne.n	8002972 <pvPortMalloc+0x8a>
			if( xWantedSize > 0 )
 8002944:	2c00      	cmp	r4, #0
 8002946:	d041      	beq.n	80029cc <pvPortMalloc+0xe4>
				xWantedSize += xHeapStructSize;
 8002948:	f104 0308 	add.w	r3, r4, #8
				if( ( xWantedSize & portBYTE_ALIGNMENT_MASK ) != 0x00 )
 800294c:	0758      	lsls	r0, r3, #29
					xWantedSize += ( portBYTE_ALIGNMENT - ( xWantedSize & portBYTE_ALIGNMENT_MASK ) );
 800294e:	bf1c      	itt	ne
 8002950:	f023 0307 	bicne.w	r3, r3, #7
 8002954:	3308      	addne	r3, #8
			if( ( xWantedSize > 0 ) && ( xWantedSize <= xFreeBytesRemaining ) )
 8002956:	b163      	cbz	r3, 8002972 <pvPortMalloc+0x8a>
 8002958:	4a29      	ldr	r2, [pc, #164]	; (8002a00 <pvPortMalloc+0x118>)
 800295a:	6816      	ldr	r6, [r2, #0]
 800295c:	42b3      	cmp	r3, r6
 800295e:	4690      	mov	r8, r2
 8002960:	d807      	bhi.n	8002972 <pvPortMalloc+0x8a>
				pxBlock = xStart.pxNextFreeBlock;
 8002962:	4a25      	ldr	r2, [pc, #148]	; (80029f8 <pvPortMalloc+0x110>)
 8002964:	6815      	ldr	r5, [r2, #0]
				while( ( pxBlock->xBlockSize < xWantedSize ) && ( pxBlock->pxNextFreeBlock != NULL ) )
 8002966:	6868      	ldr	r0, [r5, #4]
 8002968:	4283      	cmp	r3, r0
 800296a:	d804      	bhi.n	8002976 <pvPortMalloc+0x8e>
				if( pxBlock != pxEnd )
 800296c:	6809      	ldr	r1, [r1, #0]
 800296e:	428d      	cmp	r5, r1
 8002970:	d107      	bne.n	8002982 <pvPortMalloc+0x9a>
void *pvReturn = NULL;
 8002972:	2400      	movs	r4, #0
 8002974:	e02a      	b.n	80029cc <pvPortMalloc+0xe4>
				while( ( pxBlock->xBlockSize < xWantedSize ) && ( pxBlock->pxNextFreeBlock != NULL ) )
 8002976:	682c      	ldr	r4, [r5, #0]
 8002978:	2c00      	cmp	r4, #0
 800297a:	d0f7      	beq.n	800296c <pvPortMalloc+0x84>
 800297c:	462a      	mov	r2, r5
 800297e:	4625      	mov	r5, r4
 8002980:	e7f1      	b.n	8002966 <pvPortMalloc+0x7e>
					pxPreviousBlock->pxNextFreeBlock = pxBlock->pxNextFreeBlock;
 8002982:	6829      	ldr	r1, [r5, #0]
					pvReturn = ( void * ) ( ( ( uint8_t * ) pxPreviousBlock->pxNextFreeBlock ) + xHeapStructSize );
 8002984:	6814      	ldr	r4, [r2, #0]
					pxPreviousBlock->pxNextFreeBlock = pxBlock->pxNextFreeBlock;
 8002986:	6011      	str	r1, [r2, #0]
					if( ( pxBlock->xBlockSize - xWantedSize ) > heapMINIMUM_BLOCK_SIZE )
 8002988:	1ac2      	subs	r2, r0, r3
 800298a:	2a10      	cmp	r2, #16
 800298c:	d90f      	bls.n	80029ae <pvPortMalloc+0xc6>
						pxNewBlockLink = ( void * ) ( ( ( uint8_t * ) pxBlock ) + xWantedSize );
 800298e:	18e8      	adds	r0, r5, r3
						configASSERT( ( ( ( size_t ) pxNewBlockLink ) & portBYTE_ALIGNMENT_MASK ) == 0 );
 8002990:	0741      	lsls	r1, r0, #29
 8002992:	d008      	beq.n	80029a6 <pvPortMalloc+0xbe>
 8002994:	f04f 0350 	mov.w	r3, #80	; 0x50
 8002998:	f383 8811 	msr	BASEPRI, r3
 800299c:	f3bf 8f6f 	isb	sy
 80029a0:	f3bf 8f4f 	dsb	sy
 80029a4:	e7fe      	b.n	80029a4 <pvPortMalloc+0xbc>
						pxNewBlockLink->xBlockSize = pxBlock->xBlockSize - xWantedSize;
 80029a6:	6042      	str	r2, [r0, #4]
						pxBlock->xBlockSize = xWantedSize;
 80029a8:	606b      	str	r3, [r5, #4]
						prvInsertBlockIntoFreeList( pxNewBlockLink );
 80029aa:	f7ff ff79 	bl	80028a0 <prvInsertBlockIntoFreeList>
					if( xFreeBytesRemaining < xMinimumEverFreeBytesRemaining )
 80029ae:	4913      	ldr	r1, [pc, #76]	; (80029fc <pvPortMalloc+0x114>)
					xFreeBytesRemaining -= pxBlock->xBlockSize;
 80029b0:	686b      	ldr	r3, [r5, #4]
					if( xFreeBytesRemaining < xMinimumEverFreeBytesRemaining )
 80029b2:	6808      	ldr	r0, [r1, #0]
					xFreeBytesRemaining -= pxBlock->xBlockSize;
 80029b4:	1af6      	subs	r6, r6, r3
					pxBlock->xBlockSize |= xBlockAllocatedBit;
 80029b6:	431f      	orrs	r7, r3
					if( xFreeBytesRemaining < xMinimumEverFreeBytesRemaining )
 80029b8:	4286      	cmp	r6, r0
					pxBlock->pxNextFreeBlock = NULL;
 80029ba:	f04f 0300 	mov.w	r3, #0
					xFreeBytesRemaining -= pxBlock->xBlockSize;
 80029be:	f8c8 6000 	str.w	r6, [r8]
						xMinimumEverFreeBytesRemaining = xFreeBytesRemaining;
 80029c2:	bf38      	it	cc
 80029c4:	600e      	strcc	r6, [r1, #0]
					pvReturn = ( void * ) ( ( ( uint8_t * ) pxPreviousBlock->pxNextFreeBlock ) + xHeapStructSize );
 80029c6:	3408      	adds	r4, #8
					pxBlock->xBlockSize |= xBlockAllocatedBit;
 80029c8:	606f      	str	r7, [r5, #4]
					pxBlock->pxNextFreeBlock = NULL;
 80029ca:	602b      	str	r3, [r5, #0]
	( void ) xTaskResumeAll();
 80029cc:	f000 fd32 	bl	8003434 <xTaskResumeAll>
	configASSERT( ( ( ( size_t ) pvReturn ) & ( size_t ) portBYTE_ALIGNMENT_MASK ) == 0 );
 80029d0:	0763      	lsls	r3, r4, #29
 80029d2:	d008      	beq.n	80029e6 <pvPortMalloc+0xfe>
 80029d4:	f04f 0350 	mov.w	r3, #80	; 0x50
 80029d8:	f383 8811 	msr	BASEPRI, r3
 80029dc:	f3bf 8f6f 	isb	sy
 80029e0:	f3bf 8f4f 	dsb	sy
 80029e4:	e7fe      	b.n	80029e4 <pvPortMalloc+0xfc>
}
 80029e6:	4620      	mov	r0, r4
 80029e8:	e8bd 81f0 	ldmia.w	sp!, {r4, r5, r6, r7, r8, pc}
 80029ec:	20000398 	.word	0x20000398
 80029f0:	20003f9c 	.word	0x20003f9c
 80029f4:	2000039c 	.word	0x2000039c
 80029f8:	20003fa8 	.word	0x20003fa8
 80029fc:	20003fa4 	.word	0x20003fa4
 8002a00:	20003fa0 	.word	0x20003fa0

08002a04 <vPortFree>:
{
 8002a04:	b510      	push	{r4, lr}
	if( pv != NULL )
 8002a06:	4604      	mov	r4, r0
 8002a08:	b370      	cbz	r0, 8002a68 <vPortFree+0x64>
		configASSERT( ( pxLink->xBlockSize & xBlockAllocatedBit ) != 0 );
 8002a0a:	4a18      	ldr	r2, [pc, #96]	; (8002a6c <vPortFree+0x68>)
 8002a0c:	f850 3c04 	ldr.w	r3, [r0, #-4]
 8002a10:	6812      	ldr	r2, [r2, #0]
 8002a12:	4213      	tst	r3, r2
 8002a14:	d108      	bne.n	8002a28 <vPortFree+0x24>
 8002a16:	f04f 0350 	mov.w	r3, #80	; 0x50
 8002a1a:	f383 8811 	msr	BASEPRI, r3
 8002a1e:	f3bf 8f6f 	isb	sy
 8002a22:	f3bf 8f4f 	dsb	sy
 8002a26:	e7fe      	b.n	8002a26 <vPortFree+0x22>
		configASSERT( pxLink->pxNextFreeBlock == NULL );
 8002a28:	f850 1c08 	ldr.w	r1, [r0, #-8]
 8002a2c:	b141      	cbz	r1, 8002a40 <vPortFree+0x3c>
 8002a2e:	f04f 0350 	mov.w	r3, #80	; 0x50
 8002a32:	f383 8811 	msr	BASEPRI, r3
 8002a36:	f3bf 8f6f 	isb	sy
 8002a3a:	f3bf 8f4f 	dsb	sy
 8002a3e:	e7fe      	b.n	8002a3e <vPortFree+0x3a>
				pxLink->xBlockSize &= ~xBlockAllocatedBit;
 8002a40:	ea23 0302 	bic.w	r3, r3, r2
 8002a44:	f840 3c04 	str.w	r3, [r0, #-4]
				vTaskSuspendAll();
 8002a48:	f000 fc5a 	bl	8003300 <vTaskSuspendAll>
					xFreeBytesRemaining += pxLink->xBlockSize;
 8002a4c:	4a08      	ldr	r2, [pc, #32]	; (8002a70 <vPortFree+0x6c>)
 8002a4e:	f854 3c04 	ldr.w	r3, [r4, #-4]
 8002a52:	6811      	ldr	r1, [r2, #0]
					prvInsertBlockIntoFreeList( ( ( BlockLink_t * ) pxLink ) );
 8002a54:	f1a4 0008 	sub.w	r0, r4, #8
					xFreeBytesRemaining += pxLink->xBlockSize;
 8002a58:	440b      	add	r3, r1
 8002a5a:	6013      	str	r3, [r2, #0]
					prvInsertBlockIntoFreeList( ( ( BlockLink_t * ) pxLink ) );
 8002a5c:	f7ff ff20 	bl	80028a0 <prvInsertBlockIntoFreeList>
}
 8002a60:	e8bd 4010 	ldmia.w	sp!, {r4, lr}
				( void ) xTaskResumeAll();
 8002a64:	f000 bce6 	b.w	8003434 <xTaskResumeAll>
 8002a68:	bd10      	pop	{r4, pc}
 8002a6a:	bf00      	nop
 8002a6c:	20003f9c 	.word	0x20003f9c
 8002a70:	20003fa0 	.word	0x20003fa0

08002a74 <prvIsQueueEmpty>:
	taskEXIT_CRITICAL();
}
/*-----------------------------------------------------------*/

static BaseType_t prvIsQueueEmpty( const Queue_t *pxQueue )
{
 8002a74:	b510      	push	{r4, lr}
 8002a76:	4604      	mov	r4, r0
BaseType_t xReturn;

	taskENTER_CRITICAL();
 8002a78:	f7ff fdf4 	bl	8002664 <vPortEnterCritical>
	{
		if( pxQueue->uxMessagesWaiting == ( UBaseType_t )  0 )
 8002a7c:	6ba4      	ldr	r4, [r4, #56]	; 0x38
		else
		{
			xReturn = pdFALSE;
		}
	}
	taskEXIT_CRITICAL();
 8002a7e:	f7ff fe13 	bl	80026a8 <vPortExitCritical>

	return xReturn;
}
 8002a82:	fab4 f084 	clz	r0, r4
 8002a86:	0940      	lsrs	r0, r0, #5
 8002a88:	bd10      	pop	{r4, pc}

08002a8a <prvCopyDataToQueue>:
{
 8002a8a:	b570      	push	{r4, r5, r6, lr}
 8002a8c:	4615      	mov	r5, r2
	if( pxQueue->uxItemSize == ( UBaseType_t ) 0 )
 8002a8e:	6c02      	ldr	r2, [r0, #64]	; 0x40
	uxMessagesWaiting = pxQueue->uxMessagesWaiting;
 8002a90:	6b86      	ldr	r6, [r0, #56]	; 0x38
{
 8002a92:	4604      	mov	r4, r0
	if( pxQueue->uxItemSize == ( UBaseType_t ) 0 )
 8002a94:	b942      	cbnz	r2, 8002aa8 <prvCopyDataToQueue+0x1e>
			if( pxQueue->uxQueueType == queueQUEUE_IS_MUTEX )
 8002a96:	6805      	ldr	r5, [r0, #0]
 8002a98:	b99d      	cbnz	r5, 8002ac2 <prvCopyDataToQueue+0x38>
				xReturn = xTaskPriorityDisinherit( ( void * ) pxQueue->pxMutexHolder );
 8002a9a:	6840      	ldr	r0, [r0, #4]
 8002a9c:	f000 fe5a 	bl	8003754 <xTaskPriorityDisinherit>
				pxQueue->pxMutexHolder = NULL;
 8002aa0:	6065      	str	r5, [r4, #4]
	pxQueue->uxMessagesWaiting = uxMessagesWaiting + ( UBaseType_t ) 1;
 8002aa2:	3601      	adds	r6, #1
 8002aa4:	63a6      	str	r6, [r4, #56]	; 0x38
}
 8002aa6:	bd70      	pop	{r4, r5, r6, pc}
	else if( xPosition == queueSEND_TO_BACK )
 8002aa8:	b96d      	cbnz	r5, 8002ac6 <prvCopyDataToQueue+0x3c>
		( void ) memcpy( ( void * ) pxQueue->pcWriteTo, pvItemToQueue, ( size_t ) pxQueue->uxItemSize ); /*lint !e961 !e418 MISRA exception as the casts are only redundant for some ports, plus previous logic ensures a null pointer can only be passed to memcpy() if the copy size is 0. */
 8002aaa:	6880      	ldr	r0, [r0, #8]
 8002aac:	f001 faf4 	bl	8004098 <memcpy>
		pxQueue->pcWriteTo += pxQueue->uxItemSize;
 8002ab0:	68a3      	ldr	r3, [r4, #8]
 8002ab2:	6c22      	ldr	r2, [r4, #64]	; 0x40
 8002ab4:	4413      	add	r3, r2
		if( pxQueue->pcWriteTo >= pxQueue->pcTail ) /*lint !e946 MISRA exception justified as comparison of pointers is the cleanest solution. */
 8002ab6:	6862      	ldr	r2, [r4, #4]
		pxQueue->pcWriteTo += pxQueue->uxItemSize;
 8002ab8:	60a3      	str	r3, [r4, #8]
		if( pxQueue->pcWriteTo >= pxQueue->pcTail ) /*lint !e946 MISRA exception justified as comparison of pointers is the cleanest solution. */
 8002aba:	4293      	cmp	r3, r2
 8002abc:	d301      	bcc.n	8002ac2 <prvCopyDataToQueue+0x38>
			pxQueue->pcWriteTo = pxQueue->pcHead;
 8002abe:	6823      	ldr	r3, [r4, #0]
 8002ac0:	60a3      	str	r3, [r4, #8]
BaseType_t xReturn = pdFALSE;
 8002ac2:	2000      	movs	r0, #0
 8002ac4:	e7ed      	b.n	8002aa2 <prvCopyDataToQueue+0x18>
		( void ) memcpy( ( void * ) pxQueue->u.pcReadFrom, pvItemToQueue, ( size_t ) pxQueue->uxItemSize ); /*lint !e961 MISRA exception as the casts are only redundant for some ports. */
 8002ac6:	68c0      	ldr	r0, [r0, #12]
 8002ac8:	f001 fae6 	bl	8004098 <memcpy>
		pxQueue->u.pcReadFrom -= pxQueue->uxItemSize;
 8002acc:	6c23      	ldr	r3, [r4, #64]	; 0x40
 8002ace:	68e2      	ldr	r2, [r4, #12]
		if( pxQueue->u.pcReadFrom < pxQueue->pcHead ) /*lint !e946 MISRA exception justified as comparison of pointers is the cleanest solution. */
 8002ad0:	6821      	ldr	r1, [r4, #0]
		pxQueue->u.pcReadFrom -= pxQueue->uxItemSize;
 8002ad2:	425b      	negs	r3, r3
 8002ad4:	441a      	add	r2, r3
		if( pxQueue->u.pcReadFrom < pxQueue->pcHead ) /*lint !e946 MISRA exception justified as comparison of pointers is the cleanest solution. */
 8002ad6:	428a      	cmp	r2, r1
		pxQueue->u.pcReadFrom -= pxQueue->uxItemSize;
 8002ad8:	60e2      	str	r2, [r4, #12]
			pxQueue->u.pcReadFrom = ( pxQueue->pcTail - pxQueue->uxItemSize );
 8002ada:	bf3e      	ittt	cc
 8002adc:	6862      	ldrcc	r2, [r4, #4]
 8002ade:	189b      	addcc	r3, r3, r2
 8002ae0:	60e3      	strcc	r3, [r4, #12]
		if( xPosition == queueOVERWRITE )
 8002ae2:	2d02      	cmp	r5, #2
 8002ae4:	d1ed      	bne.n	8002ac2 <prvCopyDataToQueue+0x38>
			if( uxMessagesWaiting > ( UBaseType_t ) 0 )
 8002ae6:	b10e      	cbz	r6, 8002aec <prvCopyDataToQueue+0x62>
				--uxMessagesWaiting;
 8002ae8:	3e01      	subs	r6, #1
 8002aea:	e7ea      	b.n	8002ac2 <prvCopyDataToQueue+0x38>
BaseType_t xReturn = pdFALSE;
 8002aec:	4630      	mov	r0, r6
 8002aee:	e7d8      	b.n	8002aa2 <prvCopyDataToQueue+0x18>

08002af0 <prvCopyDataFromQueue>:
{
 8002af0:	4603      	mov	r3, r0
 8002af2:	b410      	push	{r4}
	if( pxQueue->uxItemSize != ( UBaseType_t ) 0 )
 8002af4:	6c1a      	ldr	r2, [r3, #64]	; 0x40
{
 8002af6:	4608      	mov	r0, r1
	if( pxQueue->uxItemSize != ( UBaseType_t ) 0 )
 8002af8:	b162      	cbz	r2, 8002b14 <prvCopyDataFromQueue+0x24>
		pxQueue->u.pcReadFrom += pxQueue->uxItemSize;
 8002afa:	68d9      	ldr	r1, [r3, #12]
		if( pxQueue->u.pcReadFrom >= pxQueue->pcTail ) /*lint !e946 MISRA exception justified as use of the relational operator is the cleanest solutions. */
 8002afc:	685c      	ldr	r4, [r3, #4]
		pxQueue->u.pcReadFrom += pxQueue->uxItemSize;
 8002afe:	4411      	add	r1, r2
		if( pxQueue->u.pcReadFrom >= pxQueue->pcTail ) /*lint !e946 MISRA exception justified as use of the relational operator is the cleanest solutions. */
 8002b00:	42a1      	cmp	r1, r4
		pxQueue->u.pcReadFrom += pxQueue->uxItemSize;
 8002b02:	60d9      	str	r1, [r3, #12]
			pxQueue->u.pcReadFrom = pxQueue->pcHead;
 8002b04:	bf24      	itt	cs
 8002b06:	6819      	ldrcs	r1, [r3, #0]
 8002b08:	60d9      	strcs	r1, [r3, #12]
		( void ) memcpy( ( void * ) pvBuffer, ( void * ) pxQueue->u.pcReadFrom, ( size_t ) pxQueue->uxItemSize ); /*lint !e961 !e418 MISRA exception as the casts are only redundant for some ports.  Also previous logic ensures a null pointer can only be passed to memcpy() when the count is 0. */
 8002b0a:	68d9      	ldr	r1, [r3, #12]
}
 8002b0c:	f85d 4b04 	ldr.w	r4, [sp], #4
		( void ) memcpy( ( void * ) pvBuffer, ( void * ) pxQueue->u.pcReadFrom, ( size_t ) pxQueue->uxItemSize ); /*lint !e961 !e418 MISRA exception as the casts are only redundant for some ports.  Also previous logic ensures a null pointer can only be passed to memcpy() when the count is 0. */
 8002b10:	f001 bac2 	b.w	8004098 <memcpy>
}
 8002b14:	f85d 4b04 	ldr.w	r4, [sp], #4
 8002b18:	4770      	bx	lr

08002b1a <prvUnlockQueue>:
{
 8002b1a:	b570      	push	{r4, r5, r6, lr}
 8002b1c:	4604      	mov	r4, r0
	taskENTER_CRITICAL();
 8002b1e:	f7ff fda1 	bl	8002664 <vPortEnterCritical>
		int8_t cTxLock = pxQueue->cTxLock;
 8002b22:	f894 5045 	ldrb.w	r5, [r4, #69]	; 0x45
					if( xTaskRemoveFromEventList( &( pxQueue->xTasksWaitingToReceive ) ) != pdFALSE )
 8002b26:	f104 0624 	add.w	r6, r4, #36	; 0x24
		int8_t cTxLock = pxQueue->cTxLock;
 8002b2a:	b26d      	sxtb	r5, r5
		while( cTxLock > queueLOCKED_UNMODIFIED )
 8002b2c:	2d00      	cmp	r5, #0
 8002b2e:	dc14      	bgt.n	8002b5a <prvUnlockQueue+0x40>
		pxQueue->cTxLock = queueUNLOCKED;
 8002b30:	23ff      	movs	r3, #255	; 0xff
 8002b32:	f884 3045 	strb.w	r3, [r4, #69]	; 0x45
	taskEXIT_CRITICAL();
 8002b36:	f7ff fdb7 	bl	80026a8 <vPortExitCritical>
	taskENTER_CRITICAL();
 8002b3a:	f7ff fd93 	bl	8002664 <vPortEnterCritical>
		int8_t cRxLock = pxQueue->cRxLock;
 8002b3e:	f894 5044 	ldrb.w	r5, [r4, #68]	; 0x44
				if( xTaskRemoveFromEventList( &( pxQueue->xTasksWaitingToSend ) ) != pdFALSE )
 8002b42:	f104 0610 	add.w	r6, r4, #16
		int8_t cRxLock = pxQueue->cRxLock;
 8002b46:	b26d      	sxtb	r5, r5
		while( cRxLock > queueLOCKED_UNMODIFIED )
 8002b48:	2d00      	cmp	r5, #0
 8002b4a:	dc12      	bgt.n	8002b72 <prvUnlockQueue+0x58>
		pxQueue->cRxLock = queueUNLOCKED;
 8002b4c:	23ff      	movs	r3, #255	; 0xff
 8002b4e:	f884 3044 	strb.w	r3, [r4, #68]	; 0x44
}
 8002b52:	e8bd 4070 	ldmia.w	sp!, {r4, r5, r6, lr}
	taskEXIT_CRITICAL();
 8002b56:	f7ff bda7 	b.w	80026a8 <vPortExitCritical>
				if( listLIST_IS_EMPTY( &( pxQueue->xTasksWaitingToReceive ) ) == pdFALSE )
 8002b5a:	6a63      	ldr	r3, [r4, #36]	; 0x24
 8002b5c:	2b00      	cmp	r3, #0
 8002b5e:	d0e7      	beq.n	8002b30 <prvUnlockQueue+0x16>
					if( xTaskRemoveFromEventList( &( pxQueue->xTasksWaitingToReceive ) ) != pdFALSE )
 8002b60:	4630      	mov	r0, r6
 8002b62:	f000 fd57 	bl	8003614 <xTaskRemoveFromEventList>
 8002b66:	b108      	cbz	r0, 8002b6c <prvUnlockQueue+0x52>
						vTaskMissedYield();
 8002b68:	f000 fdde 	bl	8003728 <vTaskMissedYield>
 8002b6c:	3d01      	subs	r5, #1
 8002b6e:	b26d      	sxtb	r5, r5
 8002b70:	e7dc      	b.n	8002b2c <prvUnlockQueue+0x12>
			if( listLIST_IS_EMPTY( &( pxQueue->xTasksWaitingToSend ) ) == pdFALSE )
 8002b72:	6923      	ldr	r3, [r4, #16]
 8002b74:	2b00      	cmp	r3, #0
 8002b76:	d0e9      	beq.n	8002b4c <prvUnlockQueue+0x32>
				if( xTaskRemoveFromEventList( &( pxQueue->xTasksWaitingToSend ) ) != pdFALSE )
 8002b78:	4630      	mov	r0, r6
 8002b7a:	f000 fd4b 	bl	8003614 <xTaskRemoveFromEventList>
 8002b7e:	b108      	cbz	r0, 8002b84 <prvUnlockQueue+0x6a>
					vTaskMissedYield();
 8002b80:	f000 fdd2 	bl	8003728 <vTaskMissedYield>
 8002b84:	3d01      	subs	r5, #1
 8002b86:	b26d      	sxtb	r5, r5
 8002b88:	e7de      	b.n	8002b48 <prvUnlockQueue+0x2e>
	...

08002b8c <xQueueGenericReset>:
{
 8002b8c:	b538      	push	{r3, r4, r5, lr}
 8002b8e:	460d      	mov	r5, r1
	configASSERT( pxQueue );
 8002b90:	4604      	mov	r4, r0
 8002b92:	b940      	cbnz	r0, 8002ba6 <xQueueGenericReset+0x1a>
 8002b94:	f04f 0350 	mov.w	r3, #80	; 0x50
 8002b98:	f383 8811 	msr	BASEPRI, r3
 8002b9c:	f3bf 8f6f 	isb	sy
 8002ba0:	f3bf 8f4f 	dsb	sy
 8002ba4:	e7fe      	b.n	8002ba4 <xQueueGenericReset+0x18>
	taskENTER_CRITICAL();
 8002ba6:	f7ff fd5d 	bl	8002664 <vPortEnterCritical>
		pxQueue->pcTail = pxQueue->pcHead + ( pxQueue->uxLength * pxQueue->uxItemSize );
 8002baa:	6c20      	ldr	r0, [r4, #64]	; 0x40
 8002bac:	6be3      	ldr	r3, [r4, #60]	; 0x3c
 8002bae:	6822      	ldr	r2, [r4, #0]
		pxQueue->pcWriteTo = pxQueue->pcHead;
 8002bb0:	60a2      	str	r2, [r4, #8]
		pxQueue->pcTail = pxQueue->pcHead + ( pxQueue->uxLength * pxQueue->uxItemSize );
 8002bb2:	4343      	muls	r3, r0
 8002bb4:	18d1      	adds	r1, r2, r3
		pxQueue->u.pcReadFrom = pxQueue->pcHead + ( ( pxQueue->uxLength - ( UBaseType_t ) 1U ) * pxQueue->uxItemSize );
 8002bb6:	1a1b      	subs	r3, r3, r0
 8002bb8:	4413      	add	r3, r2
		pxQueue->pcTail = pxQueue->pcHead + ( pxQueue->uxLength * pxQueue->uxItemSize );
 8002bba:	6061      	str	r1, [r4, #4]
		pxQueue->u.pcReadFrom = pxQueue->pcHead + ( ( pxQueue->uxLength - ( UBaseType_t ) 1U ) * pxQueue->uxItemSize );
 8002bbc:	60e3      	str	r3, [r4, #12]
		pxQueue->uxMessagesWaiting = ( UBaseType_t ) 0U;
 8002bbe:	2100      	movs	r1, #0
		pxQueue->cRxLock = queueUNLOCKED;
 8002bc0:	23ff      	movs	r3, #255	; 0xff
		pxQueue->uxMessagesWaiting = ( UBaseType_t ) 0U;
 8002bc2:	63a1      	str	r1, [r4, #56]	; 0x38
		pxQueue->cRxLock = queueUNLOCKED;
 8002bc4:	f884 3044 	strb.w	r3, [r4, #68]	; 0x44
		pxQueue->cTxLock = queueUNLOCKED;
 8002bc8:	f884 3045 	strb.w	r3, [r4, #69]	; 0x45
		if( xNewQueue == pdFALSE )
 8002bcc:	b995      	cbnz	r5, 8002bf4 <xQueueGenericReset+0x68>
			if( listLIST_IS_EMPTY( &( pxQueue->xTasksWaitingToSend ) ) == pdFALSE )
 8002bce:	6923      	ldr	r3, [r4, #16]
 8002bd0:	b163      	cbz	r3, 8002bec <xQueueGenericReset+0x60>
				if( xTaskRemoveFromEventList( &( pxQueue->xTasksWaitingToSend ) ) != pdFALSE )
 8002bd2:	f104 0010 	add.w	r0, r4, #16
 8002bd6:	f000 fd1d 	bl	8003614 <xTaskRemoveFromEventList>
 8002bda:	b138      	cbz	r0, 8002bec <xQueueGenericReset+0x60>
					queueYIELD_IF_USING_PREEMPTION();
 8002bdc:	4b0a      	ldr	r3, [pc, #40]	; (8002c08 <xQueueGenericReset+0x7c>)
 8002bde:	f04f 5280 	mov.w	r2, #268435456	; 0x10000000
 8002be2:	601a      	str	r2, [r3, #0]
 8002be4:	f3bf 8f4f 	dsb	sy
 8002be8:	f3bf 8f6f 	isb	sy
	taskEXIT_CRITICAL();
 8002bec:	f7ff fd5c 	bl	80026a8 <vPortExitCritical>
}
 8002bf0:	2001      	movs	r0, #1
 8002bf2:	bd38      	pop	{r3, r4, r5, pc}
			vListInitialise( &( pxQueue->xTasksWaitingToSend ) );
 8002bf4:	f104 0010 	add.w	r0, r4, #16
 8002bf8:	f7ff fc86 	bl	8002508 <vListInitialise>
			vListInitialise( &( pxQueue->xTasksWaitingToReceive ) );
 8002bfc:	f104 0024 	add.w	r0, r4, #36	; 0x24
 8002c00:	f7ff fc82 	bl	8002508 <vListInitialise>
 8002c04:	e7f2      	b.n	8002bec <xQueueGenericReset+0x60>
 8002c06:	bf00      	nop
 8002c08:	e000ed04 	.word	0xe000ed04

08002c0c <xQueueGenericCreate>:
	{
 8002c0c:	b570      	push	{r4, r5, r6, lr}
 8002c0e:	460d      	mov	r5, r1
		configASSERT( uxQueueLength > ( UBaseType_t ) 0 );
 8002c10:	4606      	mov	r6, r0
 8002c12:	b940      	cbnz	r0, 8002c26 <xQueueGenericCreate+0x1a>
 8002c14:	f04f 0350 	mov.w	r3, #80	; 0x50
 8002c18:	f383 8811 	msr	BASEPRI, r3
 8002c1c:	f3bf 8f6f 	isb	sy
 8002c20:	f3bf 8f4f 	dsb	sy
 8002c24:	e7fe      	b.n	8002c24 <xQueueGenericCreate+0x18>
			xQueueSizeInBytes = ( size_t ) ( uxQueueLength * uxItemSize ); /*lint !e961 MISRA exception as the casts are only redundant for some ports. */
 8002c26:	4348      	muls	r0, r1
		pxNewQueue = ( Queue_t * ) pvPortMalloc( sizeof( Queue_t ) + xQueueSizeInBytes );
 8002c28:	3048      	adds	r0, #72	; 0x48
 8002c2a:	f7ff fe5d 	bl	80028e8 <pvPortMalloc>
		if( pxNewQueue != NULL )
 8002c2e:	4604      	mov	r4, r0
 8002c30:	b150      	cbz	r0, 8002c48 <xQueueGenericCreate+0x3c>
				pxNewQueue->ucStaticallyAllocated = pdFALSE;
 8002c32:	2300      	movs	r3, #0
 8002c34:	f880 3046 	strb.w	r3, [r0, #70]	; 0x46
	if( uxItemSize == ( UBaseType_t ) 0 )
 8002c38:	b945      	cbnz	r5, 8002c4c <xQueueGenericCreate+0x40>
		pxNewQueue->pcHead = ( int8_t * ) pxNewQueue;
 8002c3a:	6020      	str	r0, [r4, #0]
	pxNewQueue->uxLength = uxQueueLength;
 8002c3c:	63e6      	str	r6, [r4, #60]	; 0x3c
	pxNewQueue->uxItemSize = uxItemSize;
 8002c3e:	6425      	str	r5, [r4, #64]	; 0x40
	( void ) xQueueGenericReset( pxNewQueue, pdTRUE );
 8002c40:	2101      	movs	r1, #1
 8002c42:	4620      	mov	r0, r4
 8002c44:	f7ff ffa2 	bl	8002b8c <xQueueGenericReset>
	}
 8002c48:	4620      	mov	r0, r4
 8002c4a:	bd70      	pop	{r4, r5, r6, pc}
			pucQueueStorage = ( ( uint8_t * ) pxNewQueue ) + sizeof( Queue_t );
 8002c4c:	f100 0348 	add.w	r3, r0, #72	; 0x48
		pxNewQueue->pcHead = ( int8_t * ) pucQueueStorage;
 8002c50:	6003      	str	r3, [r0, #0]
 8002c52:	e7f3      	b.n	8002c3c <xQueueGenericCreate+0x30>

08002c54 <xQueueGenericSend>:
{
 8002c54:	e92d 47ff 	stmdb	sp!, {r0, r1, r2, r3, r4, r5, r6, r7, r8, r9, sl, lr}
 8002c58:	4689      	mov	r9, r1
 8002c5a:	9201      	str	r2, [sp, #4]
 8002c5c:	461f      	mov	r7, r3
	configASSERT( pxQueue );
 8002c5e:	4604      	mov	r4, r0
 8002c60:	b940      	cbnz	r0, 8002c74 <xQueueGenericSend+0x20>
 8002c62:	f04f 0350 	mov.w	r3, #80	; 0x50
 8002c66:	f383 8811 	msr	BASEPRI, r3
 8002c6a:	f3bf 8f6f 	isb	sy
 8002c6e:	f3bf 8f4f 	dsb	sy
 8002c72:	e7fe      	b.n	8002c72 <xQueueGenericSend+0x1e>
	configASSERT( !( ( pvItemToQueue == NULL ) && ( pxQueue->uxItemSize != ( UBaseType_t ) 0U ) ) );
 8002c74:	2900      	cmp	r1, #0
 8002c76:	f040 8088 	bne.w	8002d8a <xQueueGenericSend+0x136>
 8002c7a:	6c03      	ldr	r3, [r0, #64]	; 0x40
 8002c7c:	2b00      	cmp	r3, #0
 8002c7e:	f000 8084 	beq.w	8002d8a <xQueueGenericSend+0x136>
 8002c82:	f04f 0350 	mov.w	r3, #80	; 0x50
 8002c86:	f383 8811 	msr	BASEPRI, r3
 8002c8a:	f3bf 8f6f 	isb	sy
 8002c8e:	f3bf 8f4f 	dsb	sy
 8002c92:	e7fe      	b.n	8002c92 <xQueueGenericSend+0x3e>
		configASSERT( !( ( xTaskGetSchedulerState() == taskSCHEDULER_SUSPENDED ) && ( xTicksToWait != 0 ) ) );
 8002c94:	9e01      	ldr	r6, [sp, #4]
 8002c96:	2e00      	cmp	r6, #0
 8002c98:	f000 8082 	beq.w	8002da0 <xQueueGenericSend+0x14c>
 8002c9c:	f04f 0350 	mov.w	r3, #80	; 0x50
 8002ca0:	f383 8811 	msr	BASEPRI, r3
 8002ca4:	f3bf 8f6f 	isb	sy
 8002ca8:	f3bf 8f4f 	dsb	sy
 8002cac:	e7fe      	b.n	8002cac <xQueueGenericSend+0x58>
				if( xTicksToWait == ( TickType_t ) 0 )
 8002cae:	9d01      	ldr	r5, [sp, #4]
 8002cb0:	b91d      	cbnz	r5, 8002cba <xQueueGenericSend+0x66>
					taskEXIT_CRITICAL();
 8002cb2:	f7ff fcf9 	bl	80026a8 <vPortExitCritical>
			return errQUEUE_FULL;
 8002cb6:	2000      	movs	r0, #0
 8002cb8:	e058      	b.n	8002d6c <xQueueGenericSend+0x118>
				else if( xEntryTimeSet == pdFALSE )
 8002cba:	b916      	cbnz	r6, 8002cc2 <xQueueGenericSend+0x6e>
					vTaskInternalSetTimeOutState( &xTimeOut );
 8002cbc:	a802      	add	r0, sp, #8
 8002cbe:	f000 fceb 	bl	8003698 <vTaskInternalSetTimeOutState>
		taskEXIT_CRITICAL();
 8002cc2:	f7ff fcf1 	bl	80026a8 <vPortExitCritical>
		vTaskSuspendAll();
 8002cc6:	f000 fb1b 	bl	8003300 <vTaskSuspendAll>
		prvLockQueue( pxQueue );
 8002cca:	f7ff fccb 	bl	8002664 <vPortEnterCritical>
 8002cce:	f894 3044 	ldrb.w	r3, [r4, #68]	; 0x44
 8002cd2:	2bff      	cmp	r3, #255	; 0xff
 8002cd4:	bf08      	it	eq
 8002cd6:	f884 8044 	strbeq.w	r8, [r4, #68]	; 0x44
 8002cda:	f894 3045 	ldrb.w	r3, [r4, #69]	; 0x45
 8002cde:	2bff      	cmp	r3, #255	; 0xff
 8002ce0:	bf08      	it	eq
 8002ce2:	f884 8045 	strbeq.w	r8, [r4, #69]	; 0x45
 8002ce6:	f7ff fcdf 	bl	80026a8 <vPortExitCritical>
		if( xTaskCheckForTimeOut( &xTimeOut, &xTicksToWait ) == pdFALSE )
 8002cea:	a901      	add	r1, sp, #4
 8002cec:	a802      	add	r0, sp, #8
 8002cee:	f000 fcdf 	bl	80036b0 <xTaskCheckForTimeOut>
 8002cf2:	2800      	cmp	r0, #0
 8002cf4:	d143      	bne.n	8002d7e <xQueueGenericSend+0x12a>

static BaseType_t prvIsQueueFull( const Queue_t *pxQueue )
{
BaseType_t xReturn;

	taskENTER_CRITICAL();
 8002cf6:	f7ff fcb5 	bl	8002664 <vPortEnterCritical>
	{
		if( pxQueue->uxMessagesWaiting == pxQueue->uxLength )
 8002cfa:	6ba6      	ldr	r6, [r4, #56]	; 0x38
 8002cfc:	6be5      	ldr	r5, [r4, #60]	; 0x3c
		else
		{
			xReturn = pdFALSE;
		}
	}
	taskEXIT_CRITICAL();
 8002cfe:	f7ff fcd3 	bl	80026a8 <vPortExitCritical>
			if( prvIsQueueFull( pxQueue ) != pdFALSE )
 8002d02:	42ae      	cmp	r6, r5
 8002d04:	d135      	bne.n	8002d72 <xQueueGenericSend+0x11e>
				vTaskPlaceOnEventList( &( pxQueue->xTasksWaitingToSend ), xTicksToWait );
 8002d06:	9901      	ldr	r1, [sp, #4]
 8002d08:	f104 0010 	add.w	r0, r4, #16
 8002d0c:	f000 fc68 	bl	80035e0 <vTaskPlaceOnEventList>
				prvUnlockQueue( pxQueue );
 8002d10:	4620      	mov	r0, r4
 8002d12:	f7ff ff02 	bl	8002b1a <prvUnlockQueue>
				if( xTaskResumeAll() == pdFALSE )
 8002d16:	f000 fb8d 	bl	8003434 <xTaskResumeAll>
 8002d1a:	b938      	cbnz	r0, 8002d2c <xQueueGenericSend+0xd8>
					portYIELD_WITHIN_API();
 8002d1c:	f04f 5380 	mov.w	r3, #268435456	; 0x10000000
 8002d20:	f8ca 3000 	str.w	r3, [sl]
 8002d24:	f3bf 8f4f 	dsb	sy
 8002d28:	f3bf 8f6f 	isb	sy
 8002d2c:	2601      	movs	r6, #1
		taskENTER_CRITICAL();
 8002d2e:	f7ff fc99 	bl	8002664 <vPortEnterCritical>
			if( ( pxQueue->uxMessagesWaiting < pxQueue->uxLength ) || ( xCopyPosition == queueOVERWRITE ) )
 8002d32:	6ba2      	ldr	r2, [r4, #56]	; 0x38
 8002d34:	6be3      	ldr	r3, [r4, #60]	; 0x3c
 8002d36:	429a      	cmp	r2, r3
 8002d38:	d301      	bcc.n	8002d3e <xQueueGenericSend+0xea>
 8002d3a:	2f02      	cmp	r7, #2
 8002d3c:	d1b7      	bne.n	8002cae <xQueueGenericSend+0x5a>
				xYieldRequired = prvCopyDataToQueue( pxQueue, pvItemToQueue, xCopyPosition );
 8002d3e:	463a      	mov	r2, r7
 8002d40:	4649      	mov	r1, r9
 8002d42:	4620      	mov	r0, r4
 8002d44:	f7ff fea1 	bl	8002a8a <prvCopyDataToQueue>
					if( listLIST_IS_EMPTY( &( pxQueue->xTasksWaitingToReceive ) ) == pdFALSE )
 8002d48:	6a63      	ldr	r3, [r4, #36]	; 0x24
 8002d4a:	b11b      	cbz	r3, 8002d54 <xQueueGenericSend+0x100>
						if( xTaskRemoveFromEventList( &( pxQueue->xTasksWaitingToReceive ) ) != pdFALSE )
 8002d4c:	f104 0024 	add.w	r0, r4, #36	; 0x24
 8002d50:	f000 fc60 	bl	8003614 <xTaskRemoveFromEventList>
					else if( xYieldRequired != pdFALSE )
 8002d54:	b138      	cbz	r0, 8002d66 <xQueueGenericSend+0x112>
						queueYIELD_IF_USING_PREEMPTION();
 8002d56:	4b19      	ldr	r3, [pc, #100]	; (8002dbc <xQueueGenericSend+0x168>)
 8002d58:	f04f 5280 	mov.w	r2, #268435456	; 0x10000000
 8002d5c:	601a      	str	r2, [r3, #0]
 8002d5e:	f3bf 8f4f 	dsb	sy
 8002d62:	f3bf 8f6f 	isb	sy
				taskEXIT_CRITICAL();
 8002d66:	f7ff fc9f 	bl	80026a8 <vPortExitCritical>
				return pdPASS;
 8002d6a:	2001      	movs	r0, #1
}
 8002d6c:	b004      	add	sp, #16
 8002d6e:	e8bd 87f0 	ldmia.w	sp!, {r4, r5, r6, r7, r8, r9, sl, pc}
				prvUnlockQueue( pxQueue );
 8002d72:	4620      	mov	r0, r4
 8002d74:	f7ff fed1 	bl	8002b1a <prvUnlockQueue>
				( void ) xTaskResumeAll();
 8002d78:	f000 fb5c 	bl	8003434 <xTaskResumeAll>
 8002d7c:	e7d6      	b.n	8002d2c <xQueueGenericSend+0xd8>
			prvUnlockQueue( pxQueue );
 8002d7e:	4620      	mov	r0, r4
 8002d80:	f7ff fecb 	bl	8002b1a <prvUnlockQueue>
			( void ) xTaskResumeAll();
 8002d84:	f000 fb56 	bl	8003434 <xTaskResumeAll>
 8002d88:	e795      	b.n	8002cb6 <xQueueGenericSend+0x62>
	configASSERT( !( ( xCopyPosition == queueOVERWRITE ) && ( pxQueue->uxLength != 1 ) ) );
 8002d8a:	2f02      	cmp	r7, #2
 8002d8c:	d102      	bne.n	8002d94 <xQueueGenericSend+0x140>
 8002d8e:	6be3      	ldr	r3, [r4, #60]	; 0x3c
 8002d90:	2b01      	cmp	r3, #1
 8002d92:	d10a      	bne.n	8002daa <xQueueGenericSend+0x156>
		configASSERT( !( ( xTaskGetSchedulerState() == taskSCHEDULER_SUSPENDED ) && ( xTicksToWait != 0 ) ) );
 8002d94:	f000 fcce 	bl	8003734 <xTaskGetSchedulerState>
 8002d98:	2800      	cmp	r0, #0
 8002d9a:	f43f af7b 	beq.w	8002c94 <xQueueGenericSend+0x40>
 8002d9e:	2600      	movs	r6, #0
		prvLockQueue( pxQueue );
 8002da0:	f04f 0800 	mov.w	r8, #0
					portYIELD_WITHIN_API();
 8002da4:	f8df a014 	ldr.w	sl, [pc, #20]	; 8002dbc <xQueueGenericSend+0x168>
 8002da8:	e7c1      	b.n	8002d2e <xQueueGenericSend+0xda>
 8002daa:	f04f 0350 	mov.w	r3, #80	; 0x50
 8002dae:	f383 8811 	msr	BASEPRI, r3
 8002db2:	f3bf 8f6f 	isb	sy
 8002db6:	f3bf 8f4f 	dsb	sy
 8002dba:	e7fe      	b.n	8002dba <xQueueGenericSend+0x166>
 8002dbc:	e000ed04 	.word	0xe000ed04

08002dc0 <xQueueReceive>:
{
 8002dc0:	e92d 43f0 	stmdb	sp!, {r4, r5, r6, r7, r8, r9, lr}
 8002dc4:	b085      	sub	sp, #20
 8002dc6:	4688      	mov	r8, r1
 8002dc8:	9201      	str	r2, [sp, #4]
	configASSERT( ( pxQueue ) );
 8002dca:	4604      	mov	r4, r0
 8002dcc:	b940      	cbnz	r0, 8002de0 <xQueueReceive+0x20>
 8002dce:	f04f 0350 	mov.w	r3, #80	; 0x50
 8002dd2:	f383 8811 	msr	BASEPRI, r3
 8002dd6:	f3bf 8f6f 	isb	sy
 8002dda:	f3bf 8f4f 	dsb	sy
 8002dde:	e7fe      	b.n	8002dde <xQueueReceive+0x1e>
	configASSERT( !( ( ( pvBuffer ) == NULL ) && ( ( pxQueue )->uxItemSize != ( UBaseType_t ) 0U ) ) );
 8002de0:	2900      	cmp	r1, #0
 8002de2:	f040 8086 	bne.w	8002ef2 <xQueueReceive+0x132>
 8002de6:	6c03      	ldr	r3, [r0, #64]	; 0x40
 8002de8:	2b00      	cmp	r3, #0
 8002dea:	f000 8082 	beq.w	8002ef2 <xQueueReceive+0x132>
 8002dee:	f04f 0350 	mov.w	r3, #80	; 0x50
 8002df2:	f383 8811 	msr	BASEPRI, r3
 8002df6:	f3bf 8f6f 	isb	sy
 8002dfa:	f3bf 8f4f 	dsb	sy
 8002dfe:	e7fe      	b.n	8002dfe <xQueueReceive+0x3e>
		configASSERT( !( ( xTaskGetSchedulerState() == taskSCHEDULER_SUSPENDED ) && ( xTicksToWait != 0 ) ) );
 8002e00:	9e01      	ldr	r6, [sp, #4]
 8002e02:	2e00      	cmp	r6, #0
 8002e04:	d07a      	beq.n	8002efc <xQueueReceive+0x13c>
 8002e06:	f04f 0350 	mov.w	r3, #80	; 0x50
 8002e0a:	f383 8811 	msr	BASEPRI, r3
 8002e0e:	f3bf 8f6f 	isb	sy
 8002e12:	f3bf 8f4f 	dsb	sy
 8002e16:	e7fe      	b.n	8002e16 <xQueueReceive+0x56>
				if( xTicksToWait == ( TickType_t ) 0 )
 8002e18:	9d01      	ldr	r5, [sp, #4]
 8002e1a:	b91d      	cbnz	r5, 8002e24 <xQueueReceive+0x64>
					taskEXIT_CRITICAL();
 8002e1c:	f7ff fc44 	bl	80026a8 <vPortExitCritical>
				return errQUEUE_EMPTY;
 8002e20:	2000      	movs	r0, #0
 8002e22:	e052      	b.n	8002eca <xQueueReceive+0x10a>
				else if( xEntryTimeSet == pdFALSE )
 8002e24:	b916      	cbnz	r6, 8002e2c <xQueueReceive+0x6c>
					vTaskInternalSetTimeOutState( &xTimeOut );
 8002e26:	a802      	add	r0, sp, #8
 8002e28:	f000 fc36 	bl	8003698 <vTaskInternalSetTimeOutState>
		taskEXIT_CRITICAL();
 8002e2c:	f7ff fc3c 	bl	80026a8 <vPortExitCritical>
		vTaskSuspendAll();
 8002e30:	f000 fa66 	bl	8003300 <vTaskSuspendAll>
		prvLockQueue( pxQueue );
 8002e34:	f7ff fc16 	bl	8002664 <vPortEnterCritical>
 8002e38:	f894 3044 	ldrb.w	r3, [r4, #68]	; 0x44
 8002e3c:	2bff      	cmp	r3, #255	; 0xff
 8002e3e:	bf08      	it	eq
 8002e40:	f884 7044 	strbeq.w	r7, [r4, #68]	; 0x44
 8002e44:	f894 3045 	ldrb.w	r3, [r4, #69]	; 0x45
 8002e48:	2bff      	cmp	r3, #255	; 0xff
 8002e4a:	bf08      	it	eq
 8002e4c:	f884 7045 	strbeq.w	r7, [r4, #69]	; 0x45
 8002e50:	f7ff fc2a 	bl	80026a8 <vPortExitCritical>
		if( xTaskCheckForTimeOut( &xTimeOut, &xTicksToWait ) == pdFALSE )
 8002e54:	a901      	add	r1, sp, #4
 8002e56:	a802      	add	r0, sp, #8
 8002e58:	f000 fc2a 	bl	80036b0 <xTaskCheckForTimeOut>
 8002e5c:	2800      	cmp	r0, #0
 8002e5e:	d13d      	bne.n	8002edc <xQueueReceive+0x11c>
			if( prvIsQueueEmpty( pxQueue ) != pdFALSE )
 8002e60:	4620      	mov	r0, r4
 8002e62:	f7ff fe07 	bl	8002a74 <prvIsQueueEmpty>
 8002e66:	b398      	cbz	r0, 8002ed0 <xQueueReceive+0x110>
				vTaskPlaceOnEventList( &( pxQueue->xTasksWaitingToReceive ), xTicksToWait );
 8002e68:	9901      	ldr	r1, [sp, #4]
 8002e6a:	f104 0024 	add.w	r0, r4, #36	; 0x24
 8002e6e:	f000 fbb7 	bl	80035e0 <vTaskPlaceOnEventList>
				prvUnlockQueue( pxQueue );
 8002e72:	4620      	mov	r0, r4
 8002e74:	f7ff fe51 	bl	8002b1a <prvUnlockQueue>
				if( xTaskResumeAll() == pdFALSE )
 8002e78:	f000 fadc 	bl	8003434 <xTaskResumeAll>
 8002e7c:	b938      	cbnz	r0, 8002e8e <xQueueReceive+0xce>
					portYIELD_WITHIN_API();
 8002e7e:	f04f 5380 	mov.w	r3, #268435456	; 0x10000000
 8002e82:	f8c9 3000 	str.w	r3, [r9]
 8002e86:	f3bf 8f4f 	dsb	sy
 8002e8a:	f3bf 8f6f 	isb	sy
 8002e8e:	2601      	movs	r6, #1
		taskENTER_CRITICAL();
 8002e90:	f7ff fbe8 	bl	8002664 <vPortEnterCritical>
			const UBaseType_t uxMessagesWaiting = pxQueue->uxMessagesWaiting;
 8002e94:	6ba5      	ldr	r5, [r4, #56]	; 0x38
			if( uxMessagesWaiting > ( UBaseType_t ) 0 )
 8002e96:	2d00      	cmp	r5, #0
 8002e98:	d0be      	beq.n	8002e18 <xQueueReceive+0x58>
				prvCopyDataFromQueue( pxQueue, pvBuffer );
 8002e9a:	4641      	mov	r1, r8
 8002e9c:	4620      	mov	r0, r4
				pxQueue->uxMessagesWaiting = uxMessagesWaiting - ( UBaseType_t ) 1;
 8002e9e:	3d01      	subs	r5, #1
				prvCopyDataFromQueue( pxQueue, pvBuffer );
 8002ea0:	f7ff fe26 	bl	8002af0 <prvCopyDataFromQueue>
				pxQueue->uxMessagesWaiting = uxMessagesWaiting - ( UBaseType_t ) 1;
 8002ea4:	63a5      	str	r5, [r4, #56]	; 0x38
				if( listLIST_IS_EMPTY( &( pxQueue->xTasksWaitingToSend ) ) == pdFALSE )
 8002ea6:	6923      	ldr	r3, [r4, #16]
 8002ea8:	b163      	cbz	r3, 8002ec4 <xQueueReceive+0x104>
					if( xTaskRemoveFromEventList( &( pxQueue->xTasksWaitingToSend ) ) != pdFALSE )
 8002eaa:	f104 0010 	add.w	r0, r4, #16
 8002eae:	f000 fbb1 	bl	8003614 <xTaskRemoveFromEventList>
 8002eb2:	b138      	cbz	r0, 8002ec4 <xQueueReceive+0x104>
						queueYIELD_IF_USING_PREEMPTION();
 8002eb4:	4b13      	ldr	r3, [pc, #76]	; (8002f04 <xQueueReceive+0x144>)
 8002eb6:	f04f 5280 	mov.w	r2, #268435456	; 0x10000000
 8002eba:	601a      	str	r2, [r3, #0]
 8002ebc:	f3bf 8f4f 	dsb	sy
 8002ec0:	f3bf 8f6f 	isb	sy
				taskEXIT_CRITICAL();
 8002ec4:	f7ff fbf0 	bl	80026a8 <vPortExitCritical>
				return pdPASS;
 8002ec8:	2001      	movs	r0, #1
}
 8002eca:	b005      	add	sp, #20
 8002ecc:	e8bd 83f0 	ldmia.w	sp!, {r4, r5, r6, r7, r8, r9, pc}
				prvUnlockQueue( pxQueue );
 8002ed0:	4620      	mov	r0, r4
 8002ed2:	f7ff fe22 	bl	8002b1a <prvUnlockQueue>
				( void ) xTaskResumeAll();
 8002ed6:	f000 faad 	bl	8003434 <xTaskResumeAll>
 8002eda:	e7d8      	b.n	8002e8e <xQueueReceive+0xce>
			prvUnlockQueue( pxQueue );
 8002edc:	4620      	mov	r0, r4
 8002ede:	f7ff fe1c 	bl	8002b1a <prvUnlockQueue>
			( void ) xTaskResumeAll();
 8002ee2:	f000 faa7 	bl	8003434 <xTaskResumeAll>
			if( prvIsQueueEmpty( pxQueue ) != pdFALSE )
 8002ee6:	4620      	mov	r0, r4
 8002ee8:	f7ff fdc4 	bl	8002a74 <prvIsQueueEmpty>
 8002eec:	2800      	cmp	r0, #0
 8002eee:	d0ce      	beq.n	8002e8e <xQueueReceive+0xce>
 8002ef0:	e796      	b.n	8002e20 <xQueueReceive+0x60>
		configASSERT( !( ( xTaskGetSchedulerState() == taskSCHEDULER_SUSPENDED ) && ( xTicksToWait != 0 ) ) );
 8002ef2:	f000 fc1f 	bl	8003734 <xTaskGetSchedulerState>
 8002ef6:	2800      	cmp	r0, #0
 8002ef8:	d082      	beq.n	8002e00 <xQueueReceive+0x40>
 8002efa:	2600      	movs	r6, #0
		prvLockQueue( pxQueue );
 8002efc:	2700      	movs	r7, #0
					portYIELD_WITHIN_API();
 8002efe:	f8df 9004 	ldr.w	r9, [pc, #4]	; 8002f04 <xQueueReceive+0x144>
 8002f02:	e7c5      	b.n	8002e90 <xQueueReceive+0xd0>
 8002f04:	e000ed04 	.word	0xe000ed04

08002f08 <prvAddNewTaskToReadyList>:
	}
}
/*-----------------------------------------------------------*/

static void prvAddNewTaskToReadyList( TCB_t *pxNewTCB )
{
 8002f08:	e92d 41f0 	stmdb	sp!, {r4, r5, r6, r7, r8, lr}
 8002f0c:	4606      	mov	r6, r0
	/* Ensure interrupts don't access the task lists while the lists are being
	updated. */
	taskENTER_CRITICAL();
 8002f0e:	f7ff fba9 	bl	8002664 <vPortEnterCritical>
	{
		uxCurrentNumberOfTasks++;
 8002f12:	4b2d      	ldr	r3, [pc, #180]	; (8002fc8 <prvAddNewTaskToReadyList+0xc0>)
		if( pxCurrentTCB == NULL )
 8002f14:	4c2d      	ldr	r4, [pc, #180]	; (8002fcc <prvAddNewTaskToReadyList+0xc4>)
		uxCurrentNumberOfTasks++;
 8002f16:	681a      	ldr	r2, [r3, #0]
 8002f18:	4f2d      	ldr	r7, [pc, #180]	; (8002fd0 <prvAddNewTaskToReadyList+0xc8>)
 8002f1a:	3201      	adds	r2, #1
 8002f1c:	601a      	str	r2, [r3, #0]
		if( pxCurrentTCB == NULL )
 8002f1e:	6825      	ldr	r5, [r4, #0]
 8002f20:	2d00      	cmp	r5, #0
 8002f22:	d145      	bne.n	8002fb0 <prvAddNewTaskToReadyList+0xa8>
		{
			/* There are no other tasks, or all the other tasks are in
			the suspended state - make this the current task. */
			pxCurrentTCB = pxNewTCB;
 8002f24:	6026      	str	r6, [r4, #0]

			if( uxCurrentNumberOfTasks == ( UBaseType_t ) 1 )
 8002f26:	681b      	ldr	r3, [r3, #0]
 8002f28:	2b01      	cmp	r3, #1
 8002f2a:	d11c      	bne.n	8002f66 <prvAddNewTaskToReadyList+0x5e>
{
UBaseType_t uxPriority;

	for( uxPriority = ( UBaseType_t ) 0U; uxPriority < ( UBaseType_t ) configMAX_PRIORITIES; uxPriority++ )
	{
		vListInitialise( &( pxReadyTasksLists[ uxPriority ] ) );
 8002f2c:	1978      	adds	r0, r7, r5
 8002f2e:	3514      	adds	r5, #20
 8002f30:	f7ff faea 	bl	8002508 <vListInitialise>
	for( uxPriority = ( UBaseType_t ) 0U; uxPriority < ( UBaseType_t ) configMAX_PRIORITIES; uxPriority++ )
 8002f34:	2d8c      	cmp	r5, #140	; 0x8c
 8002f36:	d1f9      	bne.n	8002f2c <prvAddNewTaskToReadyList+0x24>
	}

	vListInitialise( &xDelayedTaskList1 );
 8002f38:	f8df 80c0 	ldr.w	r8, [pc, #192]	; 8002ffc <prvAddNewTaskToReadyList+0xf4>
	vListInitialise( &xDelayedTaskList2 );
 8002f3c:	4d25      	ldr	r5, [pc, #148]	; (8002fd4 <prvAddNewTaskToReadyList+0xcc>)
	vListInitialise( &xDelayedTaskList1 );
 8002f3e:	4640      	mov	r0, r8
 8002f40:	f7ff fae2 	bl	8002508 <vListInitialise>
	vListInitialise( &xDelayedTaskList2 );
 8002f44:	4628      	mov	r0, r5
 8002f46:	f7ff fadf 	bl	8002508 <vListInitialise>
	vListInitialise( &xPendingReadyList );
 8002f4a:	4823      	ldr	r0, [pc, #140]	; (8002fd8 <prvAddNewTaskToReadyList+0xd0>)
 8002f4c:	f7ff fadc 	bl	8002508 <vListInitialise>

	#if ( INCLUDE_vTaskDelete == 1 )
	{
		vListInitialise( &xTasksWaitingTermination );
 8002f50:	4822      	ldr	r0, [pc, #136]	; (8002fdc <prvAddNewTaskToReadyList+0xd4>)
 8002f52:	f7ff fad9 	bl	8002508 <vListInitialise>
	}
	#endif /* INCLUDE_vTaskDelete */

	#if ( INCLUDE_vTaskSuspend == 1 )
	{
		vListInitialise( &xSuspendedTaskList );
 8002f56:	4822      	ldr	r0, [pc, #136]	; (8002fe0 <prvAddNewTaskToReadyList+0xd8>)
 8002f58:	f7ff fad6 	bl	8002508 <vListInitialise>
	}
	#endif /* INCLUDE_vTaskSuspend */

	/* Start with pxDelayedTaskList using list1 and the pxOverflowDelayedTaskList
	using list2. */
	pxDelayedTaskList = &xDelayedTaskList1;
 8002f5c:	4b21      	ldr	r3, [pc, #132]	; (8002fe4 <prvAddNewTaskToReadyList+0xdc>)
 8002f5e:	f8c3 8000 	str.w	r8, [r3]
	pxOverflowDelayedTaskList = &xDelayedTaskList2;
 8002f62:	4b21      	ldr	r3, [pc, #132]	; (8002fe8 <prvAddNewTaskToReadyList+0xe0>)
 8002f64:	601d      	str	r5, [r3, #0]
		uxTaskNumber++;
 8002f66:	4a21      	ldr	r2, [pc, #132]	; (8002fec <prvAddNewTaskToReadyList+0xe4>)
		prvAddTaskToReadyList( pxNewTCB );
 8002f68:	4921      	ldr	r1, [pc, #132]	; (8002ff0 <prvAddNewTaskToReadyList+0xe8>)
		uxTaskNumber++;
 8002f6a:	6813      	ldr	r3, [r2, #0]
		prvAddTaskToReadyList( pxNewTCB );
 8002f6c:	6808      	ldr	r0, [r1, #0]
		uxTaskNumber++;
 8002f6e:	3301      	adds	r3, #1
 8002f70:	6013      	str	r3, [r2, #0]
		prvAddTaskToReadyList( pxNewTCB );
 8002f72:	6af2      	ldr	r2, [r6, #44]	; 0x2c
 8002f74:	2301      	movs	r3, #1
 8002f76:	4093      	lsls	r3, r2
 8002f78:	4303      	orrs	r3, r0
 8002f7a:	2014      	movs	r0, #20
 8002f7c:	600b      	str	r3, [r1, #0]
 8002f7e:	fb00 7002 	mla	r0, r0, r2, r7
 8002f82:	1d31      	adds	r1, r6, #4
 8002f84:	f7ff face 	bl	8002524 <vListInsertEnd>
	taskEXIT_CRITICAL();
 8002f88:	f7ff fb8e 	bl	80026a8 <vPortExitCritical>
	if( xSchedulerRunning != pdFALSE )
 8002f8c:	4b19      	ldr	r3, [pc, #100]	; (8002ff4 <prvAddNewTaskToReadyList+0xec>)
 8002f8e:	681b      	ldr	r3, [r3, #0]
 8002f90:	b163      	cbz	r3, 8002fac <prvAddNewTaskToReadyList+0xa4>
		if( pxCurrentTCB->uxPriority < pxNewTCB->uxPriority )
 8002f92:	6823      	ldr	r3, [r4, #0]
 8002f94:	6ada      	ldr	r2, [r3, #44]	; 0x2c
 8002f96:	6af3      	ldr	r3, [r6, #44]	; 0x2c
 8002f98:	429a      	cmp	r2, r3
 8002f9a:	d207      	bcs.n	8002fac <prvAddNewTaskToReadyList+0xa4>
			taskYIELD_IF_USING_PREEMPTION();
 8002f9c:	4b16      	ldr	r3, [pc, #88]	; (8002ff8 <prvAddNewTaskToReadyList+0xf0>)
 8002f9e:	f04f 5280 	mov.w	r2, #268435456	; 0x10000000
 8002fa2:	601a      	str	r2, [r3, #0]
 8002fa4:	f3bf 8f4f 	dsb	sy
 8002fa8:	f3bf 8f6f 	isb	sy
 8002fac:	e8bd 81f0 	ldmia.w	sp!, {r4, r5, r6, r7, r8, pc}
			if( xSchedulerRunning == pdFALSE )
 8002fb0:	4b10      	ldr	r3, [pc, #64]	; (8002ff4 <prvAddNewTaskToReadyList+0xec>)
 8002fb2:	681b      	ldr	r3, [r3, #0]
 8002fb4:	2b00      	cmp	r3, #0
 8002fb6:	d1d6      	bne.n	8002f66 <prvAddNewTaskToReadyList+0x5e>
				if( pxCurrentTCB->uxPriority <= pxNewTCB->uxPriority )
 8002fb8:	6823      	ldr	r3, [r4, #0]
 8002fba:	6ada      	ldr	r2, [r3, #44]	; 0x2c
 8002fbc:	6af3      	ldr	r3, [r6, #44]	; 0x2c
 8002fbe:	429a      	cmp	r2, r3
					pxCurrentTCB = pxNewTCB;
 8002fc0:	bf98      	it	ls
 8002fc2:	6026      	strls	r6, [r4, #0]
 8002fc4:	e7cf      	b.n	8002f66 <prvAddNewTaskToReadyList+0x5e>
 8002fc6:	bf00      	nop
 8002fc8:	20004048 	.word	0x20004048
 8002fcc:	20003fb0 	.word	0x20003fb0
 8002fd0:	20003fbc 	.word	0x20003fbc
 8002fd4:	20004074 	.word	0x20004074
 8002fd8:	20004090 	.word	0x20004090
 8002fdc:	200040bc 	.word	0x200040bc
 8002fe0:	200040a8 	.word	0x200040a8
 8002fe4:	20003fb4 	.word	0x20003fb4
 8002fe8:	20003fb8 	.word	0x20003fb8
 8002fec:	20004058 	.word	0x20004058
 8002ff0:	2000405c 	.word	0x2000405c
 8002ff4:	200040a4 	.word	0x200040a4
 8002ff8:	e000ed04 	.word	0xe000ed04
 8002ffc:	20004060 	.word	0x20004060

08003000 <prvResetNextTaskUnblockTime>:

static void prvResetNextTaskUnblockTime( void )
{
TCB_t *pxTCB;

	if( listLIST_IS_EMPTY( pxDelayedTaskList ) != pdFALSE )
 8003000:	4a06      	ldr	r2, [pc, #24]	; (800301c <prvResetNextTaskUnblockTime+0x1c>)
 8003002:	6813      	ldr	r3, [r2, #0]
 8003004:	6819      	ldr	r1, [r3, #0]
 8003006:	4b06      	ldr	r3, [pc, #24]	; (8003020 <prvResetNextTaskUnblockTime+0x20>)
 8003008:	b919      	cbnz	r1, 8003012 <prvResetNextTaskUnblockTime+0x12>
	{
		/* The new current delayed list is empty.  Set xNextTaskUnblockTime to
		the maximum possible value so it is	extremely unlikely that the
		if( xTickCount >= xNextTaskUnblockTime ) test will pass until
		there is an item in the delayed list. */
		xNextTaskUnblockTime = portMAX_DELAY;
 800300a:	f04f 32ff 	mov.w	r2, #4294967295	; 0xffffffff
		/* The new current delayed list is not empty, get the value of
		the item at the head of the delayed list.  This is the time at
		which the task at the head of the delayed list should be removed
		from the Blocked state. */
		( pxTCB ) = ( TCB_t * ) listGET_OWNER_OF_HEAD_ENTRY( pxDelayedTaskList );
		xNextTaskUnblockTime = listGET_LIST_ITEM_VALUE( &( ( pxTCB )->xStateListItem ) );
 800300e:	601a      	str	r2, [r3, #0]
 8003010:	4770      	bx	lr
		( pxTCB ) = ( TCB_t * ) listGET_OWNER_OF_HEAD_ENTRY( pxDelayedTaskList );
 8003012:	6812      	ldr	r2, [r2, #0]
 8003014:	68d2      	ldr	r2, [r2, #12]
		xNextTaskUnblockTime = listGET_LIST_ITEM_VALUE( &( ( pxTCB )->xStateListItem ) );
 8003016:	68d2      	ldr	r2, [r2, #12]
 8003018:	6852      	ldr	r2, [r2, #4]
 800301a:	e7f8      	b.n	800300e <prvResetNextTaskUnblockTime+0xe>
 800301c:	20003fb4 	.word	0x20003fb4
 8003020:	20004088 	.word	0x20004088

08003024 <prvInitialiseNewTask.isra.2>:
static void prvInitialiseNewTask( 	TaskFunction_t pxTaskCode,
 8003024:	e92d 47f0 	stmdb	sp!, {r4, r5, r6, r7, r8, r9, sl, lr}
 8003028:	9c0a      	ldr	r4, [sp, #40]	; 0x28
 800302a:	f8dd 8024 	ldr.w	r8, [sp, #36]	; 0x24
		pxTopOfStack = pxNewTCB->pxStack + ( ulStackDepth - ( uint32_t ) 1 );
 800302e:	6b26      	ldr	r6, [r4, #48]	; 0x30
 8003030:	f102 4280 	add.w	r2, r2, #1073741824	; 0x40000000
 8003034:	3a01      	subs	r2, #1
 8003036:	eb06 0682 	add.w	r6, r6, r2, lsl #2
static void prvInitialiseNewTask( 	TaskFunction_t pxTaskCode,
 800303a:	469a      	mov	sl, r3
 800303c:	4681      	mov	r9, r0
 800303e:	1e4b      	subs	r3, r1, #1
		pxTopOfStack = ( StackType_t * ) ( ( ( portPOINTER_SIZE_TYPE ) pxTopOfStack ) & ( ~( ( portPOINTER_SIZE_TYPE ) portBYTE_ALIGNMENT_MASK ) ) ); /*lint !e923 MISRA exception.  Avoiding casts between pointers and integers is not practical.  Size differences accounted for using portPOINTER_SIZE_TYPE type. */
 8003040:	f026 0607 	bic.w	r6, r6, #7
 8003044:	f104 0234 	add.w	r2, r4, #52	; 0x34
 8003048:	310f      	adds	r1, #15
		pxNewTCB->pcTaskName[ x ] = pcName[ x ];
 800304a:	7858      	ldrb	r0, [r3, #1]
 800304c:	f802 0b01 	strb.w	r0, [r2], #1
		if( pcName[ x ] == 0x00 )
 8003050:	f813 0f01 	ldrb.w	r0, [r3, #1]!
 8003054:	b108      	cbz	r0, 800305a <prvInitialiseNewTask.isra.2+0x36>
	for( x = ( UBaseType_t ) 0; x < ( UBaseType_t ) configMAX_TASK_NAME_LEN; x++ )
 8003056:	428b      	cmp	r3, r1
 8003058:	d1f7      	bne.n	800304a <prvInitialiseNewTask.isra.2+0x26>
 800305a:	9d08      	ldr	r5, [sp, #32]
 800305c:	2d06      	cmp	r5, #6
 800305e:	bf28      	it	cs
 8003060:	2506      	movcs	r5, #6
	pxNewTCB->pcTaskName[ configMAX_TASK_NAME_LEN - 1 ] = '\0';
 8003062:	2700      	movs	r7, #0
	pxNewTCB->uxPriority = uxPriority;
 8003064:	62e5      	str	r5, [r4, #44]	; 0x2c
		pxNewTCB->uxBasePriority = uxPriority;
 8003066:	6465      	str	r5, [r4, #68]	; 0x44
	vListInitialiseItem( &( pxNewTCB->xStateListItem ) );
 8003068:	1d20      	adds	r0, r4, #4
	pxNewTCB->pcTaskName[ configMAX_TASK_NAME_LEN - 1 ] = '\0';
 800306a:	f884 7043 	strb.w	r7, [r4, #67]	; 0x43
		pxNewTCB->uxMutexesHeld = 0;
 800306e:	64a7      	str	r7, [r4, #72]	; 0x48
	vListInitialiseItem( &( pxNewTCB->xStateListItem ) );
 8003070:	f7ff fa55 	bl	800251e <vListInitialiseItem>
	listSET_LIST_ITEM_VALUE( &( pxNewTCB->xEventListItem ), ( TickType_t ) configMAX_PRIORITIES - ( TickType_t ) uxPriority ); /*lint !e961 MISRA exception as the casts are only redundant for some ports. */
 8003074:	f1c5 0507 	rsb	r5, r5, #7
	vListInitialiseItem( &( pxNewTCB->xEventListItem ) );
 8003078:	f104 0018 	add.w	r0, r4, #24
 800307c:	f7ff fa4f 	bl	800251e <vListInitialiseItem>
		pxNewTCB->ulNotifiedValue = 0;
 8003080:	64e7      	str	r7, [r4, #76]	; 0x4c
	listSET_LIST_ITEM_OWNER( &( pxNewTCB->xStateListItem ), pxNewTCB );
 8003082:	6124      	str	r4, [r4, #16]
	listSET_LIST_ITEM_VALUE( &( pxNewTCB->xEventListItem ), ( TickType_t ) configMAX_PRIORITIES - ( TickType_t ) uxPriority ); /*lint !e961 MISRA exception as the casts are only redundant for some ports. */
 8003084:	61a5      	str	r5, [r4, #24]
	listSET_LIST_ITEM_OWNER( &( pxNewTCB->xEventListItem ), pxNewTCB );
 8003086:	6264      	str	r4, [r4, #36]	; 0x24
		pxNewTCB->ucNotifyState = taskNOT_WAITING_NOTIFICATION;
 8003088:	f884 7050 	strb.w	r7, [r4, #80]	; 0x50
		pxNewTCB->pxTopOfStack = pxPortInitialiseStack( pxTopOfStack, pxTaskCode, pvParameters );
 800308c:	4652      	mov	r2, sl
 800308e:	4649      	mov	r1, r9
 8003090:	4630      	mov	r0, r6
 8003092:	f7ff fab9 	bl	8002608 <pxPortInitialiseStack>
 8003096:	6020      	str	r0, [r4, #0]
	if( ( void * ) pxCreatedTask != NULL )
 8003098:	f1b8 0f00 	cmp.w	r8, #0
 800309c:	d001      	beq.n	80030a2 <prvInitialiseNewTask.isra.2+0x7e>
		*pxCreatedTask = ( TaskHandle_t ) pxNewTCB;
 800309e:	f8c8 4000 	str.w	r4, [r8]
 80030a2:	e8bd 87f0 	ldmia.w	sp!, {r4, r5, r6, r7, r8, r9, sl, pc}

080030a6 <prvDeleteTCB>:
	{
 80030a6:	b510      	push	{r4, lr}
			if( pxTCB->ucStaticallyAllocated == tskDYNAMICALLY_ALLOCATED_STACK_AND_TCB )
 80030a8:	f890 3051 	ldrb.w	r3, [r0, #81]	; 0x51
	{
 80030ac:	4604      	mov	r4, r0
			if( pxTCB->ucStaticallyAllocated == tskDYNAMICALLY_ALLOCATED_STACK_AND_TCB )
 80030ae:	b93b      	cbnz	r3, 80030c0 <prvDeleteTCB+0x1a>
				vPortFree( pxTCB->pxStack );
 80030b0:	6b00      	ldr	r0, [r0, #48]	; 0x30
 80030b2:	f7ff fca7 	bl	8002a04 <vPortFree>
				vPortFree( pxTCB );
 80030b6:	4620      	mov	r0, r4
	}
 80030b8:	e8bd 4010 	ldmia.w	sp!, {r4, lr}
				vPortFree( pxTCB );
 80030bc:	f7ff bca2 	b.w	8002a04 <vPortFree>
			else if( pxTCB->ucStaticallyAllocated == tskSTATICALLY_ALLOCATED_STACK_ONLY )
 80030c0:	2b01      	cmp	r3, #1
 80030c2:	d0f9      	beq.n	80030b8 <prvDeleteTCB+0x12>
				configASSERT( pxTCB->ucStaticallyAllocated == tskSTATICALLY_ALLOCATED_STACK_AND_TCB	);
 80030c4:	2b02      	cmp	r3, #2
 80030c6:	d008      	beq.n	80030da <prvDeleteTCB+0x34>
 80030c8:	f04f 0350 	mov.w	r3, #80	; 0x50
 80030cc:	f383 8811 	msr	BASEPRI, r3
 80030d0:	f3bf 8f6f 	isb	sy
 80030d4:	f3bf 8f4f 	dsb	sy
 80030d8:	e7fe      	b.n	80030d8 <prvDeleteTCB+0x32>
 80030da:	bd10      	pop	{r4, pc}

080030dc <prvIdleTask>:
{
 80030dc:	b580      	push	{r7, lr}
				taskYIELD();
 80030de:	f8df 805c 	ldr.w	r8, [pc, #92]	; 800313c <prvIdleTask+0x60>
				pxTCB = ( TCB_t * ) listGET_OWNER_OF_HEAD_ENTRY( ( &xTasksWaitingTermination ) );
 80030e2:	4f12      	ldr	r7, [pc, #72]	; (800312c <prvIdleTask+0x50>)
		while( uxDeletedTasksWaitingCleanUp > ( UBaseType_t ) 0U )
 80030e4:	4c12      	ldr	r4, [pc, #72]	; (8003130 <prvIdleTask+0x54>)
				--uxCurrentNumberOfTasks;
 80030e6:	4d13      	ldr	r5, [pc, #76]	; (8003134 <prvIdleTask+0x58>)
		while( uxDeletedTasksWaitingCleanUp > ( UBaseType_t ) 0U )
 80030e8:	6823      	ldr	r3, [r4, #0]
 80030ea:	b963      	cbnz	r3, 8003106 <prvIdleTask+0x2a>
			if( listCURRENT_LIST_LENGTH( &( pxReadyTasksLists[ tskIDLE_PRIORITY ] ) ) > ( UBaseType_t ) 1 )
 80030ec:	4b12      	ldr	r3, [pc, #72]	; (8003138 <prvIdleTask+0x5c>)
 80030ee:	681b      	ldr	r3, [r3, #0]
 80030f0:	2b01      	cmp	r3, #1
 80030f2:	d9f8      	bls.n	80030e6 <prvIdleTask+0xa>
				taskYIELD();
 80030f4:	f04f 5380 	mov.w	r3, #268435456	; 0x10000000
 80030f8:	f8c8 3000 	str.w	r3, [r8]
 80030fc:	f3bf 8f4f 	dsb	sy
 8003100:	f3bf 8f6f 	isb	sy
 8003104:	e7ee      	b.n	80030e4 <prvIdleTask+0x8>
			taskENTER_CRITICAL();
 8003106:	f7ff faad 	bl	8002664 <vPortEnterCritical>
				pxTCB = ( TCB_t * ) listGET_OWNER_OF_HEAD_ENTRY( ( &xTasksWaitingTermination ) );
 800310a:	68fb      	ldr	r3, [r7, #12]
 800310c:	68de      	ldr	r6, [r3, #12]
				( void ) uxListRemove( &( pxTCB->xStateListItem ) );
 800310e:	1d30      	adds	r0, r6, #4
 8003110:	f7ff fa2b 	bl	800256a <uxListRemove>
				--uxCurrentNumberOfTasks;
 8003114:	682b      	ldr	r3, [r5, #0]
 8003116:	3b01      	subs	r3, #1
 8003118:	602b      	str	r3, [r5, #0]
				--uxDeletedTasksWaitingCleanUp;
 800311a:	6823      	ldr	r3, [r4, #0]
 800311c:	3b01      	subs	r3, #1
 800311e:	6023      	str	r3, [r4, #0]
			taskEXIT_CRITICAL();
 8003120:	f7ff fac2 	bl	80026a8 <vPortExitCritical>
			prvDeleteTCB( pxTCB );
 8003124:	4630      	mov	r0, r6
 8003126:	f7ff ffbe 	bl	80030a6 <prvDeleteTCB>
 800312a:	e7dd      	b.n	80030e8 <prvIdleTask+0xc>
 800312c:	200040bc 	.word	0x200040bc
 8003130:	2000404c 	.word	0x2000404c
 8003134:	20004048 	.word	0x20004048
 8003138:	20003fbc 	.word	0x20003fbc
 800313c:	e000ed04 	.word	0xe000ed04

08003140 <prvAddCurrentTaskToDelayedList>:
#endif /* configUSE_TASK_NOTIFICATIONS */
/*-----------------------------------------------------------*/


static void prvAddCurrentTaskToDelayedList( TickType_t xTicksToWait, const BaseType_t xCanBlockIndefinitely )
{
 8003140:	b5f8      	push	{r3, r4, r5, r6, r7, lr}
TickType_t xTimeToWake;
const TickType_t xConstTickCount = xTickCount;
 8003142:	4b1b      	ldr	r3, [pc, #108]	; (80031b0 <prvAddCurrentTaskToDelayedList+0x70>)
	}
	#endif

	/* Remove the task from the ready list before adding it to the blocked list
	as the same list item is used for both lists. */
	if( uxListRemove( &( pxCurrentTCB->xStateListItem ) ) == ( UBaseType_t ) 0 )
 8003144:	4e1b      	ldr	r6, [pc, #108]	; (80031b4 <prvAddCurrentTaskToDelayedList+0x74>)
const TickType_t xConstTickCount = xTickCount;
 8003146:	681d      	ldr	r5, [r3, #0]
{
 8003148:	4604      	mov	r4, r0
	if( uxListRemove( &( pxCurrentTCB->xStateListItem ) ) == ( UBaseType_t ) 0 )
 800314a:	6830      	ldr	r0, [r6, #0]
 800314c:	3004      	adds	r0, #4
{
 800314e:	460f      	mov	r7, r1
	if( uxListRemove( &( pxCurrentTCB->xStateListItem ) ) == ( UBaseType_t ) 0 )
 8003150:	f7ff fa0b 	bl	800256a <uxListRemove>
 8003154:	4633      	mov	r3, r6
 8003156:	b940      	cbnz	r0, 800316a <prvAddCurrentTaskToDelayedList+0x2a>
	{
		/* The current task must be in a ready list, so there is no need to
		check, and the port reset macro can be called directly. */
		portRESET_READY_PRIORITY( pxCurrentTCB->uxPriority, uxTopReadyPriority );
 8003158:	6831      	ldr	r1, [r6, #0]
 800315a:	4e17      	ldr	r6, [pc, #92]	; (80031b8 <prvAddCurrentTaskToDelayedList+0x78>)
 800315c:	6ac9      	ldr	r1, [r1, #44]	; 0x2c
 800315e:	6832      	ldr	r2, [r6, #0]
 8003160:	2001      	movs	r0, #1
 8003162:	4088      	lsls	r0, r1
 8003164:	ea22 0200 	bic.w	r2, r2, r0
 8003168:	6032      	str	r2, [r6, #0]
		mtCOVERAGE_TEST_MARKER();
	}

	#if ( INCLUDE_vTaskSuspend == 1 )
	{
		if( ( xTicksToWait == portMAX_DELAY ) && ( xCanBlockIndefinitely != pdFALSE ) )
 800316a:	1c62      	adds	r2, r4, #1
 800316c:	d107      	bne.n	800317e <prvAddCurrentTaskToDelayedList+0x3e>
 800316e:	b137      	cbz	r7, 800317e <prvAddCurrentTaskToDelayedList+0x3e>
		{
			/* Add the task to the suspended task list instead of a delayed task
			list to ensure it is not woken by a timing event.  It will block
			indefinitely. */
			vListInsertEnd( &xSuspendedTaskList, &( pxCurrentTCB->xStateListItem ) );
 8003170:	6819      	ldr	r1, [r3, #0]
 8003172:	4812      	ldr	r0, [pc, #72]	; (80031bc <prvAddCurrentTaskToDelayedList+0x7c>)
 8003174:	3104      	adds	r1, #4

		/* Avoid compiler warning when INCLUDE_vTaskSuspend is not 1. */
		( void ) xCanBlockIndefinitely;
	}
	#endif /* INCLUDE_vTaskSuspend */
}
 8003176:	e8bd 40f8 	ldmia.w	sp!, {r3, r4, r5, r6, r7, lr}
			vListInsertEnd( &xSuspendedTaskList, &( pxCurrentTCB->xStateListItem ) );
 800317a:	f7ff b9d3 	b.w	8002524 <vListInsertEnd>
			xTimeToWake = xConstTickCount + xTicksToWait;
 800317e:	442c      	add	r4, r5
			listSET_LIST_ITEM_VALUE( &( pxCurrentTCB->xStateListItem ), xTimeToWake );
 8003180:	681a      	ldr	r2, [r3, #0]
			if( xTimeToWake < xConstTickCount )
 8003182:	42a5      	cmp	r5, r4
			listSET_LIST_ITEM_VALUE( &( pxCurrentTCB->xStateListItem ), xTimeToWake );
 8003184:	6054      	str	r4, [r2, #4]
			if( xTimeToWake < xConstTickCount )
 8003186:	d907      	bls.n	8003198 <prvAddCurrentTaskToDelayedList+0x58>
				vListInsert( pxOverflowDelayedTaskList, &( pxCurrentTCB->xStateListItem ) );
 8003188:	4a0d      	ldr	r2, [pc, #52]	; (80031c0 <prvAddCurrentTaskToDelayedList+0x80>)
 800318a:	6810      	ldr	r0, [r2, #0]
 800318c:	6819      	ldr	r1, [r3, #0]
}
 800318e:	e8bd 40f8 	ldmia.w	sp!, {r3, r4, r5, r6, r7, lr}
				vListInsert( pxOverflowDelayedTaskList, &( pxCurrentTCB->xStateListItem ) );
 8003192:	3104      	adds	r1, #4
 8003194:	f7ff b9d2 	b.w	800253c <vListInsert>
				vListInsert( pxDelayedTaskList, &( pxCurrentTCB->xStateListItem ) );
 8003198:	4a0a      	ldr	r2, [pc, #40]	; (80031c4 <prvAddCurrentTaskToDelayedList+0x84>)
 800319a:	6810      	ldr	r0, [r2, #0]
 800319c:	6819      	ldr	r1, [r3, #0]
 800319e:	3104      	adds	r1, #4
 80031a0:	f7ff f9cc 	bl	800253c <vListInsert>
				if( xTimeToWake < xNextTaskUnblockTime )
 80031a4:	4b08      	ldr	r3, [pc, #32]	; (80031c8 <prvAddCurrentTaskToDelayedList+0x88>)
 80031a6:	681a      	ldr	r2, [r3, #0]
 80031a8:	4294      	cmp	r4, r2
					xNextTaskUnblockTime = xTimeToWake;
 80031aa:	bf38      	it	cc
 80031ac:	601c      	strcc	r4, [r3, #0]
 80031ae:	bdf8      	pop	{r3, r4, r5, r6, r7, pc}
 80031b0:	200040d0 	.word	0x200040d0
 80031b4:	20003fb0 	.word	0x20003fb0
 80031b8:	2000405c 	.word	0x2000405c
 80031bc:	200040a8 	.word	0x200040a8
 80031c0:	20003fb8 	.word	0x20003fb8
 80031c4:	20003fb4 	.word	0x20003fb4
 80031c8:	20004088 	.word	0x20004088

080031cc <xTaskCreateStatic>:
	{
 80031cc:	b570      	push	{r4, r5, r6, lr}
 80031ce:	b086      	sub	sp, #24
 80031d0:	9d0b      	ldr	r5, [sp, #44]	; 0x2c
 80031d2:	9c0c      	ldr	r4, [sp, #48]	; 0x30
		configASSERT( puxStackBuffer != NULL );
 80031d4:	b945      	cbnz	r5, 80031e8 <xTaskCreateStatic+0x1c>
 80031d6:	f04f 0350 	mov.w	r3, #80	; 0x50
 80031da:	f383 8811 	msr	BASEPRI, r3
 80031de:	f3bf 8f6f 	isb	sy
 80031e2:	f3bf 8f4f 	dsb	sy
 80031e6:	e7fe      	b.n	80031e6 <xTaskCreateStatic+0x1a>
		configASSERT( pxTaskBuffer != NULL );
 80031e8:	b944      	cbnz	r4, 80031fc <xTaskCreateStatic+0x30>
 80031ea:	f04f 0350 	mov.w	r3, #80	; 0x50
 80031ee:	f383 8811 	msr	BASEPRI, r3
 80031f2:	f3bf 8f6f 	isb	sy
 80031f6:	f3bf 8f4f 	dsb	sy
 80031fa:	e7fe      	b.n	80031fa <xTaskCreateStatic+0x2e>
			volatile size_t xSize = sizeof( StaticTask_t );
 80031fc:	2654      	movs	r6, #84	; 0x54
 80031fe:	9604      	str	r6, [sp, #16]
			configASSERT( xSize == sizeof( TCB_t ) );
 8003200:	9e04      	ldr	r6, [sp, #16]
 8003202:	2e54      	cmp	r6, #84	; 0x54
 8003204:	d008      	beq.n	8003218 <xTaskCreateStatic+0x4c>
 8003206:	f04f 0350 	mov.w	r3, #80	; 0x50
 800320a:	f383 8811 	msr	BASEPRI, r3
 800320e:	f3bf 8f6f 	isb	sy
 8003212:	f3bf 8f4f 	dsb	sy
 8003216:	e7fe      	b.n	8003216 <xTaskCreateStatic+0x4a>
			pxNewTCB->pxStack = ( StackType_t * ) puxStackBuffer;
 8003218:	6325      	str	r5, [r4, #48]	; 0x30
				pxNewTCB->ucStaticallyAllocated = tskSTATICALLY_ALLOCATED_STACK_AND_TCB;
 800321a:	2502      	movs	r5, #2
 800321c:	f884 5051 	strb.w	r5, [r4, #81]	; 0x51
			prvInitialiseNewTask( pxTaskCode, pcName, ulStackDepth, pvParameters, uxPriority, &xReturn, pxNewTCB, NULL );
 8003220:	ad05      	add	r5, sp, #20
 8003222:	9501      	str	r5, [sp, #4]
 8003224:	9d0a      	ldr	r5, [sp, #40]	; 0x28
 8003226:	9402      	str	r4, [sp, #8]
 8003228:	9500      	str	r5, [sp, #0]
 800322a:	f7ff fefb 	bl	8003024 <prvInitialiseNewTask.isra.2>
			prvAddNewTaskToReadyList( pxNewTCB );
 800322e:	4620      	mov	r0, r4
 8003230:	f7ff fe6a 	bl	8002f08 <prvAddNewTaskToReadyList>
	}
 8003234:	9805      	ldr	r0, [sp, #20]
 8003236:	b006      	add	sp, #24
 8003238:	bd70      	pop	{r4, r5, r6, pc}

0800323a <xTaskCreate>:
	{
 800323a:	e92d 43f0 	stmdb	sp!, {r4, r5, r6, r7, r8, r9, lr}
 800323e:	4607      	mov	r7, r0
 8003240:	b085      	sub	sp, #20
			pxStack = ( StackType_t * ) pvPortMalloc( ( ( ( size_t ) usStackDepth ) * sizeof( StackType_t ) ) ); /*lint !e961 MISRA exception as the casts are only redundant for some ports. */
 8003242:	0090      	lsls	r0, r2, #2
	{
 8003244:	4688      	mov	r8, r1
 8003246:	4616      	mov	r6, r2
 8003248:	4699      	mov	r9, r3
			pxStack = ( StackType_t * ) pvPortMalloc( ( ( ( size_t ) usStackDepth ) * sizeof( StackType_t ) ) ); /*lint !e961 MISRA exception as the casts are only redundant for some ports. */
 800324a:	f7ff fb4d 	bl	80028e8 <pvPortMalloc>
			if( pxStack != NULL )
 800324e:	4605      	mov	r5, r0
 8003250:	b1e8      	cbz	r0, 800328e <xTaskCreate+0x54>
				pxNewTCB = ( TCB_t * ) pvPortMalloc( sizeof( TCB_t ) ); /*lint !e961 MISRA exception as the casts are only redundant for some paths. */
 8003252:	2054      	movs	r0, #84	; 0x54
 8003254:	f7ff fb48 	bl	80028e8 <pvPortMalloc>
				if( pxNewTCB != NULL )
 8003258:	4604      	mov	r4, r0
 800325a:	b1a8      	cbz	r0, 8003288 <xTaskCreate+0x4e>
				pxNewTCB->ucStaticallyAllocated = tskDYNAMICALLY_ALLOCATED_STACK_AND_TCB;
 800325c:	2300      	movs	r3, #0
 800325e:	f880 3051 	strb.w	r3, [r0, #81]	; 0x51
			prvInitialiseNewTask( pxTaskCode, pcName, ( uint32_t ) usStackDepth, pvParameters, uxPriority, pxCreatedTask, pxNewTCB, NULL );
 8003262:	9b0d      	ldr	r3, [sp, #52]	; 0x34
					pxNewTCB->pxStack = pxStack;
 8003264:	6305      	str	r5, [r0, #48]	; 0x30
			prvInitialiseNewTask( pxTaskCode, pcName, ( uint32_t ) usStackDepth, pvParameters, uxPriority, pxCreatedTask, pxNewTCB, NULL );
 8003266:	9301      	str	r3, [sp, #4]
 8003268:	9b0c      	ldr	r3, [sp, #48]	; 0x30
 800326a:	9002      	str	r0, [sp, #8]
 800326c:	9300      	str	r3, [sp, #0]
 800326e:	4632      	mov	r2, r6
 8003270:	464b      	mov	r3, r9
 8003272:	4641      	mov	r1, r8
 8003274:	4638      	mov	r0, r7
 8003276:	f7ff fed5 	bl	8003024 <prvInitialiseNewTask.isra.2>
			prvAddNewTaskToReadyList( pxNewTCB );
 800327a:	4620      	mov	r0, r4
 800327c:	f7ff fe44 	bl	8002f08 <prvAddNewTaskToReadyList>
			xReturn = pdPASS;
 8003280:	2001      	movs	r0, #1
	}
 8003282:	b005      	add	sp, #20
 8003284:	e8bd 83f0 	ldmia.w	sp!, {r4, r5, r6, r7, r8, r9, pc}
					vPortFree( pxStack );
 8003288:	4628      	mov	r0, r5
 800328a:	f7ff fbbb 	bl	8002a04 <vPortFree>
			xReturn = errCOULD_NOT_ALLOCATE_REQUIRED_MEMORY;
 800328e:	f04f 30ff 	mov.w	r0, #4294967295	; 0xffffffff
		return xReturn;
 8003292:	e7f6      	b.n	8003282 <xTaskCreate+0x48>

08003294 <vTaskStartScheduler>:
{
 8003294:	b510      	push	{r4, lr}
 8003296:	b088      	sub	sp, #32
		StaticTask_t *pxIdleTaskTCBBuffer = NULL;
 8003298:	2400      	movs	r4, #0
		vApplicationGetIdleTaskMemory( &pxIdleTaskTCBBuffer, &pxIdleTaskStackBuffer, &ulIdleTaskStackSize );
 800329a:	aa07      	add	r2, sp, #28
 800329c:	a906      	add	r1, sp, #24
 800329e:	a805      	add	r0, sp, #20
		StaticTask_t *pxIdleTaskTCBBuffer = NULL;
 80032a0:	9405      	str	r4, [sp, #20]
		StackType_t *pxIdleTaskStackBuffer = NULL;
 80032a2:	9406      	str	r4, [sp, #24]
		vApplicationGetIdleTaskMemory( &pxIdleTaskTCBBuffer, &pxIdleTaskStackBuffer, &ulIdleTaskStackSize );
 80032a4:	f000 faa6 	bl	80037f4 <vApplicationGetIdleTaskMemory>
		xIdleTaskHandle = xTaskCreateStatic(	prvIdleTask,
 80032a8:	9b05      	ldr	r3, [sp, #20]
 80032aa:	9302      	str	r3, [sp, #8]
 80032ac:	9b06      	ldr	r3, [sp, #24]
 80032ae:	9301      	str	r3, [sp, #4]
 80032b0:	9400      	str	r4, [sp, #0]
 80032b2:	4623      	mov	r3, r4
 80032b4:	9a07      	ldr	r2, [sp, #28]
 80032b6:	490d      	ldr	r1, [pc, #52]	; (80032ec <vTaskStartScheduler+0x58>)
 80032b8:	480d      	ldr	r0, [pc, #52]	; (80032f0 <vTaskStartScheduler+0x5c>)
 80032ba:	f7ff ff87 	bl	80031cc <xTaskCreateStatic>
		if( xIdleTaskHandle != NULL )
 80032be:	b190      	cbz	r0, 80032e6 <vTaskStartScheduler+0x52>
 80032c0:	f04f 0350 	mov.w	r3, #80	; 0x50
 80032c4:	f383 8811 	msr	BASEPRI, r3
 80032c8:	f3bf 8f6f 	isb	sy
 80032cc:	f3bf 8f4f 	dsb	sy
		xNextTaskUnblockTime = portMAX_DELAY;
 80032d0:	4b08      	ldr	r3, [pc, #32]	; (80032f4 <vTaskStartScheduler+0x60>)
 80032d2:	f04f 32ff 	mov.w	r2, #4294967295	; 0xffffffff
 80032d6:	601a      	str	r2, [r3, #0]
		xSchedulerRunning = pdTRUE;
 80032d8:	4b07      	ldr	r3, [pc, #28]	; (80032f8 <vTaskStartScheduler+0x64>)
 80032da:	2201      	movs	r2, #1
 80032dc:	601a      	str	r2, [r3, #0]
		xTickCount = ( TickType_t ) 0U;
 80032de:	4b07      	ldr	r3, [pc, #28]	; (80032fc <vTaskStartScheduler+0x68>)
 80032e0:	601c      	str	r4, [r3, #0]
		if( xPortStartScheduler() != pdFALSE )
 80032e2:	f7ff fa57 	bl	8002794 <xPortStartScheduler>
}
 80032e6:	b008      	add	sp, #32
 80032e8:	bd10      	pop	{r4, pc}
 80032ea:	bf00      	nop
 80032ec:	08004271 	.word	0x08004271
 80032f0:	080030dd 	.word	0x080030dd
 80032f4:	20004088 	.word	0x20004088
 80032f8:	200040a4 	.word	0x200040a4
 80032fc:	200040d0 	.word	0x200040d0

08003300 <vTaskSuspendAll>:
	++uxSchedulerSuspended;
 8003300:	4a02      	ldr	r2, [pc, #8]	; (800330c <vTaskSuspendAll+0xc>)
 8003302:	6813      	ldr	r3, [r2, #0]
 8003304:	3301      	adds	r3, #1
 8003306:	6013      	str	r3, [r2, #0]
 8003308:	4770      	bx	lr
 800330a:	bf00      	nop
 800330c:	20004054 	.word	0x20004054

08003310 <xTaskIncrementTick>:
{
 8003310:	e92d 4ff8 	stmdb	sp!, {r3, r4, r5, r6, r7, r8, r9, sl, fp, lr}
	if( uxSchedulerSuspended == ( UBaseType_t ) pdFALSE )
 8003314:	4b3c      	ldr	r3, [pc, #240]	; (8003408 <xTaskIncrementTick+0xf8>)
 8003316:	681b      	ldr	r3, [r3, #0]
 8003318:	2b00      	cmp	r3, #0
 800331a:	d153      	bne.n	80033c4 <xTaskIncrementTick+0xb4>
		const TickType_t xConstTickCount = xTickCount + ( TickType_t ) 1;
 800331c:	4b3b      	ldr	r3, [pc, #236]	; (800340c <xTaskIncrementTick+0xfc>)
 800331e:	681c      	ldr	r4, [r3, #0]
 8003320:	3401      	adds	r4, #1
		xTickCount = xConstTickCount;
 8003322:	601c      	str	r4, [r3, #0]
		if( xConstTickCount == ( TickType_t ) 0U ) /*lint !e774 'if' does not always evaluate to false as it is looking for an overflow. */
 8003324:	b9bc      	cbnz	r4, 8003356 <xTaskIncrementTick+0x46>
			taskSWITCH_DELAYED_LISTS();
 8003326:	4b3a      	ldr	r3, [pc, #232]	; (8003410 <xTaskIncrementTick+0x100>)
 8003328:	681a      	ldr	r2, [r3, #0]
 800332a:	6812      	ldr	r2, [r2, #0]
 800332c:	b142      	cbz	r2, 8003340 <xTaskIncrementTick+0x30>
 800332e:	f04f 0350 	mov.w	r3, #80	; 0x50
 8003332:	f383 8811 	msr	BASEPRI, r3
 8003336:	f3bf 8f6f 	isb	sy
 800333a:	f3bf 8f4f 	dsb	sy
 800333e:	e7fe      	b.n	800333e <xTaskIncrementTick+0x2e>
 8003340:	4a34      	ldr	r2, [pc, #208]	; (8003414 <xTaskIncrementTick+0x104>)
 8003342:	6819      	ldr	r1, [r3, #0]
 8003344:	6810      	ldr	r0, [r2, #0]
 8003346:	6018      	str	r0, [r3, #0]
 8003348:	6011      	str	r1, [r2, #0]
 800334a:	4a33      	ldr	r2, [pc, #204]	; (8003418 <xTaskIncrementTick+0x108>)
 800334c:	6813      	ldr	r3, [r2, #0]
 800334e:	3301      	adds	r3, #1
 8003350:	6013      	str	r3, [r2, #0]
 8003352:	f7ff fe55 	bl	8003000 <prvResetNextTaskUnblockTime>
		if( xConstTickCount >= xNextTaskUnblockTime )
 8003356:	4d31      	ldr	r5, [pc, #196]	; (800341c <xTaskIncrementTick+0x10c>)
 8003358:	4f31      	ldr	r7, [pc, #196]	; (8003420 <xTaskIncrementTick+0x110>)
 800335a:	682b      	ldr	r3, [r5, #0]
 800335c:	429c      	cmp	r4, r3
 800335e:	f04f 0b00 	mov.w	fp, #0
 8003362:	d33e      	bcc.n	80033e2 <xTaskIncrementTick+0xd2>
				if( listLIST_IS_EMPTY( pxDelayedTaskList ) != pdFALSE )
 8003364:	f8df 80a8 	ldr.w	r8, [pc, #168]	; 8003410 <xTaskIncrementTick+0x100>
					prvAddTaskToReadyList( pxTCB );
 8003368:	f8df 90c4 	ldr.w	r9, [pc, #196]	; 8003430 <xTaskIncrementTick+0x120>
				if( listLIST_IS_EMPTY( pxDelayedTaskList ) != pdFALSE )
 800336c:	f8d8 2000 	ldr.w	r2, [r8]
 8003370:	6812      	ldr	r2, [r2, #0]
 8003372:	bb72      	cbnz	r2, 80033d2 <xTaskIncrementTick+0xc2>
					xNextTaskUnblockTime = portMAX_DELAY; /*lint !e961 MISRA exception as the casts are only redundant for some ports. */
 8003374:	f04f 32ff 	mov.w	r2, #4294967295	; 0xffffffff
 8003378:	602a      	str	r2, [r5, #0]
					break;
 800337a:	e032      	b.n	80033e2 <xTaskIncrementTick+0xd2>
					( void ) uxListRemove( &( pxTCB->xStateListItem ) );
 800337c:	f106 0a04 	add.w	sl, r6, #4
 8003380:	4650      	mov	r0, sl
 8003382:	f7ff f8f2 	bl	800256a <uxListRemove>
					if( listLIST_ITEM_CONTAINER( &( pxTCB->xEventListItem ) ) != NULL )
 8003386:	6ab1      	ldr	r1, [r6, #40]	; 0x28
 8003388:	b119      	cbz	r1, 8003392 <xTaskIncrementTick+0x82>
						( void ) uxListRemove( &( pxTCB->xEventListItem ) );
 800338a:	f106 0018 	add.w	r0, r6, #24
 800338e:	f7ff f8ec 	bl	800256a <uxListRemove>
					prvAddTaskToReadyList( pxTCB );
 8003392:	6af0      	ldr	r0, [r6, #44]	; 0x2c
 8003394:	f8d9 3000 	ldr.w	r3, [r9]
 8003398:	2201      	movs	r2, #1
 800339a:	fa02 f100 	lsl.w	r1, r2, r0
 800339e:	4319      	orrs	r1, r3
 80033a0:	4b20      	ldr	r3, [pc, #128]	; (8003424 <xTaskIncrementTick+0x114>)
 80033a2:	f8c9 1000 	str.w	r1, [r9]
 80033a6:	f04f 0e14 	mov.w	lr, #20
 80033aa:	4651      	mov	r1, sl
 80033ac:	fb0e 3000 	mla	r0, lr, r0, r3
 80033b0:	f7ff f8b8 	bl	8002524 <vListInsertEnd>
						if( pxTCB->uxPriority >= pxCurrentTCB->uxPriority )
 80033b4:	6838      	ldr	r0, [r7, #0]
 80033b6:	6af1      	ldr	r1, [r6, #44]	; 0x2c
 80033b8:	6ac2      	ldr	r2, [r0, #44]	; 0x2c
							xSwitchRequired = pdTRUE;
 80033ba:	4291      	cmp	r1, r2
 80033bc:	bf28      	it	cs
 80033be:	f04f 0b01 	movcs.w	fp, #1
 80033c2:	e7d3      	b.n	800336c <xTaskIncrementTick+0x5c>
		++uxPendedTicks;
 80033c4:	4a18      	ldr	r2, [pc, #96]	; (8003428 <xTaskIncrementTick+0x118>)
 80033c6:	6813      	ldr	r3, [r2, #0]
 80033c8:	3301      	adds	r3, #1
 80033ca:	6013      	str	r3, [r2, #0]
BaseType_t xSwitchRequired = pdFALSE;
 80033cc:	f04f 0b00 	mov.w	fp, #0
 80033d0:	e011      	b.n	80033f6 <xTaskIncrementTick+0xe6>
					pxTCB = ( TCB_t * ) listGET_OWNER_OF_HEAD_ENTRY( pxDelayedTaskList );
 80033d2:	f8d8 2000 	ldr.w	r2, [r8]
 80033d6:	68d2      	ldr	r2, [r2, #12]
 80033d8:	68d6      	ldr	r6, [r2, #12]
					xItemValue = listGET_LIST_ITEM_VALUE( &( pxTCB->xStateListItem ) );
 80033da:	6871      	ldr	r1, [r6, #4]
					if( xConstTickCount < xItemValue )
 80033dc:	428c      	cmp	r4, r1
 80033de:	d2cd      	bcs.n	800337c <xTaskIncrementTick+0x6c>
						xNextTaskUnblockTime = xItemValue;
 80033e0:	6029      	str	r1, [r5, #0]
			if( listCURRENT_LIST_LENGTH( &( pxReadyTasksLists[ pxCurrentTCB->uxPriority ] ) ) > ( UBaseType_t ) 1 )
 80033e2:	683a      	ldr	r2, [r7, #0]
 80033e4:	4b0f      	ldr	r3, [pc, #60]	; (8003424 <xTaskIncrementTick+0x114>)
 80033e6:	6ad1      	ldr	r1, [r2, #44]	; 0x2c
 80033e8:	2214      	movs	r2, #20
 80033ea:	434a      	muls	r2, r1
 80033ec:	589a      	ldr	r2, [r3, r2]
				xSwitchRequired = pdTRUE;
 80033ee:	2a02      	cmp	r2, #2
 80033f0:	bf28      	it	cs
 80033f2:	f04f 0b01 	movcs.w	fp, #1
		if( xYieldPending != pdFALSE )
 80033f6:	4a0d      	ldr	r2, [pc, #52]	; (800342c <xTaskIncrementTick+0x11c>)
 80033f8:	6812      	ldr	r2, [r2, #0]
			xSwitchRequired = pdTRUE;
 80033fa:	2a00      	cmp	r2, #0
 80033fc:	bf18      	it	ne
 80033fe:	f04f 0b01 	movne.w	fp, #1
}
 8003402:	4658      	mov	r0, fp
 8003404:	e8bd 8ff8 	ldmia.w	sp!, {r3, r4, r5, r6, r7, r8, r9, sl, fp, pc}
 8003408:	20004054 	.word	0x20004054
 800340c:	200040d0 	.word	0x200040d0
 8003410:	20003fb4 	.word	0x20003fb4
 8003414:	20003fb8 	.word	0x20003fb8
 8003418:	2000408c 	.word	0x2000408c
 800341c:	20004088 	.word	0x20004088
 8003420:	20003fb0 	.word	0x20003fb0
 8003424:	20003fbc 	.word	0x20003fbc
 8003428:	20004050 	.word	0x20004050
 800342c:	200040d4 	.word	0x200040d4
 8003430:	2000405c 	.word	0x2000405c

08003434 <xTaskResumeAll>:
{
 8003434:	e92d 43f8 	stmdb	sp!, {r3, r4, r5, r6, r7, r8, r9, lr}
	configASSERT( uxSchedulerSuspended );
 8003438:	4c31      	ldr	r4, [pc, #196]	; (8003500 <xTaskResumeAll+0xcc>)
 800343a:	6823      	ldr	r3, [r4, #0]
 800343c:	b943      	cbnz	r3, 8003450 <xTaskResumeAll+0x1c>
 800343e:	f04f 0350 	mov.w	r3, #80	; 0x50
 8003442:	f383 8811 	msr	BASEPRI, r3
 8003446:	f3bf 8f6f 	isb	sy
 800344a:	f3bf 8f4f 	dsb	sy
 800344e:	e7fe      	b.n	800344e <xTaskResumeAll+0x1a>
	taskENTER_CRITICAL();
 8003450:	f7ff f908 	bl	8002664 <vPortEnterCritical>
		--uxSchedulerSuspended;
 8003454:	6823      	ldr	r3, [r4, #0]
 8003456:	3b01      	subs	r3, #1
 8003458:	6023      	str	r3, [r4, #0]
		if( uxSchedulerSuspended == ( UBaseType_t ) pdFALSE )
 800345a:	6824      	ldr	r4, [r4, #0]
 800345c:	b12c      	cbz	r4, 800346a <xTaskResumeAll+0x36>
BaseType_t xAlreadyYielded = pdFALSE;
 800345e:	2400      	movs	r4, #0
	taskEXIT_CRITICAL();
 8003460:	f7ff f922 	bl	80026a8 <vPortExitCritical>
}
 8003464:	4620      	mov	r0, r4
 8003466:	e8bd 83f8 	ldmia.w	sp!, {r3, r4, r5, r6, r7, r8, r9, pc}
			if( uxCurrentNumberOfTasks > ( UBaseType_t ) 0U )
 800346a:	4b26      	ldr	r3, [pc, #152]	; (8003504 <xTaskResumeAll+0xd0>)
 800346c:	681b      	ldr	r3, [r3, #0]
 800346e:	2b00      	cmp	r3, #0
 8003470:	d0f5      	beq.n	800345e <xTaskResumeAll+0x2a>
				while( listLIST_IS_EMPTY( &xPendingReadyList ) == pdFALSE )
 8003472:	f8df 90a8 	ldr.w	r9, [pc, #168]	; 800351c <xTaskResumeAll+0xe8>
					prvAddTaskToReadyList( pxTCB );
 8003476:	4f24      	ldr	r7, [pc, #144]	; (8003508 <xTaskResumeAll+0xd4>)
 8003478:	f8df 80a4 	ldr.w	r8, [pc, #164]	; 8003520 <xTaskResumeAll+0xec>
				while( listLIST_IS_EMPTY( &xPendingReadyList ) == pdFALSE )
 800347c:	f8d9 3000 	ldr.w	r3, [r9]
 8003480:	b9e3      	cbnz	r3, 80034bc <xTaskResumeAll+0x88>
				if( pxTCB != NULL )
 8003482:	b10c      	cbz	r4, 8003488 <xTaskResumeAll+0x54>
					prvResetNextTaskUnblockTime();
 8003484:	f7ff fdbc 	bl	8003000 <prvResetNextTaskUnblockTime>
					UBaseType_t uxPendedCounts = uxPendedTicks; /* Non-volatile copy. */
 8003488:	4d20      	ldr	r5, [pc, #128]	; (800350c <xTaskResumeAll+0xd8>)
 800348a:	682c      	ldr	r4, [r5, #0]
					if( uxPendedCounts > ( UBaseType_t ) 0U )
 800348c:	b144      	cbz	r4, 80034a0 <xTaskResumeAll+0x6c>
								xYieldPending = pdTRUE;
 800348e:	4e20      	ldr	r6, [pc, #128]	; (8003510 <xTaskResumeAll+0xdc>)
 8003490:	2701      	movs	r7, #1
							if( xTaskIncrementTick() != pdFALSE )
 8003492:	f7ff ff3d 	bl	8003310 <xTaskIncrementTick>
 8003496:	b100      	cbz	r0, 800349a <xTaskResumeAll+0x66>
								xYieldPending = pdTRUE;
 8003498:	6037      	str	r7, [r6, #0]
						} while( uxPendedCounts > ( UBaseType_t ) 0U );
 800349a:	3c01      	subs	r4, #1
 800349c:	d1f9      	bne.n	8003492 <xTaskResumeAll+0x5e>
						uxPendedTicks = 0;
 800349e:	602c      	str	r4, [r5, #0]
				if( xYieldPending != pdFALSE )
 80034a0:	4b1b      	ldr	r3, [pc, #108]	; (8003510 <xTaskResumeAll+0xdc>)
 80034a2:	681b      	ldr	r3, [r3, #0]
 80034a4:	2b00      	cmp	r3, #0
 80034a6:	d0da      	beq.n	800345e <xTaskResumeAll+0x2a>
					taskYIELD_IF_USING_PREEMPTION();
 80034a8:	4b1a      	ldr	r3, [pc, #104]	; (8003514 <xTaskResumeAll+0xe0>)
 80034aa:	f04f 5280 	mov.w	r2, #268435456	; 0x10000000
 80034ae:	601a      	str	r2, [r3, #0]
 80034b0:	f3bf 8f4f 	dsb	sy
 80034b4:	f3bf 8f6f 	isb	sy
						xAlreadyYielded = pdTRUE;
 80034b8:	2401      	movs	r4, #1
 80034ba:	e7d1      	b.n	8003460 <xTaskResumeAll+0x2c>
					pxTCB = ( TCB_t * ) listGET_OWNER_OF_HEAD_ENTRY( ( &xPendingReadyList ) );
 80034bc:	f8d9 300c 	ldr.w	r3, [r9, #12]
 80034c0:	68dc      	ldr	r4, [r3, #12]
					( void ) uxListRemove( &( pxTCB->xStateListItem ) );
 80034c2:	1d26      	adds	r6, r4, #4
					( void ) uxListRemove( &( pxTCB->xEventListItem ) );
 80034c4:	f104 0018 	add.w	r0, r4, #24
 80034c8:	f7ff f84f 	bl	800256a <uxListRemove>
					( void ) uxListRemove( &( pxTCB->xStateListItem ) );
 80034cc:	4630      	mov	r0, r6
 80034ce:	f7ff f84c 	bl	800256a <uxListRemove>
					prvAddTaskToReadyList( pxTCB );
 80034d2:	6ae2      	ldr	r2, [r4, #44]	; 0x2c
 80034d4:	6839      	ldr	r1, [r7, #0]
 80034d6:	2501      	movs	r5, #1
 80034d8:	fa05 f302 	lsl.w	r3, r5, r2
 80034dc:	2014      	movs	r0, #20
 80034de:	430b      	orrs	r3, r1
 80034e0:	fb00 8002 	mla	r0, r0, r2, r8
 80034e4:	4631      	mov	r1, r6
 80034e6:	603b      	str	r3, [r7, #0]
 80034e8:	f7ff f81c 	bl	8002524 <vListInsertEnd>
					if( pxTCB->uxPriority >= pxCurrentTCB->uxPriority )
 80034ec:	4b0a      	ldr	r3, [pc, #40]	; (8003518 <xTaskResumeAll+0xe4>)
 80034ee:	6ae2      	ldr	r2, [r4, #44]	; 0x2c
 80034f0:	681b      	ldr	r3, [r3, #0]
 80034f2:	6adb      	ldr	r3, [r3, #44]	; 0x2c
 80034f4:	429a      	cmp	r2, r3
						xYieldPending = pdTRUE;
 80034f6:	bf24      	itt	cs
 80034f8:	4b05      	ldrcs	r3, [pc, #20]	; (8003510 <xTaskResumeAll+0xdc>)
 80034fa:	601d      	strcs	r5, [r3, #0]
 80034fc:	e7be      	b.n	800347c <xTaskResumeAll+0x48>
 80034fe:	bf00      	nop
 8003500:	20004054 	.word	0x20004054
 8003504:	20004048 	.word	0x20004048
 8003508:	2000405c 	.word	0x2000405c
 800350c:	20004050 	.word	0x20004050
 8003510:	200040d4 	.word	0x200040d4
 8003514:	e000ed04 	.word	0xe000ed04
 8003518:	20003fb0 	.word	0x20003fb0
 800351c:	20004090 	.word	0x20004090
 8003520:	20003fbc 	.word	0x20003fbc

08003524 <vTaskDelay>:
	{
 8003524:	b508      	push	{r3, lr}
		if( xTicksToDelay > ( TickType_t ) 0U )
 8003526:	b940      	cbnz	r0, 800353a <vTaskDelay+0x16>
			portYIELD_WITHIN_API();
 8003528:	4b0e      	ldr	r3, [pc, #56]	; (8003564 <vTaskDelay+0x40>)
 800352a:	f04f 5280 	mov.w	r2, #268435456	; 0x10000000
 800352e:	601a      	str	r2, [r3, #0]
 8003530:	f3bf 8f4f 	dsb	sy
 8003534:	f3bf 8f6f 	isb	sy
 8003538:	bd08      	pop	{r3, pc}
			configASSERT( uxSchedulerSuspended == 0 );
 800353a:	4b0b      	ldr	r3, [pc, #44]	; (8003568 <vTaskDelay+0x44>)
 800353c:	6819      	ldr	r1, [r3, #0]
 800353e:	b141      	cbz	r1, 8003552 <vTaskDelay+0x2e>
 8003540:	f04f 0350 	mov.w	r3, #80	; 0x50
 8003544:	f383 8811 	msr	BASEPRI, r3
 8003548:	f3bf 8f6f 	isb	sy
 800354c:	f3bf 8f4f 	dsb	sy
 8003550:	e7fe      	b.n	8003550 <vTaskDelay+0x2c>
			vTaskSuspendAll();
 8003552:	f7ff fed5 	bl	8003300 <vTaskSuspendAll>
				prvAddCurrentTaskToDelayedList( xTicksToDelay, pdFALSE );
 8003556:	f7ff fdf3 	bl	8003140 <prvAddCurrentTaskToDelayedList>
			xAlreadyYielded = xTaskResumeAll();
 800355a:	f7ff ff6b 	bl	8003434 <xTaskResumeAll>
		if( xAlreadyYielded == pdFALSE )
 800355e:	2800      	cmp	r0, #0
 8003560:	d0e2      	beq.n	8003528 <vTaskDelay+0x4>
 8003562:	bd08      	pop	{r3, pc}
 8003564:	e000ed04 	.word	0xe000ed04
 8003568:	20004054 	.word	0x20004054

0800356c <vTaskSwitchContext>:
	if( uxSchedulerSuspended != ( UBaseType_t ) pdFALSE )
 800356c:	4b17      	ldr	r3, [pc, #92]	; (80035cc <vTaskSwitchContext+0x60>)
 800356e:	681a      	ldr	r2, [r3, #0]
 8003570:	4b17      	ldr	r3, [pc, #92]	; (80035d0 <vTaskSwitchContext+0x64>)
{
 8003572:	b510      	push	{r4, lr}
	if( uxSchedulerSuspended != ( UBaseType_t ) pdFALSE )
 8003574:	b112      	cbz	r2, 800357c <vTaskSwitchContext+0x10>
		xYieldPending = pdTRUE;
 8003576:	2201      	movs	r2, #1
		taskSELECT_HIGHEST_PRIORITY_TASK();
 8003578:	601a      	str	r2, [r3, #0]
 800357a:	bd10      	pop	{r4, pc}
		xYieldPending = pdFALSE;
 800357c:	601a      	str	r2, [r3, #0]
		taskSELECT_HIGHEST_PRIORITY_TASK();
 800357e:	4b15      	ldr	r3, [pc, #84]	; (80035d4 <vTaskSwitchContext+0x68>)
 8003580:	681b      	ldr	r3, [r3, #0]
		__asm volatile ( "clz %0, %1" : "=r" ( ucReturn ) : "r" ( ulBitmap ) : "memory" );
 8003582:	fab3 f383 	clz	r3, r3
 8003586:	b2db      	uxtb	r3, r3
 8003588:	f1c3 031f 	rsb	r3, r3, #31
 800358c:	2214      	movs	r2, #20
 800358e:	4912      	ldr	r1, [pc, #72]	; (80035d8 <vTaskSwitchContext+0x6c>)
 8003590:	435a      	muls	r2, r3
 8003592:	1888      	adds	r0, r1, r2
 8003594:	588c      	ldr	r4, [r1, r2]
 8003596:	b944      	cbnz	r4, 80035aa <vTaskSwitchContext+0x3e>
	__asm volatile
 8003598:	f04f 0350 	mov.w	r3, #80	; 0x50
 800359c:	f383 8811 	msr	BASEPRI, r3
 80035a0:	f3bf 8f6f 	isb	sy
 80035a4:	f3bf 8f4f 	dsb	sy
 80035a8:	e7fe      	b.n	80035a8 <vTaskSwitchContext+0x3c>
 80035aa:	6844      	ldr	r4, [r0, #4]
 80035ac:	3208      	adds	r2, #8
 80035ae:	6864      	ldr	r4, [r4, #4]
 80035b0:	6044      	str	r4, [r0, #4]
 80035b2:	440a      	add	r2, r1
 80035b4:	4294      	cmp	r4, r2
 80035b6:	bf04      	itt	eq
 80035b8:	6862      	ldreq	r2, [r4, #4]
 80035ba:	6042      	streq	r2, [r0, #4]
 80035bc:	2214      	movs	r2, #20
 80035be:	fb02 1303 	mla	r3, r2, r3, r1
 80035c2:	685b      	ldr	r3, [r3, #4]
 80035c4:	68da      	ldr	r2, [r3, #12]
 80035c6:	4b05      	ldr	r3, [pc, #20]	; (80035dc <vTaskSwitchContext+0x70>)
 80035c8:	e7d6      	b.n	8003578 <vTaskSwitchContext+0xc>
 80035ca:	bf00      	nop
 80035cc:	20004054 	.word	0x20004054
 80035d0:	200040d4 	.word	0x200040d4
 80035d4:	2000405c 	.word	0x2000405c
 80035d8:	20003fbc 	.word	0x20003fbc
 80035dc:	20003fb0 	.word	0x20003fb0

080035e0 <vTaskPlaceOnEventList>:
{
 80035e0:	b510      	push	{r4, lr}
 80035e2:	460c      	mov	r4, r1
	configASSERT( pxEventList );
 80035e4:	b940      	cbnz	r0, 80035f8 <vTaskPlaceOnEventList+0x18>
 80035e6:	f04f 0350 	mov.w	r3, #80	; 0x50
 80035ea:	f383 8811 	msr	BASEPRI, r3
 80035ee:	f3bf 8f6f 	isb	sy
 80035f2:	f3bf 8f4f 	dsb	sy
 80035f6:	e7fe      	b.n	80035f6 <vTaskPlaceOnEventList+0x16>
	vListInsert( pxEventList, &( pxCurrentTCB->xEventListItem ) );
 80035f8:	4b05      	ldr	r3, [pc, #20]	; (8003610 <vTaskPlaceOnEventList+0x30>)
 80035fa:	6819      	ldr	r1, [r3, #0]
 80035fc:	3118      	adds	r1, #24
 80035fe:	f7fe ff9d 	bl	800253c <vListInsert>
	prvAddCurrentTaskToDelayedList( xTicksToWait, pdTRUE );
 8003602:	4620      	mov	r0, r4
 8003604:	2101      	movs	r1, #1
}
 8003606:	e8bd 4010 	ldmia.w	sp!, {r4, lr}
	prvAddCurrentTaskToDelayedList( xTicksToWait, pdTRUE );
 800360a:	f7ff bd99 	b.w	8003140 <prvAddCurrentTaskToDelayedList>
 800360e:	bf00      	nop
 8003610:	20003fb0 	.word	0x20003fb0

08003614 <xTaskRemoveFromEventList>:
{
 8003614:	b538      	push	{r3, r4, r5, lr}
	pxUnblockedTCB = ( TCB_t * ) listGET_OWNER_OF_HEAD_ENTRY( pxEventList );
 8003616:	68c3      	ldr	r3, [r0, #12]
 8003618:	68dc      	ldr	r4, [r3, #12]
	configASSERT( pxUnblockedTCB );
 800361a:	b944      	cbnz	r4, 800362e <xTaskRemoveFromEventList+0x1a>
 800361c:	f04f 0350 	mov.w	r3, #80	; 0x50
 8003620:	f383 8811 	msr	BASEPRI, r3
 8003624:	f3bf 8f6f 	isb	sy
 8003628:	f3bf 8f4f 	dsb	sy
 800362c:	e7fe      	b.n	800362c <xTaskRemoveFromEventList+0x18>
	( void ) uxListRemove( &( pxUnblockedTCB->xEventListItem ) );
 800362e:	f104 0518 	add.w	r5, r4, #24
 8003632:	4628      	mov	r0, r5
 8003634:	f7fe ff99 	bl	800256a <uxListRemove>
	if( uxSchedulerSuspended == ( UBaseType_t ) pdFALSE )
 8003638:	4b11      	ldr	r3, [pc, #68]	; (8003680 <xTaskRemoveFromEventList+0x6c>)
 800363a:	681b      	ldr	r3, [r3, #0]
 800363c:	b9e3      	cbnz	r3, 8003678 <xTaskRemoveFromEventList+0x64>
		( void ) uxListRemove( &( pxUnblockedTCB->xStateListItem ) );
 800363e:	1d25      	adds	r5, r4, #4
 8003640:	4628      	mov	r0, r5
 8003642:	f7fe ff92 	bl	800256a <uxListRemove>
		prvAddTaskToReadyList( pxUnblockedTCB );
 8003646:	490f      	ldr	r1, [pc, #60]	; (8003684 <xTaskRemoveFromEventList+0x70>)
 8003648:	6ae2      	ldr	r2, [r4, #44]	; 0x2c
 800364a:	6808      	ldr	r0, [r1, #0]
 800364c:	2301      	movs	r3, #1
 800364e:	4093      	lsls	r3, r2
 8003650:	4303      	orrs	r3, r0
 8003652:	600b      	str	r3, [r1, #0]
 8003654:	4b0c      	ldr	r3, [pc, #48]	; (8003688 <xTaskRemoveFromEventList+0x74>)
 8003656:	2014      	movs	r0, #20
 8003658:	4629      	mov	r1, r5
 800365a:	fb00 3002 	mla	r0, r0, r2, r3
		vListInsertEnd( &( xPendingReadyList ), &( pxUnblockedTCB->xEventListItem ) );
 800365e:	f7fe ff61 	bl	8002524 <vListInsertEnd>
	if( pxUnblockedTCB->uxPriority > pxCurrentTCB->uxPriority )
 8003662:	4b0a      	ldr	r3, [pc, #40]	; (800368c <xTaskRemoveFromEventList+0x78>)
 8003664:	6ae2      	ldr	r2, [r4, #44]	; 0x2c
 8003666:	681b      	ldr	r3, [r3, #0]
 8003668:	6adb      	ldr	r3, [r3, #44]	; 0x2c
 800366a:	429a      	cmp	r2, r3
		xYieldPending = pdTRUE;
 800366c:	bf83      	ittte	hi
 800366e:	4b08      	ldrhi	r3, [pc, #32]	; (8003690 <xTaskRemoveFromEventList+0x7c>)
 8003670:	2001      	movhi	r0, #1
 8003672:	6018      	strhi	r0, [r3, #0]
		xReturn = pdFALSE;
 8003674:	2000      	movls	r0, #0
}
 8003676:	bd38      	pop	{r3, r4, r5, pc}
		vListInsertEnd( &( xPendingReadyList ), &( pxUnblockedTCB->xEventListItem ) );
 8003678:	4629      	mov	r1, r5
 800367a:	4806      	ldr	r0, [pc, #24]	; (8003694 <xTaskRemoveFromEventList+0x80>)
 800367c:	e7ef      	b.n	800365e <xTaskRemoveFromEventList+0x4a>
 800367e:	bf00      	nop
 8003680:	20004054 	.word	0x20004054
 8003684:	2000405c 	.word	0x2000405c
 8003688:	20003fbc 	.word	0x20003fbc
 800368c:	20003fb0 	.word	0x20003fb0
 8003690:	200040d4 	.word	0x200040d4
 8003694:	20004090 	.word	0x20004090

08003698 <vTaskInternalSetTimeOutState>:
	pxTimeOut->xOverflowCount = xNumOfOverflows;
 8003698:	4b03      	ldr	r3, [pc, #12]	; (80036a8 <vTaskInternalSetTimeOutState+0x10>)
 800369a:	681b      	ldr	r3, [r3, #0]
 800369c:	6003      	str	r3, [r0, #0]
	pxTimeOut->xTimeOnEntering = xTickCount;
 800369e:	4b03      	ldr	r3, [pc, #12]	; (80036ac <vTaskInternalSetTimeOutState+0x14>)
 80036a0:	681b      	ldr	r3, [r3, #0]
 80036a2:	6043      	str	r3, [r0, #4]
 80036a4:	4770      	bx	lr
 80036a6:	bf00      	nop
 80036a8:	2000408c 	.word	0x2000408c
 80036ac:	200040d0 	.word	0x200040d0

080036b0 <xTaskCheckForTimeOut>:
{
 80036b0:	b570      	push	{r4, r5, r6, lr}
 80036b2:	460c      	mov	r4, r1
	configASSERT( pxTimeOut );
 80036b4:	4605      	mov	r5, r0
 80036b6:	b940      	cbnz	r0, 80036ca <xTaskCheckForTimeOut+0x1a>
 80036b8:	f04f 0350 	mov.w	r3, #80	; 0x50
 80036bc:	f383 8811 	msr	BASEPRI, r3
 80036c0:	f3bf 8f6f 	isb	sy
 80036c4:	f3bf 8f4f 	dsb	sy
 80036c8:	e7fe      	b.n	80036c8 <xTaskCheckForTimeOut+0x18>
	configASSERT( pxTicksToWait );
 80036ca:	b941      	cbnz	r1, 80036de <xTaskCheckForTimeOut+0x2e>
 80036cc:	f04f 0350 	mov.w	r3, #80	; 0x50
 80036d0:	f383 8811 	msr	BASEPRI, r3
 80036d4:	f3bf 8f6f 	isb	sy
 80036d8:	f3bf 8f4f 	dsb	sy
 80036dc:	e7fe      	b.n	80036dc <xTaskCheckForTimeOut+0x2c>
	taskENTER_CRITICAL();
 80036de:	f7fe ffc1 	bl	8002664 <vPortEnterCritical>
		const TickType_t xConstTickCount = xTickCount;
 80036e2:	4b0f      	ldr	r3, [pc, #60]	; (8003720 <xTaskCheckForTimeOut+0x70>)
		const TickType_t xElapsedTime = xConstTickCount - pxTimeOut->xTimeOnEntering;
 80036e4:	6869      	ldr	r1, [r5, #4]
		const TickType_t xConstTickCount = xTickCount;
 80036e6:	681a      	ldr	r2, [r3, #0]
			if( *pxTicksToWait == portMAX_DELAY )
 80036e8:	6823      	ldr	r3, [r4, #0]
 80036ea:	1c58      	adds	r0, r3, #1
 80036ec:	d00e      	beq.n	800370c <xTaskCheckForTimeOut+0x5c>
		if( ( xNumOfOverflows != pxTimeOut->xOverflowCount ) && ( xConstTickCount >= pxTimeOut->xTimeOnEntering ) ) /*lint !e525 Indentation preferred as is to make code within pre-processor directives clearer. */
 80036ee:	480d      	ldr	r0, [pc, #52]	; (8003724 <xTaskCheckForTimeOut+0x74>)
 80036f0:	682e      	ldr	r6, [r5, #0]
 80036f2:	6800      	ldr	r0, [r0, #0]
 80036f4:	4286      	cmp	r6, r0
 80036f6:	d001      	beq.n	80036fc <xTaskCheckForTimeOut+0x4c>
 80036f8:	428a      	cmp	r2, r1
 80036fa:	d20e      	bcs.n	800371a <xTaskCheckForTimeOut+0x6a>
		const TickType_t xElapsedTime = xConstTickCount - pxTimeOut->xTimeOnEntering;
 80036fc:	1a52      	subs	r2, r2, r1
		else if( xElapsedTime < *pxTicksToWait ) /*lint !e961 Explicit casting is only redundant with some compilers, whereas others require it to prevent integer conversion errors. */
 80036fe:	429a      	cmp	r2, r3
 8003700:	d209      	bcs.n	8003716 <xTaskCheckForTimeOut+0x66>
			*pxTicksToWait -= xElapsedTime;
 8003702:	1a9b      	subs	r3, r3, r2
 8003704:	6023      	str	r3, [r4, #0]
			vTaskInternalSetTimeOutState( pxTimeOut );
 8003706:	4628      	mov	r0, r5
 8003708:	f7ff ffc6 	bl	8003698 <vTaskInternalSetTimeOutState>
				xReturn = pdFALSE;
 800370c:	2400      	movs	r4, #0
	taskEXIT_CRITICAL();
 800370e:	f7fe ffcb 	bl	80026a8 <vPortExitCritical>
}
 8003712:	4620      	mov	r0, r4
 8003714:	bd70      	pop	{r4, r5, r6, pc}
			*pxTicksToWait = 0;
 8003716:	2300      	movs	r3, #0
 8003718:	6023      	str	r3, [r4, #0]
			xReturn = pdTRUE;
 800371a:	2401      	movs	r4, #1
 800371c:	e7f7      	b.n	800370e <xTaskCheckForTimeOut+0x5e>
 800371e:	bf00      	nop
 8003720:	200040d0 	.word	0x200040d0
 8003724:	2000408c 	.word	0x2000408c

08003728 <vTaskMissedYield>:
	xYieldPending = pdTRUE;
 8003728:	4b01      	ldr	r3, [pc, #4]	; (8003730 <vTaskMissedYield+0x8>)
 800372a:	2201      	movs	r2, #1
 800372c:	601a      	str	r2, [r3, #0]
 800372e:	4770      	bx	lr
 8003730:	200040d4 	.word	0x200040d4

08003734 <xTaskGetSchedulerState>:
		if( xSchedulerRunning == pdFALSE )
 8003734:	4b05      	ldr	r3, [pc, #20]	; (800374c <xTaskGetSchedulerState+0x18>)
 8003736:	681b      	ldr	r3, [r3, #0]
 8003738:	b133      	cbz	r3, 8003748 <xTaskGetSchedulerState+0x14>
			if( uxSchedulerSuspended == ( UBaseType_t ) pdFALSE )
 800373a:	4b05      	ldr	r3, [pc, #20]	; (8003750 <xTaskGetSchedulerState+0x1c>)
 800373c:	681b      	ldr	r3, [r3, #0]
 800373e:	2b00      	cmp	r3, #0
				xReturn = taskSCHEDULER_SUSPENDED;
 8003740:	bf0c      	ite	eq
 8003742:	2002      	moveq	r0, #2
 8003744:	2000      	movne	r0, #0
 8003746:	4770      	bx	lr
			xReturn = taskSCHEDULER_NOT_STARTED;
 8003748:	2001      	movs	r0, #1
	}
 800374a:	4770      	bx	lr
 800374c:	200040a4 	.word	0x200040a4
 8003750:	20004054 	.word	0x20004054

08003754 <xTaskPriorityDisinherit>:
	{
 8003754:	b5f8      	push	{r3, r4, r5, r6, r7, lr}
		if( pxMutexHolder != NULL )
 8003756:	4604      	mov	r4, r0
 8003758:	b908      	cbnz	r0, 800375e <xTaskPriorityDisinherit+0xa>
	BaseType_t xReturn = pdFALSE;
 800375a:	2000      	movs	r0, #0
 800375c:	bdf8      	pop	{r3, r4, r5, r6, r7, pc}
			configASSERT( pxTCB == pxCurrentTCB );
 800375e:	4b22      	ldr	r3, [pc, #136]	; (80037e8 <xTaskPriorityDisinherit+0x94>)
 8003760:	681b      	ldr	r3, [r3, #0]
 8003762:	4298      	cmp	r0, r3
 8003764:	d008      	beq.n	8003778 <xTaskPriorityDisinherit+0x24>
 8003766:	f04f 0350 	mov.w	r3, #80	; 0x50
 800376a:	f383 8811 	msr	BASEPRI, r3
 800376e:	f3bf 8f6f 	isb	sy
 8003772:	f3bf 8f4f 	dsb	sy
 8003776:	e7fe      	b.n	8003776 <xTaskPriorityDisinherit+0x22>
			configASSERT( pxTCB->uxMutexesHeld );
 8003778:	6c83      	ldr	r3, [r0, #72]	; 0x48
 800377a:	b943      	cbnz	r3, 800378e <xTaskPriorityDisinherit+0x3a>
 800377c:	f04f 0350 	mov.w	r3, #80	; 0x50
 8003780:	f383 8811 	msr	BASEPRI, r3
 8003784:	f3bf 8f6f 	isb	sy
 8003788:	f3bf 8f4f 	dsb	sy
 800378c:	e7fe      	b.n	800378c <xTaskPriorityDisinherit+0x38>
			if( pxTCB->uxPriority != pxTCB->uxBasePriority )
 800378e:	6ac1      	ldr	r1, [r0, #44]	; 0x2c
 8003790:	6c42      	ldr	r2, [r0, #68]	; 0x44
			( pxTCB->uxMutexesHeld )--;
 8003792:	3b01      	subs	r3, #1
			if( pxTCB->uxPriority != pxTCB->uxBasePriority )
 8003794:	4291      	cmp	r1, r2
			( pxTCB->uxMutexesHeld )--;
 8003796:	6483      	str	r3, [r0, #72]	; 0x48
			if( pxTCB->uxPriority != pxTCB->uxBasePriority )
 8003798:	d0df      	beq.n	800375a <xTaskPriorityDisinherit+0x6>
				if( pxTCB->uxMutexesHeld == ( UBaseType_t ) 0 )
 800379a:	2b00      	cmp	r3, #0
 800379c:	d1dd      	bne.n	800375a <xTaskPriorityDisinherit+0x6>
					if( uxListRemove( &( pxTCB->xStateListItem ) ) == ( UBaseType_t ) 0 )
 800379e:	1d05      	adds	r5, r0, #4
 80037a0:	4628      	mov	r0, r5
 80037a2:	f7fe fee2 	bl	800256a <uxListRemove>
 80037a6:	4e11      	ldr	r6, [pc, #68]	; (80037ec <xTaskPriorityDisinherit+0x98>)
 80037a8:	4a11      	ldr	r2, [pc, #68]	; (80037f0 <xTaskPriorityDisinherit+0x9c>)
 80037aa:	b950      	cbnz	r0, 80037c2 <xTaskPriorityDisinherit+0x6e>
						taskRESET_READY_PRIORITY( pxTCB->uxPriority );
 80037ac:	6ae7      	ldr	r7, [r4, #44]	; 0x2c
 80037ae:	2114      	movs	r1, #20
 80037b0:	4379      	muls	r1, r7
 80037b2:	5873      	ldr	r3, [r6, r1]
 80037b4:	b92b      	cbnz	r3, 80037c2 <xTaskPriorityDisinherit+0x6e>
 80037b6:	6813      	ldr	r3, [r2, #0]
 80037b8:	2001      	movs	r0, #1
 80037ba:	40b8      	lsls	r0, r7
 80037bc:	ea23 0300 	bic.w	r3, r3, r0
 80037c0:	6013      	str	r3, [r2, #0]
					pxTCB->uxPriority = pxTCB->uxBasePriority;
 80037c2:	6c63      	ldr	r3, [r4, #68]	; 0x44
 80037c4:	62e3      	str	r3, [r4, #44]	; 0x2c
					listSET_LIST_ITEM_VALUE( &( pxTCB->xEventListItem ), ( TickType_t ) configMAX_PRIORITIES - ( TickType_t ) pxTCB->uxPriority ); /*lint !e961 MISRA exception as the casts are only redundant for some ports. */
 80037c6:	f1c3 0107 	rsb	r1, r3, #7
 80037ca:	61a1      	str	r1, [r4, #24]
					prvAddTaskToReadyList( pxTCB );
 80037cc:	6811      	ldr	r1, [r2, #0]
 80037ce:	2401      	movs	r4, #1
 80037d0:	fa04 f003 	lsl.w	r0, r4, r3
 80037d4:	4308      	orrs	r0, r1
 80037d6:	6010      	str	r0, [r2, #0]
 80037d8:	2014      	movs	r0, #20
 80037da:	fb00 6003 	mla	r0, r0, r3, r6
 80037de:	4629      	mov	r1, r5
 80037e0:	f7fe fea0 	bl	8002524 <vListInsertEnd>
					xReturn = pdTRUE;
 80037e4:	4620      	mov	r0, r4
	}
 80037e6:	bdf8      	pop	{r3, r4, r5, r6, r7, pc}
 80037e8:	20003fb0 	.word	0x20003fb0
 80037ec:	20003fbc 	.word	0x20003fbc
 80037f0:	2000405c 	.word	0x2000405c

080037f4 <vApplicationGetIdleTaskMemory>:
static StaticTask_t xIdleTaskTCBBuffer;
static StackType_t xIdleStack[configMINIMAL_STACK_SIZE];
  
void vApplicationGetIdleTaskMemory( StaticTask_t **ppxIdleTaskTCBBuffer, StackType_t **ppxIdleTaskStackBuffer, uint32_t *pulIdleTaskStackSize )
{
  *ppxIdleTaskTCBBuffer = &xIdleTaskTCBBuffer;
 80037f4:	4b03      	ldr	r3, [pc, #12]	; (8003804 <vApplicationGetIdleTaskMemory+0x10>)
 80037f6:	6003      	str	r3, [r0, #0]
  *ppxIdleTaskStackBuffer = &xIdleStack[0];
 80037f8:	4b03      	ldr	r3, [pc, #12]	; (8003808 <vApplicationGetIdleTaskMemory+0x14>)
 80037fa:	600b      	str	r3, [r1, #0]
  *pulIdleTaskStackSize = configMINIMAL_STACK_SIZE;
 80037fc:	2380      	movs	r3, #128	; 0x80
 80037fe:	6013      	str	r3, [r2, #0]
 8003800:	4770      	bx	lr
 8003802:	bf00      	nop
 8003804:	200042d8 	.word	0x200042d8
 8003808:	200040d8 	.word	0x200040d8

0800380c <Error_Handler>:

  /* USER CODE END Error_Handler_Debug */
//}

void Error_Handler(uint16_t error)
{
 800380c:	e7fe      	b.n	800380c <Error_Handler>
	...

08003810 <led_on_off>:
{
 8003810:	b510      	push	{r4, lr}
		HAL_GPIO_WritePin(LD2_GPIO_Port, LD2_Pin, GPIO_PIN_RESET);
 8003812:	4c0a      	ldr	r4, [pc, #40]	; (800383c <led_on_off+0x2c>)
 8003814:	2200      	movs	r2, #0
 8003816:	2120      	movs	r1, #32
 8003818:	4620      	mov	r0, r4
 800381a:	f7fd fea9 	bl	8001570 <HAL_GPIO_WritePin>
		vTaskDelay(xDelay);
 800381e:	f44f 707a 	mov.w	r0, #1000	; 0x3e8
 8003822:	f7ff fe7f 	bl	8003524 <vTaskDelay>
		HAL_GPIO_WritePin(LD2_GPIO_Port, LD2_Pin, GPIO_PIN_SET);
 8003826:	4620      	mov	r0, r4
 8003828:	2201      	movs	r2, #1
 800382a:	2120      	movs	r1, #32
 800382c:	f7fd fea0 	bl	8001570 <HAL_GPIO_WritePin>
		vTaskDelay(xDelay);
 8003830:	f44f 707a 	mov.w	r0, #1000	; 0x3e8
 8003834:	f7ff fe76 	bl	8003524 <vTaskDelay>
 8003838:	e7ec      	b.n	8003814 <led_on_off+0x4>
 800383a:	bf00      	nop
 800383c:	40020000 	.word	0x40020000

08003840 <motor_control>:
{
 8003840:	b573      	push	{r0, r1, r4, r5, r6, lr}
	int cmd_vel = 0;
 8003842:	2400      	movs	r4, #0
		queueStatus = xQueueReceive(vMaxQueue, &cmd_vel, xTicksToWait);
 8003844:	4d17      	ldr	r5, [pc, #92]	; (80038a4 <motor_control+0x64>)
	int cmd_vel = 0;
 8003846:	9401      	str	r4, [sp, #4]
	bool move = false;
 8003848:	f88d 4003 	strb.w	r4, [sp, #3]
				cmd_vel = 100;
 800384c:	2664      	movs	r6, #100	; 0x64
		queueStatus = xQueueReceive(vMaxQueue, &cmd_vel, xTicksToWait);
 800384e:	2200      	movs	r2, #0
 8003850:	a901      	add	r1, sp, #4
 8003852:	6828      	ldr	r0, [r5, #0]
 8003854:	f7ff fab4 	bl	8002dc0 <xQueueReceive>
		if (queueStatus == pdPASS) {
 8003858:	2801      	cmp	r0, #1
 800385a:	d103      	bne.n	8003864 <motor_control+0x24>
			if (cmd_vel > 100) {
 800385c:	9b01      	ldr	r3, [sp, #4]
 800385e:	2b64      	cmp	r3, #100	; 0x64
				cmd_vel = 100;
 8003860:	bfc8      	it	gt
 8003862:	9601      	strgt	r6, [sp, #4]
		queueStatus = xQueueReceive(moveQueue, &move, xTicksToWait);
 8003864:	4b10      	ldr	r3, [pc, #64]	; (80038a8 <motor_control+0x68>)
 8003866:	2200      	movs	r2, #0
 8003868:	f10d 0103 	add.w	r1, sp, #3
 800386c:	6818      	ldr	r0, [r3, #0]
 800386e:	f7ff faa7 	bl	8002dc0 <xQueueReceive>
		if (queueStatus == pdPASS) {
 8003872:	2801      	cmp	r0, #1
 8003874:	d104      	bne.n	8003880 <motor_control+0x40>
			if (true == move) {
 8003876:	f89d 4003 	ldrb.w	r4, [sp, #3]
 800387a:	b10c      	cbz	r4, 8003880 <motor_control+0x40>
				max_speed = (uint16_t)cmd_vel;
 800387c:	f8bd 4004 	ldrh.w	r4, [sp, #4]
		BSP_MotorControl_SetMaxSpeed(0, max_speed);
 8003880:	4621      	mov	r1, r4
 8003882:	2000      	movs	r0, #0
 8003884:	f7fd fbec 	bl	8001060 <BSP_MotorControl_SetMaxSpeed>
		vTaskDelay(command_delay);
 8003888:	204b      	movs	r0, #75	; 0x4b
 800388a:	f7ff fe4b 	bl	8003524 <vTaskDelay>
		BSP_MotorControl_Run(0, FORWARD);
 800388e:	2101      	movs	r1, #1
 8003890:	2000      	movs	r0, #0
 8003892:	f7fd fbd9 	bl	8001048 <BSP_MotorControl_Run>
		vTaskDelay(command_delay);
 8003896:	204b      	movs	r0, #75	; 0x4b
 8003898:	f7ff fe44 	bl	8003524 <vTaskDelay>
		vTaskDelay(loop_delay);
 800389c:	2064      	movs	r0, #100	; 0x64
 800389e:	f7ff fe41 	bl	8003524 <vTaskDelay>
		queueStatus = xQueueReceive(vMaxQueue, &cmd_vel, xTicksToWait);
 80038a2:	e7d4      	b.n	800384e <motor_control+0xe>
 80038a4:	20004330 	.word	0x20004330
 80038a8:	2000432c 	.word	0x2000432c

080038ac <rec_bytes>:
{
 80038ac:	e92d 41f0 	stmdb	sp!, {r4, r5, r6, r7, r8, lr}
 80038b0:	b086      	sub	sp, #24
	int cmd_vel = 0;
 80038b2:	2300      	movs	r3, #0
		ret_value = HAL_UART_Receive(&huart2,
 80038b4:	4d38      	ldr	r5, [pc, #224]	; (8003998 <rec_bytes+0xec>)
			HAL_UART_Transmit(&huart2,
 80038b6:	4f39      	ldr	r7, [pc, #228]	; (800399c <rec_bytes+0xf0>)
				queueStatus = xQueueSendToBack(moveQueue, &move, xTicksToWait);
 80038b8:	f8df 80f0 	ldr.w	r8, [pc, #240]	; 80039ac <rec_bytes+0x100>
	int cmd_vel = 0;
 80038bc:	9301      	str	r3, [sp, #4]
	bool move = false;
 80038be:	f88d 3003 	strb.w	r3, [sp, #3]
		ret_value = HAL_UART_Receive(&huart2,
 80038c2:	ac02      	add	r4, sp, #8
 80038c4:	f04f 33ff 	mov.w	r3, #4294967295	; 0xffffffff
 80038c8:	2205      	movs	r2, #5
 80038ca:	4621      	mov	r1, r4
 80038cc:	4628      	mov	r0, r5
 80038ce:	f7fe fd86 	bl	80023de <HAL_UART_Receive>
		if (ret_value == HAL_OK) {
 80038d2:	4606      	mov	r6, r0
 80038d4:	2800      	cmp	r0, #0
 80038d6:	d15a      	bne.n	800398e <rec_bytes+0xe2>
			if ((uint8_t)'v' == rec_buff[0]) {
 80038d8:	f89d 3008 	ldrb.w	r3, [sp, #8]
 80038dc:	2b76      	cmp	r3, #118	; 0x76
 80038de:	d12d      	bne.n	800393c <rec_bytes+0x90>
				rec_buff[0] = (uint8_t)'0';
 80038e0:	2330      	movs	r3, #48	; 0x30
				cmd_vel = (int)strtol((const char *)rec_buff, NULL, base);
 80038e2:	4601      	mov	r1, r0
 80038e4:	220a      	movs	r2, #10
 80038e6:	4620      	mov	r0, r4
				rec_buff[0] = (uint8_t)'0';
 80038e8:	f88d 3008 	strb.w	r3, [sp, #8]
				cmd_vel = (int)strtol((const char *)rec_buff, NULL, base);
 80038ec:	f000 fc68 	bl	80041c0 <strtol>
 80038f0:	a906      	add	r1, sp, #24
				queueStatus = xQueueSendToBack(vMaxQueue, &cmd_vel, xTicksToWait);
 80038f2:	4633      	mov	r3, r6
				cmd_vel = (int)strtol((const char *)rec_buff, NULL, base);
 80038f4:	f841 0d14 	str.w	r0, [r1, #-20]!
				queueStatus = xQueueSendToBack(vMaxQueue, &cmd_vel, xTicksToWait);
 80038f8:	4829      	ldr	r0, [pc, #164]	; (80039a0 <rec_bytes+0xf4>)
 80038fa:	4632      	mov	r2, r6
 80038fc:	6800      	ldr	r0, [r0, #0]
 80038fe:	f7ff f9a9 	bl	8002c54 <xQueueGenericSend>
				rec_buff[0] = (uint8_t)'V';
 8003902:	2356      	movs	r3, #86	; 0x56
				if (queueStatus != pdPASS) {
 8003904:	2801      	cmp	r0, #1
				rec_buff[0] = (uint8_t)'V';
 8003906:	f88d 3008 	strb.w	r3, [sp, #8]
				if (queueStatus != pdPASS) {
 800390a:	d005      	beq.n	8003918 <rec_bytes+0x6c>
					HAL_UART_Transmit(&huart2,
 800390c:	4925      	ldr	r1, [pc, #148]	; (80039a4 <rec_bytes+0xf8>)
 800390e:	2364      	movs	r3, #100	; 0x64
 8003910:	220f      	movs	r2, #15
					HAL_UART_Transmit(&huart2,
 8003912:	4628      	mov	r0, r5
 8003914:	f7fe fd06 	bl	8002324 <HAL_UART_Transmit>
			memcpy(trans_buff, rec_buff, buff_size);
 8003918:	e894 0003 	ldmia.w	r4, {r0, r1}
			memset(rec_buff, 0, buff_size);
 800391c:	2300      	movs	r3, #0
			memcpy(trans_buff, rec_buff, buff_size);
 800391e:	f88d 1014 	strb.w	r1, [sp, #20]
			memset(rec_buff, 0, buff_size);
 8003922:	6023      	str	r3, [r4, #0]
 8003924:	7123      	strb	r3, [r4, #4]
			memcpy(trans_buff, rec_buff, buff_size);
 8003926:	9004      	str	r0, [sp, #16]
			HAL_UART_Transmit(&huart2,
 8003928:	2364      	movs	r3, #100	; 0x64
 800392a:	2205      	movs	r2, #5
 800392c:	a904      	add	r1, sp, #16
			HAL_UART_Transmit(&huart2,
 800392e:	4628      	mov	r0, r5
 8003930:	f7fe fcf8 	bl	8002324 <HAL_UART_Transmit>
		vTaskDelay(loop_delay);
 8003934:	20c8      	movs	r0, #200	; 0xc8
 8003936:	f7ff fdf5 	bl	8003524 <vTaskDelay>
		ret_value = HAL_UART_Receive(&huart2,
 800393a:	e7c2      	b.n	80038c2 <rec_bytes+0x16>
			else if ((uint8_t)'m' == rec_buff[0]) {
 800393c:	2b6d      	cmp	r3, #109	; 0x6d
 800393e:	d11c      	bne.n	800397a <rec_bytes+0xce>
				rec_buff[0] = (uint8_t)'0';
 8003940:	2330      	movs	r3, #48	; 0x30
				move = (bool)strtol((const char *)rec_buff, NULL, base);
 8003942:	4601      	mov	r1, r0
 8003944:	220a      	movs	r2, #10
 8003946:	4620      	mov	r0, r4
				rec_buff[0] = (uint8_t)'0';
 8003948:	f88d 3008 	strb.w	r3, [sp, #8]
				move = (bool)strtol((const char *)rec_buff, NULL, base);
 800394c:	f000 fc38 	bl	80041c0 <strtol>
 8003950:	a906      	add	r1, sp, #24
 8003952:	3000      	adds	r0, #0
 8003954:	bf18      	it	ne
 8003956:	2001      	movne	r0, #1
 8003958:	f801 0d15 	strb.w	r0, [r1, #-21]!
				queueStatus = xQueueSendToBack(moveQueue, &move, xTicksToWait);
 800395c:	4633      	mov	r3, r6
 800395e:	4632      	mov	r2, r6
 8003960:	f8d8 0000 	ldr.w	r0, [r8]
 8003964:	f7ff f976 	bl	8002c54 <xQueueGenericSend>
				rec_buff[0] = (uint8_t)'M';
 8003968:	234d      	movs	r3, #77	; 0x4d
				if (queueStatus != pdPASS) {
 800396a:	2801      	cmp	r0, #1
				rec_buff[0] = (uint8_t)'M';
 800396c:	f88d 3008 	strb.w	r3, [sp, #8]
				if (queueStatus != pdPASS) {
 8003970:	d0d2      	beq.n	8003918 <rec_bytes+0x6c>
					HAL_UART_Transmit(&huart2,
 8003972:	2364      	movs	r3, #100	; 0x64
 8003974:	2210      	movs	r2, #16
 8003976:	490c      	ldr	r1, [pc, #48]	; (80039a8 <rec_bytes+0xfc>)
 8003978:	e7cb      	b.n	8003912 <rec_bytes+0x66>
				rec_buff[0] = (uint8_t)'n';
 800397a:	236e      	movs	r3, #110	; 0x6e
 800397c:	f88d 3008 	strb.w	r3, [sp, #8]
				rec_buff[1] = (uint8_t)'o';
 8003980:	236f      	movs	r3, #111	; 0x6f
 8003982:	f88d 3009 	strb.w	r3, [sp, #9]
				rec_buff[2] = (uint8_t)'p';
 8003986:	2370      	movs	r3, #112	; 0x70
 8003988:	f88d 300a 	strb.w	r3, [sp, #10]
 800398c:	e7c4      	b.n	8003918 <rec_bytes+0x6c>
			HAL_UART_Transmit(&huart2,
 800398e:	2364      	movs	r3, #100	; 0x64
 8003990:	2206      	movs	r2, #6
 8003992:	4639      	mov	r1, r7
 8003994:	e7cb      	b.n	800392e <rec_bytes+0x82>
 8003996:	bf00      	nop
 8003998:	2000446c 	.word	0x2000446c
 800399c:	080042b9 	.word	0x080042b9
 80039a0:	20004330 	.word	0x20004330
 80039a4:	0800429f 	.word	0x0800429f
 80039a8:	080042af 	.word	0x080042af
 80039ac:	2000432c 	.word	0x2000432c

080039b0 <StartDefaultTask>:
{
 80039b0:	b508      	push	{r3, lr}
    osDelay(1);
 80039b2:	2001      	movs	r0, #1
 80039b4:	f7fe fda0 	bl	80024f8 <osDelay>
 80039b8:	e7fb      	b.n	80039b2 <StartDefaultTask+0x2>

080039ba <MyFlagInterruptHandler>:
  * @brief  This function is the User handler for the flag interrupt
  * @param  None
  * @retval None
  */
void MyFlagInterruptHandler(void)
{
 80039ba:	b508      	push	{r3, lr}
  /* Code to be customised */
  /************************/
  /* Get the state of bridge A */
  uint16_t bridgeState  = BSP_MotorControl_CmdGetStatus(0);
 80039bc:	2000      	movs	r0, #0
 80039be:	f7fd fb61 	bl	8001084 <BSP_MotorControl_CmdGetStatus>

  if (bridgeState == 0)
 80039c2:	b920      	cbnz	r0, 80039ce <MyFlagInterruptHandler+0x14>
  {
    if (BSP_MotorControl_GetDeviceState(0) != INACTIVE)
 80039c4:	f7fd fb2e 	bl	8001024 <BSP_MotorControl_GetDeviceState>
 80039c8:	2808      	cmp	r0, #8
 80039ca:	d000      	beq.n	80039ce <MyFlagInterruptHandler+0x14>
 80039cc:	e7fe      	b.n	80039cc <MyFlagInterruptHandler+0x12>
 80039ce:	bd08      	pop	{r3, pc}

080039d0 <SystemClock_Config>:
{
 80039d0:	b510      	push	{r4, lr}
 80039d2:	b094      	sub	sp, #80	; 0x50
  RCC_OscInitTypeDef RCC_OscInitStruct = {0};
 80039d4:	2230      	movs	r2, #48	; 0x30
 80039d6:	2100      	movs	r1, #0
 80039d8:	a808      	add	r0, sp, #32
 80039da:	f000 fb68 	bl	80040ae <memset>
  RCC_ClkInitTypeDef RCC_ClkInitStruct = {0};
 80039de:	2214      	movs	r2, #20
 80039e0:	2100      	movs	r1, #0
 80039e2:	a803      	add	r0, sp, #12
 80039e4:	f000 fb63 	bl	80040ae <memset>
  __HAL_RCC_PWR_CLK_ENABLE();
 80039e8:	2200      	movs	r2, #0
 80039ea:	4b1e      	ldr	r3, [pc, #120]	; (8003a64 <SystemClock_Config+0x94>)
 80039ec:	9201      	str	r2, [sp, #4]
 80039ee:	6c19      	ldr	r1, [r3, #64]	; 0x40
 80039f0:	f041 5180 	orr.w	r1, r1, #268435456	; 0x10000000
 80039f4:	6419      	str	r1, [r3, #64]	; 0x40
 80039f6:	6c1b      	ldr	r3, [r3, #64]	; 0x40
  __HAL_PWR_VOLTAGESCALING_CONFIG(PWR_REGULATOR_VOLTAGE_SCALE2);
 80039f8:	491b      	ldr	r1, [pc, #108]	; (8003a68 <SystemClock_Config+0x98>)
  __HAL_RCC_PWR_CLK_ENABLE();
 80039fa:	f003 5380 	and.w	r3, r3, #268435456	; 0x10000000
 80039fe:	9301      	str	r3, [sp, #4]
 8003a00:	9b01      	ldr	r3, [sp, #4]
  __HAL_PWR_VOLTAGESCALING_CONFIG(PWR_REGULATOR_VOLTAGE_SCALE2);
 8003a02:	9202      	str	r2, [sp, #8]
 8003a04:	680b      	ldr	r3, [r1, #0]
 8003a06:	f423 4340 	bic.w	r3, r3, #49152	; 0xc000
 8003a0a:	f443 4300 	orr.w	r3, r3, #32768	; 0x8000
 8003a0e:	600b      	str	r3, [r1, #0]
 8003a10:	680b      	ldr	r3, [r1, #0]
  RCC_OscInitStruct.PLL.PLLSource = RCC_PLLSOURCE_HSI;
 8003a12:	920f      	str	r2, [sp, #60]	; 0x3c
  __HAL_PWR_VOLTAGESCALING_CONFIG(PWR_REGULATOR_VOLTAGE_SCALE2);
 8003a14:	f403 4340 	and.w	r3, r3, #49152	; 0xc000
 8003a18:	9302      	str	r3, [sp, #8]
 8003a1a:	9b02      	ldr	r3, [sp, #8]
  RCC_OscInitStruct.HSIState = RCC_HSI_ON;
 8003a1c:	2301      	movs	r3, #1
 8003a1e:	930b      	str	r3, [sp, #44]	; 0x2c
  RCC_OscInitStruct.HSICalibrationValue = RCC_HSICALIBRATION_DEFAULT;
 8003a20:	2310      	movs	r3, #16
 8003a22:	930c      	str	r3, [sp, #48]	; 0x30
  RCC_OscInitStruct.PLL.PLLM = 16;
 8003a24:	9310      	str	r3, [sp, #64]	; 0x40
  RCC_OscInitStruct.PLL.PLLN = 336;
 8003a26:	f44f 73a8 	mov.w	r3, #336	; 0x150
 8003a2a:	9311      	str	r3, [sp, #68]	; 0x44
  RCC_OscInitStruct.PLL.PLLP = RCC_PLLP_DIV4;
 8003a2c:	2304      	movs	r3, #4
  RCC_OscInitStruct.OscillatorType = RCC_OSCILLATORTYPE_HSI;
 8003a2e:	2402      	movs	r4, #2
  RCC_OscInitStruct.PLL.PLLP = RCC_PLLP_DIV4;
 8003a30:	9312      	str	r3, [sp, #72]	; 0x48
  if (HAL_RCC_OscConfig(&RCC_OscInitStruct) != HAL_OK)
 8003a32:	a808      	add	r0, sp, #32
  RCC_OscInitStruct.PLL.PLLQ = 7;
 8003a34:	2307      	movs	r3, #7
  RCC_OscInitStruct.OscillatorType = RCC_OSCILLATORTYPE_HSI;
 8003a36:	9408      	str	r4, [sp, #32]
  RCC_OscInitStruct.PLL.PLLState = RCC_PLL_ON;
 8003a38:	940e      	str	r4, [sp, #56]	; 0x38
  RCC_OscInitStruct.PLL.PLLQ = 7;
 8003a3a:	9313      	str	r3, [sp, #76]	; 0x4c
  if (HAL_RCC_OscConfig(&RCC_OscInitStruct) != HAL_OK)
 8003a3c:	f7fd fdaa 	bl	8001594 <HAL_RCC_OscConfig>
 8003a40:	b100      	cbz	r0, 8003a44 <SystemClock_Config+0x74>
 8003a42:	e7fe      	b.n	8003a42 <SystemClock_Config+0x72>
  RCC_ClkInitStruct.ClockType = RCC_CLOCKTYPE_HCLK|RCC_CLOCKTYPE_SYSCLK
 8003a44:	230f      	movs	r3, #15
 8003a46:	9303      	str	r3, [sp, #12]
  RCC_ClkInitStruct.AHBCLKDivider = RCC_SYSCLK_DIV1;
 8003a48:	9005      	str	r0, [sp, #20]
  RCC_ClkInitStruct.APB1CLKDivider = RCC_HCLK_DIV2;
 8003a4a:	f44f 5380 	mov.w	r3, #4096	; 0x1000
  RCC_ClkInitStruct.APB2CLKDivider = RCC_HCLK_DIV1;
 8003a4e:	9007      	str	r0, [sp, #28]
  if (HAL_RCC_ClockConfig(&RCC_ClkInitStruct, FLASH_LATENCY_2) != HAL_OK)
 8003a50:	4621      	mov	r1, r4
 8003a52:	a803      	add	r0, sp, #12
  RCC_ClkInitStruct.SYSCLKSource = RCC_SYSCLKSOURCE_PLLCLK;
 8003a54:	9404      	str	r4, [sp, #16]
  RCC_ClkInitStruct.APB1CLKDivider = RCC_HCLK_DIV2;
 8003a56:	9306      	str	r3, [sp, #24]
  if (HAL_RCC_ClockConfig(&RCC_ClkInitStruct, FLASH_LATENCY_2) != HAL_OK)
 8003a58:	f7fd ff4c 	bl	80018f4 <HAL_RCC_ClockConfig>
 8003a5c:	b100      	cbz	r0, 8003a60 <SystemClock_Config+0x90>
 8003a5e:	e7fe      	b.n	8003a5e <SystemClock_Config+0x8e>
}
 8003a60:	b014      	add	sp, #80	; 0x50
 8003a62:	bd10      	pop	{r4, pc}
 8003a64:	40023800 	.word	0x40023800
 8003a68:	40007000 	.word	0x40007000

08003a6c <main>:
{
 8003a6c:	b580      	push	{r7, lr}
 8003a6e:	b08e      	sub	sp, #56	; 0x38
  HAL_Init();
 8003a70:	f7fd fb88 	bl	8001184 <HAL_Init>
  SystemClock_Config();
 8003a74:	f7ff ffac 	bl	80039d0 <SystemClock_Config>
  BSP_PB_Init(BUTTON_KEY, BUTTON_MODE_EXTI);
 8003a78:	2101      	movs	r1, #1
 8003a7a:	2000      	movs	r0, #0
 8003a7c:	f7fd f8be 	bl	8000bfc <BSP_PB_Init>
  HAL_NVIC_SetPriority(SysTick_IRQn, 0x0, 0x0);
 8003a80:	2200      	movs	r2, #0
 8003a82:	4611      	mov	r1, r2
 8003a84:	f04f 30ff 	mov.w	r0, #4294967295	; 0xffffffff
 8003a88:	f7fd fbce 	bl	8001228 <HAL_NVIC_SetPriority>
  BSP_MotorControl_SetNbDevices(BSP_MOTOR_CONTROL_BOARD_ID_L6206, 1);
 8003a8c:	2101      	movs	r1, #1
 8003a8e:	f641 003e 	movw	r0, #6206	; 0x183e
 8003a92:	f7fd fb25 	bl	80010e0 <BSP_MotorControl_SetNbDevices>
  BSP_MotorControl_Init(BSP_MOTOR_CONTROL_BOARD_ID_L6206, &initDeviceParameters);
 8003a96:	4972      	ldr	r1, [pc, #456]	; (8003c60 <main+0x1f4>)
  GPIO_InitStruct.Mode = GPIO_MODE_IT_RISING;
 8003a98:	4e72      	ldr	r6, [pc, #456]	; (8003c64 <main+0x1f8>)
  BSP_MotorControl_Init(BSP_MOTOR_CONTROL_BOARD_ID_L6206, &initDeviceParameters);
 8003a9a:	f641 003e 	movw	r0, #6206	; 0x183e
 8003a9e:	f7fd faa7 	bl	8000ff0 <BSP_MotorControl_Init>
  BSP_MotorControl_SetDualFullBridgeConfig(PARALLELING_IN1A_IN2A__IN1B_IN2B__1_BIDIR_MOTOR);
 8003aa2:	2009      	movs	r0, #9
 8003aa4:	f7fd fb00 	bl	80010a8 <BSP_MotorControl_SetDualFullBridgeConfig>
  BSP_MotorControl_AttachFlagInterrupt(MyFlagInterruptHandler);
 8003aa8:	486f      	ldr	r0, [pc, #444]	; (8003c68 <main+0x1fc>)
 8003aaa:	f7fd fa95 	bl	8000fd8 <BSP_MotorControl_AttachFlagInterrupt>
  BSP_MotorControl_AttachErrorHandler(Error_Handler);
 8003aae:	486f      	ldr	r0, [pc, #444]	; (8003c6c <main+0x200>)
 8003ab0:	f7fd fa86 	bl	8000fc0 <BSP_MotorControl_AttachErrorHandler>
  BSP_MotorControl_SetBridgeInputPwmFreq(0,10000);
 8003ab4:	f242 7110 	movw	r1, #10000	; 0x2710
 8003ab8:	2000      	movs	r0, #0
 8003aba:	f7fd fb03 	bl	80010c4 <BSP_MotorControl_SetBridgeInputPwmFreq>
  BSP_MotorControl_SetBridgeInputPwmFreq(1,10000);
 8003abe:	f242 7110 	movw	r1, #10000	; 0x2710
 8003ac2:	2001      	movs	r0, #1
 8003ac4:	f7fd fafe 	bl	80010c4 <BSP_MotorControl_SetBridgeInputPwmFreq>
  GPIO_InitTypeDef GPIO_InitStruct = {0};
 8003ac8:	2214      	movs	r2, #20
 8003aca:	2100      	movs	r1, #0
 8003acc:	a807      	add	r0, sp, #28
 8003ace:	f000 faee 	bl	80040ae <memset>
  __HAL_RCC_GPIOC_CLK_ENABLE();
 8003ad2:	2400      	movs	r4, #0
 8003ad4:	4b66      	ldr	r3, [pc, #408]	; (8003c70 <main+0x204>)
 8003ad6:	9403      	str	r4, [sp, #12]
 8003ad8:	6b1a      	ldr	r2, [r3, #48]	; 0x30
  HAL_GPIO_WritePin(LD2_GPIO_Port, LD2_Pin, GPIO_PIN_RESET);
 8003ada:	4866      	ldr	r0, [pc, #408]	; (8003c74 <main+0x208>)
  __HAL_RCC_GPIOC_CLK_ENABLE();
 8003adc:	f042 0204 	orr.w	r2, r2, #4
 8003ae0:	631a      	str	r2, [r3, #48]	; 0x30
 8003ae2:	6b1a      	ldr	r2, [r3, #48]	; 0x30
 8003ae4:	f002 0204 	and.w	r2, r2, #4
 8003ae8:	9203      	str	r2, [sp, #12]
 8003aea:	9a03      	ldr	r2, [sp, #12]
  __HAL_RCC_GPIOH_CLK_ENABLE();
 8003aec:	9404      	str	r4, [sp, #16]
 8003aee:	6b1a      	ldr	r2, [r3, #48]	; 0x30
 8003af0:	f042 0280 	orr.w	r2, r2, #128	; 0x80
 8003af4:	631a      	str	r2, [r3, #48]	; 0x30
 8003af6:	6b1a      	ldr	r2, [r3, #48]	; 0x30
 8003af8:	f002 0280 	and.w	r2, r2, #128	; 0x80
 8003afc:	9204      	str	r2, [sp, #16]
 8003afe:	9a04      	ldr	r2, [sp, #16]
  __HAL_RCC_GPIOA_CLK_ENABLE();
 8003b00:	9405      	str	r4, [sp, #20]
 8003b02:	6b1a      	ldr	r2, [r3, #48]	; 0x30
 8003b04:	f042 0201 	orr.w	r2, r2, #1
 8003b08:	631a      	str	r2, [r3, #48]	; 0x30
 8003b0a:	6b1a      	ldr	r2, [r3, #48]	; 0x30
 8003b0c:	f002 0201 	and.w	r2, r2, #1
 8003b10:	9205      	str	r2, [sp, #20]
 8003b12:	9a05      	ldr	r2, [sp, #20]
  __HAL_RCC_GPIOB_CLK_ENABLE();
 8003b14:	9406      	str	r4, [sp, #24]
 8003b16:	6b1a      	ldr	r2, [r3, #48]	; 0x30
 8003b18:	f042 0202 	orr.w	r2, r2, #2
 8003b1c:	631a      	str	r2, [r3, #48]	; 0x30
 8003b1e:	6b1b      	ldr	r3, [r3, #48]	; 0x30
 8003b20:	f003 0302 	and.w	r3, r3, #2
  HAL_GPIO_WritePin(LD2_GPIO_Port, LD2_Pin, GPIO_PIN_RESET);
 8003b24:	4622      	mov	r2, r4
  __HAL_RCC_GPIOB_CLK_ENABLE();
 8003b26:	9306      	str	r3, [sp, #24]
  HAL_GPIO_WritePin(LD2_GPIO_Port, LD2_Pin, GPIO_PIN_RESET);
 8003b28:	2120      	movs	r1, #32
  __HAL_RCC_GPIOB_CLK_ENABLE();
 8003b2a:	9b06      	ldr	r3, [sp, #24]
  HAL_GPIO_WritePin(LD2_GPIO_Port, LD2_Pin, GPIO_PIN_RESET);
 8003b2c:	f7fd fd20 	bl	8001570 <HAL_GPIO_WritePin>
  GPIO_InitStruct.Pin = B1_Pin;
 8003b30:	f44f 5300 	mov.w	r3, #8192	; 0x2000
 8003b34:	9307      	str	r3, [sp, #28]
  HAL_GPIO_Init(B1_GPIO_Port, &GPIO_InitStruct);
 8003b36:	a907      	add	r1, sp, #28
  GPIO_InitStruct.Mode = GPIO_MODE_IT_FALLING;
 8003b38:	4b4f      	ldr	r3, [pc, #316]	; (8003c78 <main+0x20c>)
  HAL_GPIO_Init(B1_GPIO_Port, &GPIO_InitStruct);
 8003b3a:	4850      	ldr	r0, [pc, #320]	; (8003c7c <main+0x210>)
  GPIO_InitStruct.Mode = GPIO_MODE_IT_FALLING;
 8003b3c:	9308      	str	r3, [sp, #32]
  GPIO_InitStruct.Pin = GPIO_PIN_1;
 8003b3e:	2702      	movs	r7, #2
  GPIO_InitStruct.Pull = GPIO_NOPULL;
 8003b40:	9409      	str	r4, [sp, #36]	; 0x24
  HAL_GPIO_Init(B1_GPIO_Port, &GPIO_InitStruct);
 8003b42:	f7fd fbc3 	bl	80012cc <HAL_GPIO_Init>
  HAL_GPIO_Init(GPIOC, &GPIO_InitStruct);
 8003b46:	a907      	add	r1, sp, #28
 8003b48:	484c      	ldr	r0, [pc, #304]	; (8003c7c <main+0x210>)
  GPIO_InitStruct.Pull = GPIO_NOPULL;
 8003b4a:	9409      	str	r4, [sp, #36]	; 0x24
  GPIO_InitStruct.Alternate = GPIO_AF1_TIM2;
 8003b4c:	2501      	movs	r5, #1
  GPIO_InitStruct.Pin = GPIO_PIN_1;
 8003b4e:	9707      	str	r7, [sp, #28]
  GPIO_InitStruct.Mode = GPIO_MODE_IT_RISING;
 8003b50:	9608      	str	r6, [sp, #32]
  HAL_GPIO_Init(GPIOC, &GPIO_InitStruct);
 8003b52:	f7fd fbbb 	bl	80012cc <HAL_GPIO_Init>
  GPIO_InitStruct.Pin = GPIO_PIN_0|GPIO_PIN_1;
 8003b56:	2303      	movs	r3, #3
  HAL_GPIO_Init(GPIOA, &GPIO_InitStruct);
 8003b58:	a907      	add	r1, sp, #28
 8003b5a:	4846      	ldr	r0, [pc, #280]	; (8003c74 <main+0x208>)
  GPIO_InitStruct.Pin = GPIO_PIN_0|GPIO_PIN_1;
 8003b5c:	9307      	str	r3, [sp, #28]
  GPIO_InitStruct.Pull = GPIO_NOPULL;
 8003b5e:	9409      	str	r4, [sp, #36]	; 0x24
  GPIO_InitStruct.Speed = GPIO_SPEED_FREQ_LOW;
 8003b60:	940a      	str	r4, [sp, #40]	; 0x28
  GPIO_InitStruct.Mode = GPIO_MODE_AF_PP;
 8003b62:	9708      	str	r7, [sp, #32]
  GPIO_InitStruct.Alternate = GPIO_AF1_TIM2;
 8003b64:	950b      	str	r5, [sp, #44]	; 0x2c
  HAL_GPIO_Init(GPIOA, &GPIO_InitStruct);
 8003b66:	f7fd fbb1 	bl	80012cc <HAL_GPIO_Init>
  GPIO_InitStruct.Pin = LD2_Pin;
 8003b6a:	2320      	movs	r3, #32
  HAL_GPIO_Init(LD2_GPIO_Port, &GPIO_InitStruct);
 8003b6c:	a907      	add	r1, sp, #28
 8003b6e:	4841      	ldr	r0, [pc, #260]	; (8003c74 <main+0x208>)
  GPIO_InitStruct.Pin = LD2_Pin;
 8003b70:	9307      	str	r3, [sp, #28]
  GPIO_InitStruct.Pull = GPIO_NOPULL;
 8003b72:	9409      	str	r4, [sp, #36]	; 0x24
  GPIO_InitStruct.Speed = GPIO_SPEED_FREQ_LOW;
 8003b74:	940a      	str	r4, [sp, #40]	; 0x28
  GPIO_InitStruct.Mode = GPIO_MODE_OUTPUT_PP;
 8003b76:	9508      	str	r5, [sp, #32]
  HAL_GPIO_Init(LD2_GPIO_Port, &GPIO_InitStruct);
 8003b78:	f7fd fba8 	bl	80012cc <HAL_GPIO_Init>
  GPIO_InitStruct.Pin = GPIO_PIN_10;
 8003b7c:	f44f 6380 	mov.w	r3, #1024	; 0x400
  HAL_GPIO_Init(GPIOA, &GPIO_InitStruct);
 8003b80:	a907      	add	r1, sp, #28
 8003b82:	483c      	ldr	r0, [pc, #240]	; (8003c74 <main+0x208>)
  GPIO_InitStruct.Pin = GPIO_PIN_10;
 8003b84:	9307      	str	r3, [sp, #28]
  GPIO_InitStruct.Pull = GPIO_NOPULL;
 8003b86:	9409      	str	r4, [sp, #36]	; 0x24
  GPIO_InitStruct.Mode = GPIO_MODE_IT_RISING;
 8003b88:	9608      	str	r6, [sp, #32]
  HAL_GPIO_Init(GPIOA, &GPIO_InitStruct);
 8003b8a:	f7fd fb9f 	bl	80012cc <HAL_GPIO_Init>
  GPIO_InitStruct.Pin = GPIO_PIN_4|GPIO_PIN_5;
 8003b8e:	2330      	movs	r3, #48	; 0x30
  HAL_GPIO_Init(GPIOB, &GPIO_InitStruct);
 8003b90:	a907      	add	r1, sp, #28
 8003b92:	483b      	ldr	r0, [pc, #236]	; (8003c80 <main+0x214>)
  GPIO_InitStruct.Pin = GPIO_PIN_4|GPIO_PIN_5;
 8003b94:	9307      	str	r3, [sp, #28]
  GPIO_InitStruct.Pull = GPIO_NOPULL;
 8003b96:	9409      	str	r4, [sp, #36]	; 0x24
  GPIO_InitStruct.Speed = GPIO_SPEED_FREQ_LOW;
 8003b98:	940a      	str	r4, [sp, #40]	; 0x28
  GPIO_InitStruct.Mode = GPIO_MODE_AF_PP;
 8003b9a:	9708      	str	r7, [sp, #32]
  GPIO_InitStruct.Alternate = GPIO_AF2_TIM3;
 8003b9c:	970b      	str	r7, [sp, #44]	; 0x2c
  HAL_GPIO_Init(GPIOB, &GPIO_InitStruct);
 8003b9e:	f7fd fb95 	bl	80012cc <HAL_GPIO_Init>
  HAL_NVIC_SetPriority(EXTI1_IRQn, 0, 0);
 8003ba2:	4622      	mov	r2, r4
 8003ba4:	4621      	mov	r1, r4
 8003ba6:	2007      	movs	r0, #7
 8003ba8:	f7fd fb3e 	bl	8001228 <HAL_NVIC_SetPriority>
  HAL_NVIC_EnableIRQ(EXTI1_IRQn);
 8003bac:	2007      	movs	r0, #7
 8003bae:	f7fd fb6f 	bl	8001290 <HAL_NVIC_EnableIRQ>
  HAL_NVIC_SetPriority(EXTI15_10_IRQn, 5, 0);
 8003bb2:	4622      	mov	r2, r4
 8003bb4:	2105      	movs	r1, #5
 8003bb6:	2028      	movs	r0, #40	; 0x28
 8003bb8:	f7fd fb36 	bl	8001228 <HAL_NVIC_SetPriority>
  HAL_NVIC_EnableIRQ(EXTI15_10_IRQn);
 8003bbc:	2028      	movs	r0, #40	; 0x28
 8003bbe:	f7fd fb67 	bl	8001290 <HAL_NVIC_EnableIRQ>
  huart2.Instance = USART2;
 8003bc2:	4830      	ldr	r0, [pc, #192]	; (8003c84 <main+0x218>)
  huart2.Init.BaudRate = 115200;
 8003bc4:	4a30      	ldr	r2, [pc, #192]	; (8003c88 <main+0x21c>)
  huart2.Init.WordLength = UART_WORDLENGTH_8B;
 8003bc6:	6084      	str	r4, [r0, #8]
  huart2.Init.BaudRate = 115200;
 8003bc8:	f44f 33e1 	mov.w	r3, #115200	; 0x1c200
 8003bcc:	e880 000c 	stmia.w	r0, {r2, r3}
  huart2.Init.Mode = UART_MODE_TX_RX;
 8003bd0:	230c      	movs	r3, #12
  huart2.Init.StopBits = UART_STOPBITS_1;
 8003bd2:	60c4      	str	r4, [r0, #12]
  huart2.Init.Parity = UART_PARITY_NONE;
 8003bd4:	6104      	str	r4, [r0, #16]
  huart2.Init.HwFlowCtl = UART_HWCONTROL_NONE;
 8003bd6:	6184      	str	r4, [r0, #24]
  huart2.Init.OverSampling = UART_OVERSAMPLING_16;
 8003bd8:	61c4      	str	r4, [r0, #28]
  huart2.Init.Mode = UART_MODE_TX_RX;
 8003bda:	6143      	str	r3, [r0, #20]
  if (HAL_UART_Init(&huart2) != HAL_OK)
 8003bdc:	f7fe fb74 	bl	80022c8 <HAL_UART_Init>
 8003be0:	4604      	mov	r4, r0
 8003be2:	b100      	cbz	r0, 8003be6 <main+0x17a>
 8003be4:	e7fe      	b.n	8003be4 <main+0x178>
  vMaxQueue = xQueueCreate(1, sizeof(int));
 8003be6:	4602      	mov	r2, r0
 8003be8:	2104      	movs	r1, #4
 8003bea:	4628      	mov	r0, r5
 8003bec:	f7ff f80e 	bl	8002c0c <xQueueGenericCreate>
 8003bf0:	4b26      	ldr	r3, [pc, #152]	; (8003c8c <main+0x220>)
  moveQueue = xQueueCreate(1, sizeof(bool));
 8003bf2:	f8df 80bc 	ldr.w	r8, [pc, #188]	; 8003cb0 <main+0x244>
  vMaxQueue = xQueueCreate(1, sizeof(int));
 8003bf6:	6018      	str	r0, [r3, #0]
  moveQueue = xQueueCreate(1, sizeof(bool));
 8003bf8:	4629      	mov	r1, r5
 8003bfa:	4622      	mov	r2, r4
 8003bfc:	4628      	mov	r0, r5
 8003bfe:	f7ff f805 	bl	8002c0c <xQueueGenericCreate>
  osThreadDef(defaultTask, StartDefaultTask, osPriorityNormal, 0, 128);
 8003c02:	4e23      	ldr	r6, [pc, #140]	; (8003c90 <main+0x224>)
  moveQueue = xQueueCreate(1, sizeof(bool));
 8003c04:	f8c8 0000 	str.w	r0, [r8]
  osThreadDef(defaultTask, StartDefaultTask, osPriorityNormal, 0, 128);
 8003c08:	ce0f      	ldmia	r6!, {r0, r1, r2, r3}
 8003c0a:	ad07      	add	r5, sp, #28
 8003c0c:	c50f      	stmia	r5!, {r0, r1, r2, r3}
 8003c0e:	e896 0007 	ldmia.w	r6, {r0, r1, r2}
 8003c12:	e885 0007 	stmia.w	r5, {r0, r1, r2}
  defaultTaskHandle = osThreadCreate(osThread(defaultTask), NULL);
 8003c16:	4621      	mov	r1, r4
 8003c18:	a807      	add	r0, sp, #28
 8003c1a:	f7fe fc45 	bl	80024a8 <osThreadCreate>
 8003c1e:	4b1d      	ldr	r3, [pc, #116]	; (8003c94 <main+0x228>)
 8003c20:	6018      	str	r0, [r3, #0]
  if (moveQueue != NULL) {
 8003c22:	f8d8 3000 	ldr.w	r3, [r8]
 8003c26:	b1bb      	cbz	r3, 8003c58 <main+0x1ec>
	  xTaskCreate(led_on_off,
 8003c28:	4623      	mov	r3, r4
 8003c2a:	2280      	movs	r2, #128	; 0x80
 8003c2c:	491a      	ldr	r1, [pc, #104]	; (8003c98 <main+0x22c>)
 8003c2e:	9401      	str	r4, [sp, #4]
 8003c30:	9700      	str	r7, [sp, #0]
 8003c32:	481a      	ldr	r0, [pc, #104]	; (8003c9c <main+0x230>)
 8003c34:	f7ff fb01 	bl	800323a <xTaskCreate>
	  xTaskCreate(motor_control,
 8003c38:	4623      	mov	r3, r4
 8003c3a:	2280      	movs	r2, #128	; 0x80
 8003c3c:	4918      	ldr	r1, [pc, #96]	; (8003ca0 <main+0x234>)
 8003c3e:	9401      	str	r4, [sp, #4]
 8003c40:	9700      	str	r7, [sp, #0]
 8003c42:	4818      	ldr	r0, [pc, #96]	; (8003ca4 <main+0x238>)
 8003c44:	f7ff faf9 	bl	800323a <xTaskCreate>
	  xTaskCreate(rec_bytes,
 8003c48:	9401      	str	r4, [sp, #4]
 8003c4a:	9700      	str	r7, [sp, #0]
 8003c4c:	4623      	mov	r3, r4
 8003c4e:	2280      	movs	r2, #128	; 0x80
 8003c50:	4915      	ldr	r1, [pc, #84]	; (8003ca8 <main+0x23c>)
 8003c52:	4816      	ldr	r0, [pc, #88]	; (8003cac <main+0x240>)
 8003c54:	f7ff faf1 	bl	800323a <xTaskCreate>
  osKernelStart();
 8003c58:	f7fe fc21 	bl	800249e <osKernelStart>
 8003c5c:	e7fe      	b.n	8003c5c <main+0x1f0>
 8003c5e:	bf00      	nop
 8003c60:	20000170 	.word	0x20000170
 8003c64:	10110000 	.word	0x10110000
 8003c68:	080039bb 	.word	0x080039bb
 8003c6c:	0800380d 	.word	0x0800380d
 8003c70:	40023800 	.word	0x40023800
 8003c74:	40020000 	.word	0x40020000
 8003c78:	10210000 	.word	0x10210000
 8003c7c:	40020800 	.word	0x40020800
 8003c80:	40020400 	.word	0x40020400
 8003c84:	2000446c 	.word	0x2000446c
 8003c88:	40004400 	.word	0x40004400
 8003c8c:	20004330 	.word	0x20004330
 8003c90:	08004248 	.word	0x08004248
 8003c94:	20004468 	.word	0x20004468
 8003c98:	08004276 	.word	0x08004276
 8003c9c:	08003811 	.word	0x08003811
 8003ca0:	08004282 	.word	0x08004282
 8003ca4:	08003841 	.word	0x08003841
 8003ca8:	08004290 	.word	0x08004290
 8003cac:	080038ad 	.word	0x080038ad
 8003cb0:	2000432c 	.word	0x2000432c

08003cb4 <HAL_TIM_PeriodElapsedCallback>:
  if (htim->Instance == TIM4) {
 8003cb4:	6802      	ldr	r2, [r0, #0]
 8003cb6:	4b03      	ldr	r3, [pc, #12]	; (8003cc4 <HAL_TIM_PeriodElapsedCallback+0x10>)
 8003cb8:	429a      	cmp	r2, r3
 8003cba:	d101      	bne.n	8003cc0 <HAL_TIM_PeriodElapsedCallback+0xc>
    HAL_IncTick();
 8003cbc:	f7fd ba7c 	b.w	80011b8 <HAL_IncTick>
 8003cc0:	4770      	bx	lr
 8003cc2:	bf00      	nop
 8003cc4:	40000800 	.word	0x40000800

08003cc8 <ButtonHandler>:
  * @brief  This function is executed when the Nucleo User button is pressed
  * @param  error number of the error
  * @retval None
  */
void ButtonHandler(void)
{
 8003cc8:	b508      	push	{r3, lr}

  /* Let 300 ms before clearing the IT for key debouncing */
  HAL_Delay(300);
 8003cca:	f44f 7096 	mov.w	r0, #300	; 0x12c
 8003cce:	f7fd fa85 	bl	80011dc <HAL_Delay>
  __HAL_GPIO_EXTI_CLEAR_IT(KEY_BUTTON_PIN);
 8003cd2:	4b04      	ldr	r3, [pc, #16]	; (8003ce4 <ButtonHandler+0x1c>)
 8003cd4:	f44f 5200 	mov.w	r2, #8192	; 0x2000
 8003cd8:	615a      	str	r2, [r3, #20]
  HAL_NVIC_ClearPendingIRQ(KEY_BUTTON_EXTI_IRQn);
 8003cda:	2028      	movs	r0, #40	; 0x28
}
 8003cdc:	e8bd 4008 	ldmia.w	sp!, {r3, lr}
  HAL_NVIC_ClearPendingIRQ(KEY_BUTTON_EXTI_IRQn);
 8003ce0:	f7fd bae4 	b.w	80012ac <HAL_NVIC_ClearPendingIRQ>
 8003ce4:	40013c00 	.word	0x40013c00

08003ce8 <HAL_MspInit>:
/* USER CODE END 0 */
/**
  * Initializes the Global MSP.
  */
void HAL_MspInit(void)
{
 8003ce8:	b507      	push	{r0, r1, r2, lr}
  /* USER CODE BEGIN MspInit 0 */

  /* USER CODE END MspInit 0 */

  __HAL_RCC_SYSCFG_CLK_ENABLE();
 8003cea:	4b0f      	ldr	r3, [pc, #60]	; (8003d28 <HAL_MspInit+0x40>)
 8003cec:	2200      	movs	r2, #0
 8003cee:	9200      	str	r2, [sp, #0]
 8003cf0:	6c59      	ldr	r1, [r3, #68]	; 0x44
 8003cf2:	f441 4180 	orr.w	r1, r1, #16384	; 0x4000
 8003cf6:	6459      	str	r1, [r3, #68]	; 0x44
 8003cf8:	6c59      	ldr	r1, [r3, #68]	; 0x44
 8003cfa:	f401 4180 	and.w	r1, r1, #16384	; 0x4000
 8003cfe:	9100      	str	r1, [sp, #0]
 8003d00:	9900      	ldr	r1, [sp, #0]
  __HAL_RCC_PWR_CLK_ENABLE();
 8003d02:	9201      	str	r2, [sp, #4]
 8003d04:	6c19      	ldr	r1, [r3, #64]	; 0x40
 8003d06:	f041 5180 	orr.w	r1, r1, #268435456	; 0x10000000
 8003d0a:	6419      	str	r1, [r3, #64]	; 0x40
 8003d0c:	6c1b      	ldr	r3, [r3, #64]	; 0x40
 8003d0e:	f003 5380 	and.w	r3, r3, #268435456	; 0x10000000
 8003d12:	9301      	str	r3, [sp, #4]

  /* System interrupt init*/
  /* PendSV_IRQn interrupt configuration */
  HAL_NVIC_SetPriority(PendSV_IRQn, 15, 0);
 8003d14:	210f      	movs	r1, #15
 8003d16:	f06f 0001 	mvn.w	r0, #1
  __HAL_RCC_PWR_CLK_ENABLE();
 8003d1a:	9b01      	ldr	r3, [sp, #4]
  HAL_NVIC_SetPriority(PendSV_IRQn, 15, 0);
 8003d1c:	f7fd fa84 	bl	8001228 <HAL_NVIC_SetPriority>

  /* USER CODE BEGIN MspInit 1 */

  /* USER CODE END MspInit 1 */
}
 8003d20:	b003      	add	sp, #12
 8003d22:	f85d fb04 	ldr.w	pc, [sp], #4
 8003d26:	bf00      	nop
 8003d28:	40023800 	.word	0x40023800

08003d2c <HAL_UART_MspInit>:
* This function configures the hardware resources used in this example
* @param huart: UART handle pointer
* @retval None
*/
void HAL_UART_MspInit(UART_HandleTypeDef* huart)
{
 8003d2c:	b510      	push	{r4, lr}
 8003d2e:	4604      	mov	r4, r0
 8003d30:	b088      	sub	sp, #32
  GPIO_InitTypeDef GPIO_InitStruct = {0};
 8003d32:	2214      	movs	r2, #20
 8003d34:	2100      	movs	r1, #0
 8003d36:	a803      	add	r0, sp, #12
 8003d38:	f000 f9b9 	bl	80040ae <memset>
  if(huart->Instance==USART2)
 8003d3c:	6822      	ldr	r2, [r4, #0]
 8003d3e:	4b13      	ldr	r3, [pc, #76]	; (8003d8c <HAL_UART_MspInit+0x60>)
 8003d40:	429a      	cmp	r2, r3
 8003d42:	d120      	bne.n	8003d86 <HAL_UART_MspInit+0x5a>
  {
  /* USER CODE BEGIN USART2_MspInit 0 */

  /* USER CODE END USART2_MspInit 0 */
    /* Peripheral clock enable */
    __HAL_RCC_USART2_CLK_ENABLE();
 8003d44:	f503 33fa 	add.w	r3, r3, #128000	; 0x1f400
 8003d48:	2100      	movs	r1, #0
 8003d4a:	9101      	str	r1, [sp, #4]
 8003d4c:	6c1a      	ldr	r2, [r3, #64]	; 0x40
    GPIO_InitStruct.Pin = USART_TX_Pin|USART_RX_Pin;
    GPIO_InitStruct.Mode = GPIO_MODE_AF_PP;
    GPIO_InitStruct.Pull = GPIO_NOPULL;
    GPIO_InitStruct.Speed = GPIO_SPEED_FREQ_LOW;
    GPIO_InitStruct.Alternate = GPIO_AF7_USART2;
    HAL_GPIO_Init(GPIOA, &GPIO_InitStruct);
 8003d4e:	4810      	ldr	r0, [pc, #64]	; (8003d90 <HAL_UART_MspInit+0x64>)
    __HAL_RCC_USART2_CLK_ENABLE();
 8003d50:	f442 3200 	orr.w	r2, r2, #131072	; 0x20000
 8003d54:	641a      	str	r2, [r3, #64]	; 0x40
 8003d56:	6c1a      	ldr	r2, [r3, #64]	; 0x40
 8003d58:	f402 3200 	and.w	r2, r2, #131072	; 0x20000
 8003d5c:	9201      	str	r2, [sp, #4]
 8003d5e:	9a01      	ldr	r2, [sp, #4]
    __HAL_RCC_GPIOA_CLK_ENABLE();
 8003d60:	9102      	str	r1, [sp, #8]
 8003d62:	6b1a      	ldr	r2, [r3, #48]	; 0x30
 8003d64:	f042 0201 	orr.w	r2, r2, #1
 8003d68:	631a      	str	r2, [r3, #48]	; 0x30
 8003d6a:	6b1b      	ldr	r3, [r3, #48]	; 0x30
 8003d6c:	f003 0301 	and.w	r3, r3, #1
 8003d70:	9302      	str	r3, [sp, #8]
 8003d72:	9b02      	ldr	r3, [sp, #8]
    GPIO_InitStruct.Pin = USART_TX_Pin|USART_RX_Pin;
 8003d74:	230c      	movs	r3, #12
 8003d76:	9303      	str	r3, [sp, #12]
    GPIO_InitStruct.Mode = GPIO_MODE_AF_PP;
 8003d78:	2302      	movs	r3, #2
 8003d7a:	9304      	str	r3, [sp, #16]
    HAL_GPIO_Init(GPIOA, &GPIO_InitStruct);
 8003d7c:	a903      	add	r1, sp, #12
    GPIO_InitStruct.Alternate = GPIO_AF7_USART2;
 8003d7e:	2307      	movs	r3, #7
 8003d80:	9307      	str	r3, [sp, #28]
    HAL_GPIO_Init(GPIOA, &GPIO_InitStruct);
 8003d82:	f7fd faa3 	bl	80012cc <HAL_GPIO_Init>
  /* USER CODE BEGIN USART2_MspInit 1 */

  /* USER CODE END USART2_MspInit 1 */
  }

}
 8003d86:	b008      	add	sp, #32
 8003d88:	bd10      	pop	{r4, pc}
 8003d8a:	bf00      	nop
 8003d8c:	40004400 	.word	0x40004400
 8003d90:	40020000 	.word	0x40020000

08003d94 <HAL_TIM_PWM_MspInit>:
  * @brief PWM MSP Initialization
  * @param[in] htim_pwm PWM handle pointer
  * @retval None
  */
void HAL_TIM_PWM_MspInit(TIM_HandleTypeDef* htim_pwm)
{
 8003d94:	b500      	push	{lr}
  GPIO_InitTypeDef GPIO_InitStruct;
  if ((htim_pwm->Instance == BSP_MOTOR_CONTROL_BOARD_TIMER_PWM1A)&&
 8003d96:	6803      	ldr	r3, [r0, #0]
 8003d98:	4a32      	ldr	r2, [pc, #200]	; (8003e64 <HAL_TIM_PWM_MspInit+0xd0>)
 8003d9a:	4293      	cmp	r3, r2
{
 8003d9c:	b08b      	sub	sp, #44	; 0x2c
  if ((htim_pwm->Instance == BSP_MOTOR_CONTROL_BOARD_TIMER_PWM1A)&&
 8003d9e:	d132      	bne.n	8003e06 <HAL_TIM_PWM_MspInit+0x72>
      (htim_pwm->Channel == BSP_MOTOR_CONTROL_BOARD_HAL_ACT_CHAN_TIMER_PWM1A))
 8003da0:	7f03      	ldrb	r3, [r0, #28]
  if ((htim_pwm->Instance == BSP_MOTOR_CONTROL_BOARD_TIMER_PWM1A)&&
 8003da2:	2b01      	cmp	r3, #1
 8003da4:	d11a      	bne.n	8003ddc <HAL_TIM_PWM_MspInit+0x48>
  {
    /* Peripheral clock enable */
    __BSP_MOTOR_CONTROL_BOARD_TIMER_PWM1A_CLCK_ENABLE();
 8003da6:	2300      	movs	r3, #0
 8003da8:	f502 320d 	add.w	r2, r2, #144384	; 0x23400
 8003dac:	9301      	str	r3, [sp, #4]
 8003dae:	6c11      	ldr	r1, [r2, #64]	; 0x40
 8003db0:	f041 0102 	orr.w	r1, r1, #2
 8003db4:	6411      	str	r1, [r2, #64]	; 0x40
 8003db6:	6c12      	ldr	r2, [r2, #64]	; 0x40

    /* GPIO configuration */
    GPIO_InitStruct.Pin = BSP_MOTOR_CONTROL_BOARD_PWM_1A_PIN;
    GPIO_InitStruct.Mode = GPIO_MODE_AF_PP;
    GPIO_InitStruct.Pull = GPIO_NOPULL;
 8003db8:	9307      	str	r3, [sp, #28]
    __BSP_MOTOR_CONTROL_BOARD_TIMER_PWM1A_CLCK_ENABLE();
 8003dba:	f002 0202 	and.w	r2, r2, #2
 8003dbe:	9201      	str	r2, [sp, #4]
 8003dc0:	9a01      	ldr	r2, [sp, #4]
    GPIO_InitStruct.Speed = GPIO_SPEED_LOW;
 8003dc2:	9308      	str	r3, [sp, #32]
    GPIO_InitStruct.Pin = BSP_MOTOR_CONTROL_BOARD_PWM_1A_PIN;
 8003dc4:	2210      	movs	r2, #16
 8003dc6:	9205      	str	r2, [sp, #20]
    GPIO_InitStruct.Mode = GPIO_MODE_AF_PP;
 8003dc8:	2202      	movs	r2, #2
 8003dca:	9206      	str	r2, [sp, #24]
    GPIO_InitStruct.Alternate = BSP_MOTOR_CONTROL_BOARD_AFx_TIMx_PWM1A;
 8003dcc:	9209      	str	r2, [sp, #36]	; 0x24
    GPIO_InitStruct.Pin = BSP_MOTOR_CONTROL_BOARD_PWM_2A_PIN;
    GPIO_InitStruct.Mode = GPIO_MODE_AF_PP;
    GPIO_InitStruct.Pull = GPIO_NOPULL;
    GPIO_InitStruct.Speed = GPIO_SPEED_LOW;
    GPIO_InitStruct.Alternate = BSP_MOTOR_CONTROL_BOARD_AFx_TIMx_PWM2A;
    HAL_GPIO_Init(BSP_MOTOR_CONTROL_BOARD_PWM_2A_PORT, &GPIO_InitStruct);
 8003dce:	4826      	ldr	r0, [pc, #152]	; (8003e68 <HAL_TIM_PWM_MspInit+0xd4>)
 8003dd0:	a905      	add	r1, sp, #20
    GPIO_InitStruct.Pin = BSP_MOTOR_CONTROL_BOARD_PWM_2B_PIN;
    GPIO_InitStruct.Mode = GPIO_MODE_AF_PP;
    GPIO_InitStruct.Pull = GPIO_NOPULL;
    GPIO_InitStruct.Speed = GPIO_SPEED_LOW;
    GPIO_InitStruct.Alternate = BSP_MOTOR_CONTROL_BOARD_AFx_TIMx_PWM2B;
    HAL_GPIO_Init(BSP_MOTOR_CONTROL_BOARD_PWM_2B_PORT, &GPIO_InitStruct);
 8003dd2:	f7fd fa7b 	bl	80012cc <HAL_GPIO_Init>
   }
}
 8003dd6:	b00b      	add	sp, #44	; 0x2c
 8003dd8:	f85d fb04 	ldr.w	pc, [sp], #4
  else if ((htim_pwm->Instance == BSP_MOTOR_CONTROL_BOARD_TIMER_PWM2A)&&
 8003ddc:	2b02      	cmp	r3, #2
 8003dde:	d1fa      	bne.n	8003dd6 <HAL_TIM_PWM_MspInit+0x42>
    __BSP_MOTOR_CONTROL_BOARD_TIMER_PWM2A_CLCK_ENABLE();
 8003de0:	2200      	movs	r2, #0
 8003de2:	4922      	ldr	r1, [pc, #136]	; (8003e6c <HAL_TIM_PWM_MspInit+0xd8>)
 8003de4:	9202      	str	r2, [sp, #8]
 8003de6:	6c08      	ldr	r0, [r1, #64]	; 0x40
 8003de8:	f040 0002 	orr.w	r0, r0, #2
 8003dec:	6408      	str	r0, [r1, #64]	; 0x40
 8003dee:	6c09      	ldr	r1, [r1, #64]	; 0x40
    GPIO_InitStruct.Mode = GPIO_MODE_AF_PP;
 8003df0:	9306      	str	r3, [sp, #24]
    __BSP_MOTOR_CONTROL_BOARD_TIMER_PWM2A_CLCK_ENABLE();
 8003df2:	f001 0102 	and.w	r1, r1, #2
 8003df6:	9102      	str	r1, [sp, #8]
 8003df8:	9902      	ldr	r1, [sp, #8]
    GPIO_InitStruct.Pull = GPIO_NOPULL;
 8003dfa:	9207      	str	r2, [sp, #28]
    GPIO_InitStruct.Pin = BSP_MOTOR_CONTROL_BOARD_PWM_2A_PIN;
 8003dfc:	2120      	movs	r1, #32
 8003dfe:	9105      	str	r1, [sp, #20]
    GPIO_InitStruct.Speed = GPIO_SPEED_LOW;
 8003e00:	9208      	str	r2, [sp, #32]
    GPIO_InitStruct.Alternate = BSP_MOTOR_CONTROL_BOARD_AFx_TIMx_PWM2A;
 8003e02:	9309      	str	r3, [sp, #36]	; 0x24
 8003e04:	e7e3      	b.n	8003dce <HAL_TIM_PWM_MspInit+0x3a>
  else if ((htim_pwm->Instance == BSP_MOTOR_CONTROL_BOARD_TIMER_PWM1B)&&
 8003e06:	f1b3 4f80 	cmp.w	r3, #1073741824	; 0x40000000
 8003e0a:	d1e4      	bne.n	8003dd6 <HAL_TIM_PWM_MspInit+0x42>
           (htim_pwm->Channel == BSP_MOTOR_CONTROL_BOARD_HAL_ACT_CHAN_TIMER_PWM1B))
 8003e0c:	7f03      	ldrb	r3, [r0, #28]
  else if ((htim_pwm->Instance == BSP_MOTOR_CONTROL_BOARD_TIMER_PWM1B)&&
 8003e0e:	2b01      	cmp	r3, #1
 8003e10:	d114      	bne.n	8003e3c <HAL_TIM_PWM_MspInit+0xa8>
    __BSP_MOTOR_CONTROL_BOARD_TIMER_PWM1B_CLCK_ENABLE();
 8003e12:	2200      	movs	r2, #0
 8003e14:	4915      	ldr	r1, [pc, #84]	; (8003e6c <HAL_TIM_PWM_MspInit+0xd8>)
 8003e16:	9203      	str	r2, [sp, #12]
 8003e18:	6c08      	ldr	r0, [r1, #64]	; 0x40
 8003e1a:	f040 0001 	orr.w	r0, r0, #1
 8003e1e:	6408      	str	r0, [r1, #64]	; 0x40
 8003e20:	6c09      	ldr	r1, [r1, #64]	; 0x40
    GPIO_InitStruct.Pin = BSP_MOTOR_CONTROL_BOARD_PWM_1B_PIN;
 8003e22:	9305      	str	r3, [sp, #20]
    __BSP_MOTOR_CONTROL_BOARD_TIMER_PWM1B_CLCK_ENABLE();
 8003e24:	f001 0101 	and.w	r1, r1, #1
 8003e28:	9103      	str	r1, [sp, #12]
 8003e2a:	9903      	ldr	r1, [sp, #12]
    GPIO_InitStruct.Pull = GPIO_NOPULL;
 8003e2c:	9207      	str	r2, [sp, #28]
    GPIO_InitStruct.Mode = GPIO_MODE_AF_PP;
 8003e2e:	2102      	movs	r1, #2
 8003e30:	9106      	str	r1, [sp, #24]
    GPIO_InitStruct.Speed = GPIO_SPEED_LOW;
 8003e32:	9208      	str	r2, [sp, #32]
    GPIO_InitStruct.Alternate = BSP_MOTOR_CONTROL_BOARD_AFx_TIMx_PWM2B;
 8003e34:	9309      	str	r3, [sp, #36]	; 0x24
    HAL_GPIO_Init(BSP_MOTOR_CONTROL_BOARD_PWM_2B_PORT, &GPIO_InitStruct);
 8003e36:	a905      	add	r1, sp, #20
 8003e38:	480d      	ldr	r0, [pc, #52]	; (8003e70 <HAL_TIM_PWM_MspInit+0xdc>)
 8003e3a:	e7ca      	b.n	8003dd2 <HAL_TIM_PWM_MspInit+0x3e>
  else if ((htim_pwm->Instance == BSP_MOTOR_CONTROL_BOARD_TIMER_PWM2B)&&
 8003e3c:	2b02      	cmp	r3, #2
 8003e3e:	d1ca      	bne.n	8003dd6 <HAL_TIM_PWM_MspInit+0x42>
    __BSP_MOTOR_CONTROL_BOARD_TIMER_PWM2B_CLCK_ENABLE();
 8003e40:	2200      	movs	r2, #0
 8003e42:	490a      	ldr	r1, [pc, #40]	; (8003e6c <HAL_TIM_PWM_MspInit+0xd8>)
 8003e44:	9204      	str	r2, [sp, #16]
 8003e46:	6c08      	ldr	r0, [r1, #64]	; 0x40
 8003e48:	f040 0001 	orr.w	r0, r0, #1
 8003e4c:	6408      	str	r0, [r1, #64]	; 0x40
 8003e4e:	6c09      	ldr	r1, [r1, #64]	; 0x40
    GPIO_InitStruct.Pin = BSP_MOTOR_CONTROL_BOARD_PWM_2B_PIN;
 8003e50:	9305      	str	r3, [sp, #20]
    __BSP_MOTOR_CONTROL_BOARD_TIMER_PWM2B_CLCK_ENABLE();
 8003e52:	f001 0101 	and.w	r1, r1, #1
 8003e56:	9104      	str	r1, [sp, #16]
    GPIO_InitStruct.Mode = GPIO_MODE_AF_PP;
 8003e58:	9306      	str	r3, [sp, #24]
    __BSP_MOTOR_CONTROL_BOARD_TIMER_PWM2B_CLCK_ENABLE();
 8003e5a:	9904      	ldr	r1, [sp, #16]
    GPIO_InitStruct.Pull = GPIO_NOPULL;
 8003e5c:	9207      	str	r2, [sp, #28]
    GPIO_InitStruct.Speed = GPIO_SPEED_LOW;
 8003e5e:	9208      	str	r2, [sp, #32]
    GPIO_InitStruct.Alternate = BSP_MOTOR_CONTROL_BOARD_AFx_TIMx_PWM2B;
 8003e60:	2301      	movs	r3, #1
 8003e62:	e7e7      	b.n	8003e34 <HAL_TIM_PWM_MspInit+0xa0>
 8003e64:	40000400 	.word	0x40000400
 8003e68:	40020400 	.word	0x40020400
 8003e6c:	40023800 	.word	0x40023800
 8003e70:	40020000 	.word	0x40020000

08003e74 <HAL_TIM_PWM_MspDeInit>:
  * @param[in] htim_pwm PWM handle pointer
  * @retval None
  */
void HAL_TIM_PWM_MspDeInit(TIM_HandleTypeDef* htim_pwm)
{
  if ((htim_pwm->Instance == BSP_MOTOR_CONTROL_BOARD_TIMER_PWM1A)&&
 8003e74:	6803      	ldr	r3, [r0, #0]
 8003e76:	4a10      	ldr	r2, [pc, #64]	; (8003eb8 <HAL_TIM_PWM_MspDeInit+0x44>)
 8003e78:	4293      	cmp	r3, r2
 8003e7a:	d10c      	bne.n	8003e96 <HAL_TIM_PWM_MspDeInit+0x22>
 8003e7c:	7f03      	ldrb	r3, [r0, #28]
 8003e7e:	2b01      	cmp	r3, #1
 8003e80:	d118      	bne.n	8003eb4 <HAL_TIM_PWM_MspDeInit+0x40>
       (htim_pwm->Channel == BSP_MOTOR_CONTROL_BOARD_HAL_ACT_CHAN_TIMER_PWM1A))
  {
    /* Peripheral clock disable */
    __BSP_MOTOR_CONTROL_BOARD_TIMER_PWM1A_CLCK_DISABLE();
 8003e82:	f502 320d 	add.w	r2, r2, #144384	; 0x23400

    /* GPIO Deconfiguration */
    HAL_GPIO_DeInit(BSP_MOTOR_CONTROL_BOARD_PWM_1A_PORT, BSP_MOTOR_CONTROL_BOARD_PWM_1A_PIN);
 8003e86:	480d      	ldr	r0, [pc, #52]	; (8003ebc <HAL_TIM_PWM_MspDeInit+0x48>)
    __BSP_MOTOR_CONTROL_BOARD_TIMER_PWM1A_CLCK_DISABLE();
 8003e88:	6c13      	ldr	r3, [r2, #64]	; 0x40
 8003e8a:	f023 0302 	bic.w	r3, r3, #2
 8003e8e:	6413      	str	r3, [r2, #64]	; 0x40
    HAL_GPIO_DeInit(BSP_MOTOR_CONTROL_BOARD_PWM_1A_PORT, BSP_MOTOR_CONTROL_BOARD_PWM_1A_PIN);
 8003e90:	2110      	movs	r1, #16
  {
    /* Peripheral clock disable */
    __BSP_MOTOR_CONTROL_BOARD_TIMER_PWM2B_CLCK_DISABLE();

    /* GPIO Deconfiguration */
    HAL_GPIO_DeInit(BSP_MOTOR_CONTROL_BOARD_PWM_2B_PORT, BSP_MOTOR_CONTROL_BOARD_PWM_2B_PIN);
 8003e92:	f7fd baf1 	b.w	8001478 <HAL_GPIO_DeInit>
  else if ((htim_pwm->Instance == BSP_MOTOR_CONTROL_BOARD_TIMER_PWM1B)&&
 8003e96:	f1b3 4f80 	cmp.w	r3, #1073741824	; 0x40000000
 8003e9a:	d10b      	bne.n	8003eb4 <HAL_TIM_PWM_MspDeInit+0x40>
           (htim_pwm->Channel == BSP_MOTOR_CONTROL_BOARD_HAL_ACT_CHAN_TIMER_PWM1B))
 8003e9c:	7f01      	ldrb	r1, [r0, #28]
  else if ((htim_pwm->Instance == BSP_MOTOR_CONTROL_BOARD_TIMER_PWM1B)&&
 8003e9e:	2901      	cmp	r1, #1
 8003ea0:	d106      	bne.n	8003eb0 <HAL_TIM_PWM_MspDeInit+0x3c>
    __BSP_MOTOR_CONTROL_BOARD_TIMER_PWM2B_CLCK_DISABLE();
 8003ea2:	4a07      	ldr	r2, [pc, #28]	; (8003ec0 <HAL_TIM_PWM_MspDeInit+0x4c>)
    HAL_GPIO_DeInit(BSP_MOTOR_CONTROL_BOARD_PWM_2B_PORT, BSP_MOTOR_CONTROL_BOARD_PWM_2B_PIN);
 8003ea4:	4807      	ldr	r0, [pc, #28]	; (8003ec4 <HAL_TIM_PWM_MspDeInit+0x50>)
    __BSP_MOTOR_CONTROL_BOARD_TIMER_PWM2B_CLCK_DISABLE();
 8003ea6:	6c13      	ldr	r3, [r2, #64]	; 0x40
 8003ea8:	f023 0301 	bic.w	r3, r3, #1
 8003eac:	6413      	str	r3, [r2, #64]	; 0x40
 8003eae:	e7f0      	b.n	8003e92 <HAL_TIM_PWM_MspDeInit+0x1e>
  else   if ((htim_pwm->Instance == BSP_MOTOR_CONTROL_BOARD_TIMER_PWM2B)&&
 8003eb0:	2902      	cmp	r1, #2
 8003eb2:	d0f6      	beq.n	8003ea2 <HAL_TIM_PWM_MspDeInit+0x2e>
 8003eb4:	4770      	bx	lr
 8003eb6:	bf00      	nop
 8003eb8:	40000400 	.word	0x40000400
 8003ebc:	40020400 	.word	0x40020400
 8003ec0:	40023800 	.word	0x40023800
 8003ec4:	40020000 	.word	0x40020000

08003ec8 <HAL_GPIO_EXTI_Callback>:
  * @param[in] GPIO_Pin pin number
  * @retval None
  */
void HAL_GPIO_EXTI_Callback(uint16_t GPIO_Pin)
{
  if ((GPIO_Pin == BSP_MOTOR_CONTROL_BOARD_EN_AND_FLAG_A_PIN)||
 8003ec8:	f5b0 6f80 	cmp.w	r0, #1024	; 0x400
{
 8003ecc:	b510      	push	{r4, lr}
 8003ece:	4604      	mov	r4, r0
  if ((GPIO_Pin == BSP_MOTOR_CONTROL_BOARD_EN_AND_FLAG_A_PIN)||
 8003ed0:	d001      	beq.n	8003ed6 <HAL_GPIO_EXTI_Callback+0xe>
 8003ed2:	2802      	cmp	r0, #2
 8003ed4:	d101      	bne.n	8003eda <HAL_GPIO_EXTI_Callback+0x12>
      (GPIO_Pin == BSP_MOTOR_CONTROL_BOARD_EN_AND_FLAG_B_PIN))
  {
    BSP_MotorControl_FlagInterruptHandler();
 8003ed6:	f7fd f899 	bl	800100c <BSP_MotorControl_FlagInterruptHandler>
  }

  if (GPIO_Pin == KEY_BUTTON_PIN)
 8003eda:	f5b4 5f00 	cmp.w	r4, #8192	; 0x2000
 8003ede:	d103      	bne.n	8003ee8 <HAL_GPIO_EXTI_Callback+0x20>
  {
    ButtonHandler();
  }
}
 8003ee0:	e8bd 4010 	ldmia.w	sp!, {r4, lr}
    ButtonHandler();
 8003ee4:	f7ff bef0 	b.w	8003cc8 <ButtonHandler>
 8003ee8:	bd10      	pop	{r4, pc}
	...

08003eec <HAL_InitTick>:
  *         reset by HAL_Init() or at any time when clock is configured, by HAL_RCC_ClockConfig(). 
  * @param  TickPriority: Tick interrupt priority.
  * @retval HAL status
  */
HAL_StatusTypeDef HAL_InitTick(uint32_t TickPriority)
{
 8003eec:	b530      	push	{r4, r5, lr}
  uint32_t              uwTimclock = 0;
  uint32_t              uwPrescalerValue = 0;
  uint32_t              pFLatency;
  
  /*Configure the TIM4 IRQ priority */
  HAL_NVIC_SetPriority(TIM4_IRQn, TickPriority ,0); 
 8003eee:	4601      	mov	r1, r0
{
 8003ef0:	b089      	sub	sp, #36	; 0x24
  HAL_NVIC_SetPriority(TIM4_IRQn, TickPriority ,0); 
 8003ef2:	2200      	movs	r2, #0
 8003ef4:	201e      	movs	r0, #30
 8003ef6:	f7fd f997 	bl	8001228 <HAL_NVIC_SetPriority>
  
  /* Enable the TIM4 global Interrupt */
  HAL_NVIC_EnableIRQ(TIM4_IRQn); 
 8003efa:	201e      	movs	r0, #30
 8003efc:	f7fd f9c8 	bl	8001290 <HAL_NVIC_EnableIRQ>
  
  /* Enable TIM4 clock */
  __HAL_RCC_TIM4_CLK_ENABLE();
 8003f00:	2500      	movs	r5, #0
 8003f02:	4b15      	ldr	r3, [pc, #84]	; (8003f58 <HAL_InitTick+0x6c>)
 8003f04:	9502      	str	r5, [sp, #8]
 8003f06:	6c1a      	ldr	r2, [r3, #64]	; 0x40
   
  /* Compute the prescaler value to have TIM4 counter clock equal to 1MHz */
  uwPrescalerValue = (uint32_t) ((uwTimclock / 1000000) - 1);
  
  /* Initialize TIM4 */
  htim4.Instance = TIM4;
 8003f08:	4c14      	ldr	r4, [pc, #80]	; (8003f5c <HAL_InitTick+0x70>)
  __HAL_RCC_TIM4_CLK_ENABLE();
 8003f0a:	f042 0204 	orr.w	r2, r2, #4
 8003f0e:	641a      	str	r2, [r3, #64]	; 0x40
 8003f10:	6c1b      	ldr	r3, [r3, #64]	; 0x40
 8003f12:	f003 0304 	and.w	r3, r3, #4
 8003f16:	9302      	str	r3, [sp, #8]
  HAL_RCC_GetClockConfig(&clkconfig, &pFLatency);
 8003f18:	a901      	add	r1, sp, #4
 8003f1a:	a803      	add	r0, sp, #12
  __HAL_RCC_TIM4_CLK_ENABLE();
 8003f1c:	9b02      	ldr	r3, [sp, #8]
  HAL_RCC_GetClockConfig(&clkconfig, &pFLatency);
 8003f1e:	f7fd fda3 	bl	8001a68 <HAL_RCC_GetClockConfig>
  uwTimclock = 2*HAL_RCC_GetPCLK1Freq();
 8003f22:	f7fd fd81 	bl	8001a28 <HAL_RCC_GetPCLK1Freq>
  htim4.Instance = TIM4;
 8003f26:	4b0e      	ldr	r3, [pc, #56]	; (8003f60 <HAL_InitTick+0x74>)
 8003f28:	6023      	str	r3, [r4, #0]
  + Period = [(TIM4CLK/1000) - 1]. to have a (1/1000) s time base.
  + Prescaler = (uwTimclock/1000000 - 1) to have a 1MHz counter clock.
  + ClockDivision = 0
  + Counter direction = Up
  */
  htim4.Init.Period = (1000000 / 1000) - 1;
 8003f2a:	f240 33e7 	movw	r3, #999	; 0x3e7
 8003f2e:	60e3      	str	r3, [r4, #12]
  uwTimclock = 2*HAL_RCC_GetPCLK1Freq();
 8003f30:	0040      	lsls	r0, r0, #1
  uwPrescalerValue = (uint32_t) ((uwTimclock / 1000000) - 1);
 8003f32:	4b0c      	ldr	r3, [pc, #48]	; (8003f64 <HAL_InitTick+0x78>)
 8003f34:	fbb0 f0f3 	udiv	r0, r0, r3
 8003f38:	3801      	subs	r0, #1
  htim4.Init.Prescaler = uwPrescalerValue;
 8003f3a:	6060      	str	r0, [r4, #4]
  htim4.Init.ClockDivision = 0;
  htim4.Init.CounterMode = TIM_COUNTERMODE_UP;
  if(HAL_TIM_Base_Init(&htim4) == HAL_OK)
 8003f3c:	4620      	mov	r0, r4
  htim4.Init.ClockDivision = 0;
 8003f3e:	6125      	str	r5, [r4, #16]
  htim4.Init.CounterMode = TIM_COUNTERMODE_UP;
 8003f40:	60a5      	str	r5, [r4, #8]
  if(HAL_TIM_Base_Init(&htim4) == HAL_OK)
 8003f42:	f7fd ff45 	bl	8001dd0 <HAL_TIM_Base_Init>
 8003f46:	b920      	cbnz	r0, 8003f52 <HAL_InitTick+0x66>
  {
    /* Start the TIM time Base generation in interrupt mode */
    return HAL_TIM_Base_Start_IT(&htim4);
 8003f48:	4620      	mov	r0, r4
 8003f4a:	f7fd fe20 	bl	8001b8e <HAL_TIM_Base_Start_IT>
  }
  
  /* Return function status */
  return HAL_ERROR;
}
 8003f4e:	b009      	add	sp, #36	; 0x24
 8003f50:	bd30      	pop	{r4, r5, pc}
  return HAL_ERROR;
 8003f52:	2001      	movs	r0, #1
 8003f54:	e7fb      	b.n	8003f4e <HAL_InitTick+0x62>
 8003f56:	bf00      	nop
 8003f58:	40023800 	.word	0x40023800
 8003f5c:	200044ac 	.word	0x200044ac
 8003f60:	40000800 	.word	0x40000800
 8003f64:	000f4240 	.word	0x000f4240

08003f68 <NMI_Handler>:
 8003f68:	4770      	bx	lr

08003f6a <HardFault_Handler>:

/**
  * @brief This function handles Hard fault interrupt.
  */
void HardFault_Handler(void)
{
 8003f6a:	e7fe      	b.n	8003f6a <HardFault_Handler>

08003f6c <MemManage_Handler>:

/**
  * @brief This function handles Memory management fault.
  */
void MemManage_Handler(void)
{
 8003f6c:	e7fe      	b.n	8003f6c <MemManage_Handler>

08003f6e <BusFault_Handler>:

/**
  * @brief This function handles Pre-fetch fault, memory access fault.
  */
void BusFault_Handler(void)
{
 8003f6e:	e7fe      	b.n	8003f6e <BusFault_Handler>

08003f70 <UsageFault_Handler>:

/**
  * @brief This function handles Undefined instruction or illegal state.
  */
void UsageFault_Handler(void)
{
 8003f70:	e7fe      	b.n	8003f70 <UsageFault_Handler>

08003f72 <DebugMon_Handler>:

/**
  * @brief This function handles Debug monitor.
  */
void DebugMon_Handler(void)
{
 8003f72:	4770      	bx	lr

08003f74 <EXTI1_IRQHandler>:
void EXTI1_IRQHandler(void)
{
  /* USER CODE BEGIN EXTI1_IRQn 0 */

  /* USER CODE END EXTI1_IRQn 0 */
  HAL_GPIO_EXTI_IRQHandler(GPIO_PIN_1);
 8003f74:	2002      	movs	r0, #2
 8003f76:	f7fd bb01 	b.w	800157c <HAL_GPIO_EXTI_IRQHandler>
	...

08003f7c <TIM4_IRQHandler>:
void TIM4_IRQHandler(void)
{
  /* USER CODE BEGIN TIM4_IRQn 0 */

  /* USER CODE END TIM4_IRQn 0 */
  HAL_TIM_IRQHandler(&htim4);
 8003f7c:	4801      	ldr	r0, [pc, #4]	; (8003f84 <TIM4_IRQHandler+0x8>)
 8003f7e:	f7fd be37 	b.w	8001bf0 <HAL_TIM_IRQHandler>
 8003f82:	bf00      	nop
 8003f84:	200044ac 	.word	0x200044ac

08003f88 <EXTI15_10_IRQHandler>:

/**
  * @brief This function handles EXTI line[15:10] interrupts.
  */
void EXTI15_10_IRQHandler(void)
{
 8003f88:	b508      	push	{r3, lr}
	for (i = 0; i < 1000; ++i) {
		/* do nothing... */
	}

  /* USER CODE END EXTI15_10_IRQn 0 */
  HAL_GPIO_EXTI_IRQHandler(GPIO_PIN_10);
 8003f8a:	f44f 6080 	mov.w	r0, #1024	; 0x400
 8003f8e:	f7fd faf5 	bl	800157c <HAL_GPIO_EXTI_IRQHandler>
  HAL_GPIO_EXTI_IRQHandler(GPIO_PIN_13);
 8003f92:	f44f 5000 	mov.w	r0, #8192	; 0x2000
 8003f96:	f7fd faf1 	bl	800157c <HAL_GPIO_EXTI_IRQHandler>
  /* USER CODE BEGIN EXTI15_10_IRQn 1 */
  
  HAL_GPIO_EXTI_IRQHandler(BSP_MOTOR_CONTROL_BOARD_EN_AND_FLAG_A_PIN);
 8003f9a:	f44f 6080 	mov.w	r0, #1024	; 0x400
 8003f9e:	f7fd faed 	bl	800157c <HAL_GPIO_EXTI_IRQHandler>

	HAL_GPIO_EXTI_IRQHandler(KEY_BUTTON_PIN);
 8003fa2:	f44f 5000 	mov.w	r0, #8192	; 0x2000

  /* USER CODE END EXTI15_10_IRQn 1 */
}
 8003fa6:	e8bd 4008 	ldmia.w	sp!, {r3, lr}
	HAL_GPIO_EXTI_IRQHandler(KEY_BUTTON_PIN);
 8003faa:	f7fd bae7 	b.w	800157c <HAL_GPIO_EXTI_IRQHandler>
	...

08003fb0 <SystemInit>:
  */
void SystemInit(void)
{
  /* FPU settings ------------------------------------------------------------*/
  #if (__FPU_PRESENT == 1) && (__FPU_USED == 1)
    SCB->CPACR |= ((3UL << 10*2)|(3UL << 11*2));  /* set CP10 and CP11 Full Access */
 8003fb0:	490f      	ldr	r1, [pc, #60]	; (8003ff0 <SystemInit+0x40>)
 8003fb2:	f8d1 3088 	ldr.w	r3, [r1, #136]	; 0x88
 8003fb6:	f443 0370 	orr.w	r3, r3, #15728640	; 0xf00000
 8003fba:	f8c1 3088 	str.w	r3, [r1, #136]	; 0x88
  #endif
  /* Reset the RCC clock configuration to the default reset state ------------*/
  /* Set HSION bit */
  RCC->CR |= (uint32_t)0x00000001;
 8003fbe:	4b0d      	ldr	r3, [pc, #52]	; (8003ff4 <SystemInit+0x44>)
 8003fc0:	681a      	ldr	r2, [r3, #0]

  /* Reset CFGR register */
  RCC->CFGR = 0x00000000;
 8003fc2:	2000      	movs	r0, #0
  RCC->CR |= (uint32_t)0x00000001;
 8003fc4:	f042 0201 	orr.w	r2, r2, #1
 8003fc8:	601a      	str	r2, [r3, #0]
  RCC->CFGR = 0x00000000;
 8003fca:	6098      	str	r0, [r3, #8]

  /* Reset HSEON, CSSON and PLLON bits */
  RCC->CR &= (uint32_t)0xFEF6FFFF;
 8003fcc:	681a      	ldr	r2, [r3, #0]
 8003fce:	f022 7284 	bic.w	r2, r2, #17301504	; 0x1080000
 8003fd2:	f422 3280 	bic.w	r2, r2, #65536	; 0x10000
 8003fd6:	601a      	str	r2, [r3, #0]

  /* Reset PLLCFGR register */
  RCC->PLLCFGR = 0x24003010;
 8003fd8:	4a07      	ldr	r2, [pc, #28]	; (8003ff8 <SystemInit+0x48>)
 8003fda:	605a      	str	r2, [r3, #4]

  /* Reset HSEBYP bit */
  RCC->CR &= (uint32_t)0xFFFBFFFF;
 8003fdc:	681a      	ldr	r2, [r3, #0]
 8003fde:	f422 2280 	bic.w	r2, r2, #262144	; 0x40000
 8003fe2:	601a      	str	r2, [r3, #0]

  /* Disable all interrupts */
  RCC->CIR = 0x00000000;
 8003fe4:	60d8      	str	r0, [r3, #12]

  /* Configure the Vector Table location add offset address ------------------*/
#ifdef VECT_TAB_SRAM
  SCB->VTOR = SRAM_BASE | VECT_TAB_OFFSET; /* Vector Table Relocation in Internal SRAM */
#else
  SCB->VTOR = FLASH_BASE | VECT_TAB_OFFSET; /* Vector Table Relocation in Internal FLASH */
 8003fe6:	f04f 6300 	mov.w	r3, #134217728	; 0x8000000
 8003fea:	608b      	str	r3, [r1, #8]
 8003fec:	4770      	bx	lr
 8003fee:	bf00      	nop
 8003ff0:	e000ed00 	.word	0xe000ed00
 8003ff4:	40023800 	.word	0x40023800
 8003ff8:	24003010 	.word	0x24003010

08003ffc <Reset_Handler>:

    .section  .text.Reset_Handler
  .weak  Reset_Handler
  .type  Reset_Handler, %function
Reset_Handler:  
  ldr   sp, =_estack    		 /* set stack pointer */
 8003ffc:	f8df d034 	ldr.w	sp, [pc, #52]	; 8004034 <LoopFillZerobss+0x14>

/* Copy the data segment initializers from flash to SRAM */  
  movs  r1, #0
 8004000:	2100      	movs	r1, #0
  b  LoopCopyDataInit
 8004002:	e003      	b.n	800400c <LoopCopyDataInit>

08004004 <CopyDataInit>:

CopyDataInit:
  ldr  r3, =_sidata
 8004004:	4b0c      	ldr	r3, [pc, #48]	; (8004038 <LoopFillZerobss+0x18>)
  ldr  r3, [r3, r1]
 8004006:	585b      	ldr	r3, [r3, r1]
  str  r3, [r0, r1]
 8004008:	5043      	str	r3, [r0, r1]
  adds  r1, r1, #4
 800400a:	3104      	adds	r1, #4

0800400c <LoopCopyDataInit>:
    
LoopCopyDataInit:
  ldr  r0, =_sdata
 800400c:	480b      	ldr	r0, [pc, #44]	; (800403c <LoopFillZerobss+0x1c>)
  ldr  r3, =_edata
 800400e:	4b0c      	ldr	r3, [pc, #48]	; (8004040 <LoopFillZerobss+0x20>)
  adds  r2, r0, r1
 8004010:	1842      	adds	r2, r0, r1
  cmp  r2, r3
 8004012:	429a      	cmp	r2, r3
  bcc  CopyDataInit
 8004014:	d3f6      	bcc.n	8004004 <CopyDataInit>
  ldr  r2, =_sbss
 8004016:	4a0b      	ldr	r2, [pc, #44]	; (8004044 <LoopFillZerobss+0x24>)
  b  LoopFillZerobss
 8004018:	e002      	b.n	8004020 <LoopFillZerobss>

0800401a <FillZerobss>:
/* Zero fill the bss segment. */  
FillZerobss:
  movs  r3, #0
 800401a:	2300      	movs	r3, #0
  str  r3, [r2], #4
 800401c:	f842 3b04 	str.w	r3, [r2], #4

08004020 <LoopFillZerobss>:
    
LoopFillZerobss:
  ldr  r3, = _ebss
 8004020:	4b09      	ldr	r3, [pc, #36]	; (8004048 <LoopFillZerobss+0x28>)
  cmp  r2, r3
 8004022:	429a      	cmp	r2, r3
  bcc  FillZerobss
 8004024:	d3f9      	bcc.n	800401a <FillZerobss>

/* Call the clock system intitialization function.*/
  bl  SystemInit   
 8004026:	f7ff ffc3 	bl	8003fb0 <SystemInit>
/* Call static constructors */
    bl __libc_init_array
 800402a:	f000 f811 	bl	8004050 <__libc_init_array>
/* Call the application's entry point.*/
  bl  main
 800402e:	f7ff fd1d 	bl	8003a6c <main>
  bx  lr    
 8004032:	4770      	bx	lr
  ldr   sp, =_estack    		 /* set stack pointer */
 8004034:	20018000 	.word	0x20018000
  ldr  r3, =_sidata
 8004038:	08004400 	.word	0x08004400
  ldr  r0, =_sdata
 800403c:	20000000 	.word	0x20000000
  ldr  r3, =_edata
 8004040:	2000036c 	.word	0x2000036c
  ldr  r2, =_sbss
 8004044:	2000036c 	.word	0x2000036c
  ldr  r3, = _ebss
 8004048:	200044ec 	.word	0x200044ec

0800404c <ADC_IRQHandler>:
 * @retval None       
*/
    .section  .text.Default_Handler,"ax",%progbits
Default_Handler:
Infinite_Loop:
  b  Infinite_Loop
 800404c:	e7fe      	b.n	800404c <ADC_IRQHandler>
	...

08004050 <__libc_init_array>:
 8004050:	b570      	push	{r4, r5, r6, lr}
 8004052:	4e0d      	ldr	r6, [pc, #52]	; (8004088 <__libc_init_array+0x38>)
 8004054:	4c0d      	ldr	r4, [pc, #52]	; (800408c <__libc_init_array+0x3c>)
 8004056:	1ba4      	subs	r4, r4, r6
 8004058:	10a4      	asrs	r4, r4, #2
 800405a:	2500      	movs	r5, #0
 800405c:	42a5      	cmp	r5, r4
 800405e:	d109      	bne.n	8004074 <__libc_init_array+0x24>
 8004060:	4e0b      	ldr	r6, [pc, #44]	; (8004090 <__libc_init_array+0x40>)
 8004062:	4c0c      	ldr	r4, [pc, #48]	; (8004094 <__libc_init_array+0x44>)
 8004064:	f000 f8e4 	bl	8004230 <_init>
 8004068:	1ba4      	subs	r4, r4, r6
 800406a:	10a4      	asrs	r4, r4, #2
 800406c:	2500      	movs	r5, #0
 800406e:	42a5      	cmp	r5, r4
 8004070:	d105      	bne.n	800407e <__libc_init_array+0x2e>
 8004072:	bd70      	pop	{r4, r5, r6, pc}
 8004074:	f856 3025 	ldr.w	r3, [r6, r5, lsl #2]
 8004078:	4798      	blx	r3
 800407a:	3501      	adds	r5, #1
 800407c:	e7ee      	b.n	800405c <__libc_init_array+0xc>
 800407e:	f856 3025 	ldr.w	r3, [r6, r5, lsl #2]
 8004082:	4798      	blx	r3
 8004084:	3501      	adds	r5, #1
 8004086:	e7f2      	b.n	800406e <__libc_init_array+0x1e>
 8004088:	080043f8 	.word	0x080043f8
 800408c:	080043f8 	.word	0x080043f8
 8004090:	080043f8 	.word	0x080043f8
 8004094:	080043fc 	.word	0x080043fc

08004098 <memcpy>:
 8004098:	b510      	push	{r4, lr}
 800409a:	1e43      	subs	r3, r0, #1
 800409c:	440a      	add	r2, r1
 800409e:	4291      	cmp	r1, r2
 80040a0:	d100      	bne.n	80040a4 <memcpy+0xc>
 80040a2:	bd10      	pop	{r4, pc}
 80040a4:	f811 4b01 	ldrb.w	r4, [r1], #1
 80040a8:	f803 4f01 	strb.w	r4, [r3, #1]!
 80040ac:	e7f7      	b.n	800409e <memcpy+0x6>

080040ae <memset>:
 80040ae:	4402      	add	r2, r0
 80040b0:	4603      	mov	r3, r0
 80040b2:	4293      	cmp	r3, r2
 80040b4:	d100      	bne.n	80040b8 <memset+0xa>
 80040b6:	4770      	bx	lr
 80040b8:	f803 1b01 	strb.w	r1, [r3], #1
 80040bc:	e7f9      	b.n	80040b2 <memset+0x4>

080040be <_strtol_l.isra.0>:
 80040be:	e92d 4ff8 	stmdb	sp!, {r3, r4, r5, r6, r7, r8, r9, sl, fp, lr}
 80040c2:	4680      	mov	r8, r0
 80040c4:	4689      	mov	r9, r1
 80040c6:	4692      	mov	sl, r2
 80040c8:	461f      	mov	r7, r3
 80040ca:	468b      	mov	fp, r1
 80040cc:	465d      	mov	r5, fp
 80040ce:	980a      	ldr	r0, [sp, #40]	; 0x28
 80040d0:	f815 4b01 	ldrb.w	r4, [r5], #1
 80040d4:	f000 f88a 	bl	80041ec <__locale_ctype_ptr_l>
 80040d8:	4420      	add	r0, r4
 80040da:	7846      	ldrb	r6, [r0, #1]
 80040dc:	f016 0608 	ands.w	r6, r6, #8
 80040e0:	d10b      	bne.n	80040fa <_strtol_l.isra.0+0x3c>
 80040e2:	2c2d      	cmp	r4, #45	; 0x2d
 80040e4:	d10b      	bne.n	80040fe <_strtol_l.isra.0+0x40>
 80040e6:	782c      	ldrb	r4, [r5, #0]
 80040e8:	2601      	movs	r6, #1
 80040ea:	f10b 0502 	add.w	r5, fp, #2
 80040ee:	b167      	cbz	r7, 800410a <_strtol_l.isra.0+0x4c>
 80040f0:	2f10      	cmp	r7, #16
 80040f2:	d114      	bne.n	800411e <_strtol_l.isra.0+0x60>
 80040f4:	2c30      	cmp	r4, #48	; 0x30
 80040f6:	d00a      	beq.n	800410e <_strtol_l.isra.0+0x50>
 80040f8:	e011      	b.n	800411e <_strtol_l.isra.0+0x60>
 80040fa:	46ab      	mov	fp, r5
 80040fc:	e7e6      	b.n	80040cc <_strtol_l.isra.0+0xe>
 80040fe:	2c2b      	cmp	r4, #43	; 0x2b
 8004100:	bf04      	itt	eq
 8004102:	782c      	ldrbeq	r4, [r5, #0]
 8004104:	f10b 0502 	addeq.w	r5, fp, #2
 8004108:	e7f1      	b.n	80040ee <_strtol_l.isra.0+0x30>
 800410a:	2c30      	cmp	r4, #48	; 0x30
 800410c:	d127      	bne.n	800415e <_strtol_l.isra.0+0xa0>
 800410e:	782b      	ldrb	r3, [r5, #0]
 8004110:	f003 03df 	and.w	r3, r3, #223	; 0xdf
 8004114:	2b58      	cmp	r3, #88	; 0x58
 8004116:	d14b      	bne.n	80041b0 <_strtol_l.isra.0+0xf2>
 8004118:	786c      	ldrb	r4, [r5, #1]
 800411a:	2710      	movs	r7, #16
 800411c:	3502      	adds	r5, #2
 800411e:	2e00      	cmp	r6, #0
 8004120:	bf0c      	ite	eq
 8004122:	f06f 4100 	mvneq.w	r1, #2147483648	; 0x80000000
 8004126:	f04f 4100 	movne.w	r1, #2147483648	; 0x80000000
 800412a:	2200      	movs	r2, #0
 800412c:	fbb1 fef7 	udiv	lr, r1, r7
 8004130:	4610      	mov	r0, r2
 8004132:	fb07 1c1e 	mls	ip, r7, lr, r1
 8004136:	f1a4 0330 	sub.w	r3, r4, #48	; 0x30
 800413a:	2b09      	cmp	r3, #9
 800413c:	d811      	bhi.n	8004162 <_strtol_l.isra.0+0xa4>
 800413e:	461c      	mov	r4, r3
 8004140:	42a7      	cmp	r7, r4
 8004142:	dd1d      	ble.n	8004180 <_strtol_l.isra.0+0xc2>
 8004144:	1c53      	adds	r3, r2, #1
 8004146:	d007      	beq.n	8004158 <_strtol_l.isra.0+0x9a>
 8004148:	4586      	cmp	lr, r0
 800414a:	d316      	bcc.n	800417a <_strtol_l.isra.0+0xbc>
 800414c:	d101      	bne.n	8004152 <_strtol_l.isra.0+0x94>
 800414e:	45a4      	cmp	ip, r4
 8004150:	db13      	blt.n	800417a <_strtol_l.isra.0+0xbc>
 8004152:	fb00 4007 	mla	r0, r0, r7, r4
 8004156:	2201      	movs	r2, #1
 8004158:	f815 4b01 	ldrb.w	r4, [r5], #1
 800415c:	e7eb      	b.n	8004136 <_strtol_l.isra.0+0x78>
 800415e:	270a      	movs	r7, #10
 8004160:	e7dd      	b.n	800411e <_strtol_l.isra.0+0x60>
 8004162:	f1a4 0341 	sub.w	r3, r4, #65	; 0x41
 8004166:	2b19      	cmp	r3, #25
 8004168:	d801      	bhi.n	800416e <_strtol_l.isra.0+0xb0>
 800416a:	3c37      	subs	r4, #55	; 0x37
 800416c:	e7e8      	b.n	8004140 <_strtol_l.isra.0+0x82>
 800416e:	f1a4 0361 	sub.w	r3, r4, #97	; 0x61
 8004172:	2b19      	cmp	r3, #25
 8004174:	d804      	bhi.n	8004180 <_strtol_l.isra.0+0xc2>
 8004176:	3c57      	subs	r4, #87	; 0x57
 8004178:	e7e2      	b.n	8004140 <_strtol_l.isra.0+0x82>
 800417a:	f04f 32ff 	mov.w	r2, #4294967295	; 0xffffffff
 800417e:	e7eb      	b.n	8004158 <_strtol_l.isra.0+0x9a>
 8004180:	1c53      	adds	r3, r2, #1
 8004182:	d108      	bne.n	8004196 <_strtol_l.isra.0+0xd8>
 8004184:	2322      	movs	r3, #34	; 0x22
 8004186:	f8c8 3000 	str.w	r3, [r8]
 800418a:	4608      	mov	r0, r1
 800418c:	f1ba 0f00 	cmp.w	sl, #0
 8004190:	d107      	bne.n	80041a2 <_strtol_l.isra.0+0xe4>
 8004192:	e8bd 8ff8 	ldmia.w	sp!, {r3, r4, r5, r6, r7, r8, r9, sl, fp, pc}
 8004196:	b106      	cbz	r6, 800419a <_strtol_l.isra.0+0xdc>
 8004198:	4240      	negs	r0, r0
 800419a:	f1ba 0f00 	cmp.w	sl, #0
 800419e:	d00c      	beq.n	80041ba <_strtol_l.isra.0+0xfc>
 80041a0:	b122      	cbz	r2, 80041ac <_strtol_l.isra.0+0xee>
 80041a2:	3d01      	subs	r5, #1
 80041a4:	f8ca 5000 	str.w	r5, [sl]
 80041a8:	e8bd 8ff8 	ldmia.w	sp!, {r3, r4, r5, r6, r7, r8, r9, sl, fp, pc}
 80041ac:	464d      	mov	r5, r9
 80041ae:	e7f9      	b.n	80041a4 <_strtol_l.isra.0+0xe6>
 80041b0:	2430      	movs	r4, #48	; 0x30
 80041b2:	2f00      	cmp	r7, #0
 80041b4:	d1b3      	bne.n	800411e <_strtol_l.isra.0+0x60>
 80041b6:	2708      	movs	r7, #8
 80041b8:	e7b1      	b.n	800411e <_strtol_l.isra.0+0x60>
 80041ba:	e8bd 8ff8 	ldmia.w	sp!, {r3, r4, r5, r6, r7, r8, r9, sl, fp, pc}
	...

080041c0 <strtol>:
 80041c0:	4b08      	ldr	r3, [pc, #32]	; (80041e4 <strtol+0x24>)
 80041c2:	b537      	push	{r0, r1, r2, r4, r5, lr}
 80041c4:	681c      	ldr	r4, [r3, #0]
 80041c6:	4d08      	ldr	r5, [pc, #32]	; (80041e8 <strtol+0x28>)
 80041c8:	6a23      	ldr	r3, [r4, #32]
 80041ca:	2b00      	cmp	r3, #0
 80041cc:	bf08      	it	eq
 80041ce:	462b      	moveq	r3, r5
 80041d0:	9300      	str	r3, [sp, #0]
 80041d2:	4613      	mov	r3, r2
 80041d4:	460a      	mov	r2, r1
 80041d6:	4601      	mov	r1, r0
 80041d8:	4620      	mov	r0, r4
 80041da:	f7ff ff70 	bl	80040be <_strtol_l.isra.0>
 80041de:	b003      	add	sp, #12
 80041e0:	bd30      	pop	{r4, r5, pc}
 80041e2:	bf00      	nop
 80041e4:	2000019c 	.word	0x2000019c
 80041e8:	20000200 	.word	0x20000200

080041ec <__locale_ctype_ptr_l>:
 80041ec:	f8d0 00ec 	ldr.w	r0, [r0, #236]	; 0xec
 80041f0:	4770      	bx	lr

080041f2 <__ascii_mbtowc>:
 80041f2:	b082      	sub	sp, #8
 80041f4:	b901      	cbnz	r1, 80041f8 <__ascii_mbtowc+0x6>
 80041f6:	a901      	add	r1, sp, #4
 80041f8:	b142      	cbz	r2, 800420c <__ascii_mbtowc+0x1a>
 80041fa:	b14b      	cbz	r3, 8004210 <__ascii_mbtowc+0x1e>
 80041fc:	7813      	ldrb	r3, [r2, #0]
 80041fe:	600b      	str	r3, [r1, #0]
 8004200:	7812      	ldrb	r2, [r2, #0]
 8004202:	1c10      	adds	r0, r2, #0
 8004204:	bf18      	it	ne
 8004206:	2001      	movne	r0, #1
 8004208:	b002      	add	sp, #8
 800420a:	4770      	bx	lr
 800420c:	4610      	mov	r0, r2
 800420e:	e7fb      	b.n	8004208 <__ascii_mbtowc+0x16>
 8004210:	f06f 0001 	mvn.w	r0, #1
 8004214:	e7f8      	b.n	8004208 <__ascii_mbtowc+0x16>

08004216 <__ascii_wctomb>:
 8004216:	b149      	cbz	r1, 800422c <__ascii_wctomb+0x16>
 8004218:	2aff      	cmp	r2, #255	; 0xff
 800421a:	bf85      	ittet	hi
 800421c:	238a      	movhi	r3, #138	; 0x8a
 800421e:	6003      	strhi	r3, [r0, #0]
 8004220:	700a      	strbls	r2, [r1, #0]
 8004222:	f04f 30ff 	movhi.w	r0, #4294967295	; 0xffffffff
 8004226:	bf98      	it	ls
 8004228:	2001      	movls	r0, #1
 800422a:	4770      	bx	lr
 800422c:	4608      	mov	r0, r1
 800422e:	4770      	bx	lr

08004230 <_init>:
 8004230:	b5f8      	push	{r3, r4, r5, r6, r7, lr}
 8004232:	bf00      	nop
 8004234:	bcf8      	pop	{r3, r4, r5, r6, r7}
 8004236:	bc08      	pop	{r3}
 8004238:	469e      	mov	lr, r3
 800423a:	4770      	bx	lr

0800423c <_fini>:
 800423c:	b5f8      	push	{r3, r4, r5, r6, r7, lr}
 800423e:	bf00      	nop
 8004240:	bcf8      	pop	{r3, r4, r5, r6, r7}
 8004242:	bc08      	pop	{r3}
 8004244:	469e      	mov	lr, r3
 8004246:	4770      	bx	lr
